14.08.2024			                                                                                                                                Inbound deliveries per HAG invoices (extended 2)																													  1

Inbound deliveries per HAG invoices (extended 2)

		Doc. No.		Shipment	Purch.Doc.	 Item	Material	Material Description	Plnt	SLoc	    PO Quantity	OUn	OUn	  Item	Delivery	Reference	Supplier	POrg	PGr	Vendor	ShPt	Deliv.Date	Doc. Date	Ext. Order Pos	Ext. Order Number	Suppl.Vndr	TrackingNo	Reservation	Reservation item	Reservation order date	Diff.days

		4051473646		10310999	4536929431	00001	2042971	Sheet metal nail X-HSN 24	8750	0001	         1.000	PC	PC	000010	680814223	58111304	HLI0550	8750	L04	9999	8750	26.08.2024	24.06.2024	0010	56278780	HLI0550	D319744001	0013319744	            0001	04.06.2024	       0
		4051473646		10310999	4536929432	00001	2042971	Sheet metal nail X-HSN 24	8750	0001	         4.000	PC	PC	000010	680814224	58111306	HLI0550	8750	L04	9999	8750	26.08.2024	24.06.2024	0010	56278780	HLI0550	D319744001	0013319744	            0001	04.06.2024	       0
		4051484909		10373381	4537081769	00001	293480	Hammer drill bit TE-YX 7/8"-36"	8330	0001	             1	PC	PC	000010	680937916	58133943	HLI0550	8300	L09	9999	8330	25.09.2024	22.07.2024	0010	56320710	HLI0550	D403852001	0013403852	            0001	15.07.2024	       0
		4051476730		10330549	4536968405	00001	2097583	Rotating laser PR 300-HV2S	8330	0001	             6	PC	PC	000010	680847030	58114449	HLI0550	8300	L07	9999	8330	04.09.2024	01.07.2024	0010	56295031	HLI0550	D348763006	0013348763	            0006	20.06.2024	       0
		4051476730		10330549	4536968407	00001	2264046	Laser receiver PMA 32	8330	0001	             5	PC	PC	000010	680847033	58116665	HLI0550	8300	L07	9999	8330	04.09.2024	01.07.2024	0020	56295031	HLI0550	D348763013	0013348763	            0013	20.06.2024	       0
		4051476730		10330549	4536968408	00001	2341092	Hammer drill bit TE-CX 1/2"-6"	8330	0001	             4	PC	PC	000010	680847035	58116825	HLI0550	8300	L09	9999	8330	04.09.2024	01.07.2024	0090	56291815	HLI0550	D341658005	0013341658	            0005	17.06.2024	-42
		4051476730		10330549	4536968410	00001	2341092	Hammer drill bit TE-CX 1/2"-6"	8330	0001	             8	PC	PC	000010	680847038	58116825	HLI0550	8300	L09	9999	8330	04.09.2024	01.07.2024	0020	56296328	HLI0550	D352701002	0013352701	            0002	20.06.2024	-42
		4051476730		10330549	4536968412	00001	2206619	Hammer drill bit TE-CX 22/27	8330	0001	             5	PC	PC	000010	680847040	58116825	HLI0550	8300	L09	9999	8330	04.09.2024	01.07.2024	0020	56299276	HLI0550	D358499006	0013358499	            0006	24.06.2024	       0
		4051476730		10330549	4536968413	00001	2075551	Carbon brush SAG set	8330	0001	             9	PC	PC	000010	680847043	58116825	HLI0550	8300	L09	9999	8330	04.09.2024	01.07.2024	0030	56299276	HLI0550	D358499008	0013358499	            0008	24.06.2024	       0
		4051476730		10330549	4536968415	00001	2341092	Hammer drill bit TE-CX 1/2"-6"	8330	0001	             8	PC	PC	000010	680847045	58116825	HLI0550	8300	L09	9999	8330	04.09.2024	01.07.2024	0050	56299276	HLI0550	D358499010	0013358499	            0010	24.06.2024	-49
		4051476730		10330549	4536968417	00001	2341092	Hammer drill bit TE-CX 1/2"-6"	8330	0001	            10	PC	PC	000010	680847048	58116825	HLI0550	8300	L09	9999	8330	04.09.2024	01.07.2024	0010	56299294	HLI0550	D358751001	0013358751	            0001	24.06.2024	       0
		4051476730		10330549	4536968419	00001	2121621	Battery GX120 kit	8330	0001	            14	PC	PC	000010	680847050	58116666	HLI0550	8300	L04	9999	8330	04.09.2024	01.07.2024	0190	56295031	HLI0550	D348763009	0013348763	            0009	20.06.2024	       0
		4051476730		10330549	4536968421	00001	2153651	ON!Track tag AI L5	8330	0001	           100	PC	PC	000010	680847053	58116826	HLI0550	8300	L13	9999	8330	04.09.2024	01.07.2024	0020	56288716	HLI0550	D335693002	0013335693	            0002	13.06.2024	       0
		4051476730		10330549	4536968423	00001	2153650	ON!Track tag AI L2	8330	0001	           100	PC	PC	000010	680847055	58116826	HLI0550	8300	L13	9999	8330	04.09.2024	01.07.2024	0090	56295123	HLI0550	D348922021	0013348922	            0021	20.06.2024	       0
		4051476730		10330549	4536968425	00001	2153650	ON!Track tag AI L2	8330	0001	         1.800	PC	PC	000010	680847058	58116827	HLI0550	8300	L13	9999	8330	04.09.2024	01.07.2024	0090	56295123	HLI0550	D348922021	0013348922	            0021	20.06.2024	       0
		4051476730		10330549	4536968426	00001	2153651	ON!Track tag AI L5	8330	0001	           100	PC	PC	000010	680847060	58116826	HLI0550	8300	L13	9999	8330	04.09.2024	01.07.2024	0010	56297627	HLI0550	D354482001	0013354482	            0001	22.06.2024	       0
		4051476730		10330549	4536968428	00001	2346083	Stepped drill bit TS-BT 5.3-65 S	8330	0001	            50	PC	PC	000010	680847063	58117320	HLI0550	8300	L10	9999	8330	04.09.2024	01.07.2024	0010	56188309	HLI0550	D137477002	0013137477	            0002	08.03.2024	     105
		4051476730		10330549	4536968430	00001	438579	Breaker TE 700-AVR 220V	8330	0001	            20	PC	PC	000010	680847066	58117454	HLI0550	8300	L08	9999	8330	04.09.2024	01.07.2024	0010	56197547	HLI0550	D156958001	0013156958	            0001	18.03.2024	       7
		4051476730		10330549	4536968432	00001	438579	Breaker TE 700-AVR 220V	8330	0001	            20	PC	PC	000010	680847070	58117455	HLI0550	8300	L08	9999	8330	04.09.2024	01.07.2024	0010	56197547	HLI0550	D156958001	0013156958	            0001	18.03.2024	       7
		4051476730		10330549	4536968434	00001	438579	Breaker TE 700-AVR 220V	8330	0001	            20	PC	PC	000010	680847072	58117456	HLI0550	8300	L08	9999	8330	04.09.2024	01.07.2024	0010	56197547	HLI0550	D156958001	0013156958	            0001	18.03.2024	       7
		4051476730		10330549	4536968435	00001	438579	Breaker TE 700-AVR 220V	8330	0001	            20	PC	PC	000010	680847075	58117457	HLI0550	8300	L08	9999	8330	04.09.2024	01.07.2024	0010	56197547	HLI0550	D156958001	0013156958	            0001	18.03.2024	       7
		4051476730		10330549	4536968437	00001	438579	Breaker TE 700-AVR 220V	8330	0001	            20	PC	PC	000010	680847078	58117458	HLI0550	8300	L08	9999	8330	04.09.2024	01.07.2024	0010	56197547	HLI0550	D156958001	0013156958	            0001	18.03.2024	       7
		4051476730		10330549	4536968439	00001	438579	Breaker TE 700-AVR 220V	8330	0001	            20	PC	PC	000010	680847081	58117459	HLI0550	8300	L08	9999	8330	04.09.2024	01.07.2024	0010	56197547	HLI0550	D156958001	0013156958	            0001	18.03.2024	       7
		4051476730		10330549	4536968441	00001	2341099	Hammer drill bit TE-CX 5/8"-8"	8330	0001	            41	PC	PC	000010	680847084	58117320	HLI0550	8300	L09	9999	8330	04.09.2024	01.07.2024	0120	56211132	HLI0550	D186874022	0013186874	            0022	01.04.2024	      49
		4051476730		10330549	4536968442	00001	2063001	Combihammer TE 70-AVR 220V	8330	0001	             1	PC	PC	000010	680847086	58114470	HLI0550	8300	L08	9999	8330	04.09.2024	01.07.2024	0240	56232777	HLI0550	D226779050	0013226779	            0050	19.04.2024	       7
		4051476730		10330549	4536968444	00001	2063001	Combihammer TE 70-AVR 220V	8330	0001	            10	PC	PC	000010	680847089	58114489	HLI0550	8300	L08	9999	8330	04.09.2024	01.07.2024	0240	56232777	HLI0550	D226779050	0013226779	            0050	19.04.2024	       7
		4051476730		10330549	4536968446	00001	2242387	Diamond cup DG-CW 125/5" P (6) univ	8330	0001	            72	PC	PC	000010	680847092	58117321	HLI0550	8300	L05	9999	8330	04.09.2024	01.07.2024	0030	56248404	HLI0550	D258070003	0013258070	            0003	06.05.2024	      35
		4051476730		10330549	4536968448	00001	293027	Hammer drill bit TE-YX 1 1/4"-36"	8330	0001	             8	PC	PC	000010	680847095	58117453	HLI0550	8300	L09	9999	8330	04.09.2024	01.07.2024	0070	56248889	HLI0550	D260623006	0013260623	            0006	06.05.2024	      28
		4051476730		10330549	4536968450	00001	2148677	Angle grinder AG 230-24D 230V box	8330	0001	             2	PC	PC	000010	680847098	58115291	HLI0550	8300	L08	9999	8330	04.09.2024	01.07.2024	0020	56250489	HLI0550	D263296003	0013263296	            0003	07.05.2024	-42
		4051476730		10330549	4536968451	00001	2148677	Angle grinder AG 230-24D 230V box	8330	0001	             3	PC	PC	000010	680847100	58115421	HLI0550	8300	L08	9999	8330	04.09.2024	01.07.2024	0020	56250489	HLI0550	D263296003	0013263296	            0003	07.05.2024	-42
		4051476730		10330549	4536968453	00001	2254658	Pointed chisel TE-HX SM 50	8330	0001	            20	PC	PC	000010	680847103	58117321	HLI0550	8300	L09	9999	8330	04.09.2024	01.07.2024	0040	56255403	HLI0550	D273742006	0013273742	            0006	13.05.2024	       0
		4051476730		10330549	4536968455	00001	2167744	Breaker TE 1000-AVR 230V univ cord	8330	0001	            10	PC	PC	000010	680847105	58114454	HLI0550	8300	L08	9999	8330	04.09.2024	01.07.2024	0030	56257322	HLI0550	D276539006	0013276539	            0006	14.05.2024	       0
		4051476730		10330549	4536968457	00001	2167744	Breaker TE 1000-AVR 230V univ cord	8330	0001	            10	PC	PC	000010	680847108	58114455	HLI0550	8300	L08	9999	8330	04.09.2024	01.07.2024	0030	56257322	HLI0550	D276539006	0013276539	            0006	14.05.2024	       0
		4051476730		10330549	4536968460	00001	2167744	Breaker TE 1000-AVR 230V univ cord	8330	0001	            10	PC	PC	000010	680847111	58114456	HLI0550	8300	L08	9999	8330	04.09.2024	01.07.2024	0030	56257322	HLI0550	D276539006	0013276539	            0006	14.05.2024	       0
		4051476730		10330549	4536968462	00001	2151626	Hammer drill bit TE-CX 12/17	8330	0001	             5	PC	PC	000010	680847113	58117320	HLI0550	8300	L09	9999	8330	04.09.2024	01.07.2024	0040	56257322	HLI0550	D276539015	0013276539	            0015	14.05.2024	       0
		4051476730		10330549	4536968464	00001	2242387	Diamond cup DG-CW 125/5" P (6) univ	8330	0001	            72	PC	PC	000010	680847116	58117321	HLI0550	8300	L05	9999	8330	04.09.2024	01.07.2024	0010	56257866	HLI0550	D276912001	0013276912	            0001	15.05.2024	      21
		4051476730		10330549	4536968467	00001	2199635	Core bit BI 28/320 SP-L abras	8330	0001	             6	PC	PC	000010	680847118	58117320	HLI0550	8300	L05	9999	8330	04.09.2024	01.07.2024	0200	56261542	HLI0550	D282817023	0013282817	            0023	18.05.2024	      35
		4051476730		10330549	4536968469	00001	2199635	Core bit BI 28/320 SP-L abras	8330	0001	             8	PC	PC	000010	680847120	58117321	HLI0550	8300	L05	9999	8330	04.09.2024	01.07.2024	0200	56261542	HLI0550	D282817023	0013282817	            0023	18.05.2024	      35
		4051476730		10330549	4536968471	00001	2241987	Pointed chisel TE-YX SM 50 (4)	8330	0001	            96	PC	PC	000010	680847122	58117460	HLI0550	8300	L09	9999	8330	04.09.2024	01.07.2024	0010	56264103	HLI0550	D287583001	0013287583	            0001	21.05.2024	       0
		4051476730		10330549	4536968473	00001	2341253	Pointed chisel TE-SX SM 50 (4)	8330	0001	           112	PC	PC	000010	680847124	58117460	HLI0550	8300	L09	9999	8330	04.09.2024	01.07.2024	0040	56264103	HLI0550	D287583004	0013287583	            0004	21.05.2024	       0
		4051476730		10330549	4536968475	00001	2151634	Hammer drill bit TE-CX 14/17	8330	0001	             5	PC	PC	000010	680847125	58116822	HLI0550	8300	L09	9999	8330	04.09.2024	01.07.2024	0010	56288546	HLI0550	D335489001	0013335489	            0001	13.06.2024	       0
		4051476730		10330549	4536968477	00001	2112751	Setting tool HKD-TE-CX M10 3/8"x30	8330	0001	             1	PC	PC	000010	680847126	58116822	HLI0550	8300	L09	9999	8330	04.09.2024	01.07.2024	0140	56288770	HLI0550	D335878023	0013335878	            0023	13.06.2024	       7
		4051476730		10330549	4536968481	00001	2150736	Cutting disc AC-D SPX 230x1.8	8330	0001	           250	PC	PC	000010	680847127	58116802	HLI0550	8300	L09	9999	8330	04.09.2024	01.07.2024	0150	56288770	HLI0550	D335878024	0013335878	            0024	13.06.2024	       7
		4051476730		10330549	4536968485	00001	2150736	Cutting disc AC-D SPX 230x1.8	8330	0001	         2.250	PC	PC	000010	680847128	58116839	HLI0550	8300	L09	9999	8330	04.09.2024	01.07.2024	0150	56288770	HLI0550	D335878024	0013335878	            0024	13.06.2024	       7
		4051476730		10330549	4536968486	00001	2112751	Setting tool HKD-TE-CX M10 3/8"x30	8330	0001	             2	PC	PC	000010	680847129	58116822	HLI0550	8300	L09	9999	8330	04.09.2024	01.07.2024	0010	56291743	HLI0550	D342570005	0013342570	            0005	17.06.2024	       7
		4051476730		10330549	4536968488	00001	2148677	Angle grinder AG 230-24D 230V box	8330	0001	             3	PC	PC	000010	680847130	58115290	HLI0550	8300	L08	9999	8330	04.09.2024	01.07.2024	0050	56291743	HLI0550	D342570010	0013342570	            0010	17.06.2024	-84
		4051476730		10330549	4536968489	00001	2148677	Angle grinder AG 230-24D 230V box	8330	0001	             2	PC	PC	000010	680847131	58115307	HLI0550	8300	L08	9999	8330	04.09.2024	01.07.2024	0050	56291743	HLI0550	D342570010	0013342570	            0010	17.06.2024	-84
		4051476730		10330549	4536968492	00001	2200273	Dust lip set DGH 130	8330	0001	            15	PC	PC	000010	680847132	58116822	HLI0550	8300	L05	9999	8330	04.09.2024	01.07.2024	0010	56292791	HLI0550	D344638001	0013344638	            0001	18.06.2024	       0
		4051476730		10330549	4536968494	00001	2133384	Firestop wrap strip CFS-W P	8330	0001	           240	PC	PC	000010	680847133	58116662	HLI0550	8300	L03	9999	8330	04.09.2024	01.07.2024	0010	56292919	HLI0550	D342566001	0013342566	            0001	17.06.2024	       7
		4051476730		10330549	4536968495	00001	2133384	Firestop wrap strip CFS-W P	8330	0001	           240	PC	PC	000010	680847134	58116663	HLI0550	8300	L03	9999	8330	04.09.2024	01.07.2024	0010	56292919	HLI0550	D342566001	0013342566	            0001	17.06.2024	       7
		4051476730		10330549	4536968497	00001	2133384	Firestop wrap strip CFS-W P	8330	0001	           240	PC	PC	000010	680847135	58116664	HLI0550	8300	L03	9999	8330	04.09.2024	01.07.2024	0010	56292919	HLI0550	D342566001	0013342566	            0001	17.06.2024	       7
		4051476730		10330549	4536968499	00001	2095931	Angle grinder AG 115-8D	8330	0001	            32	PC	PC	000010	680847136	58114450	HLI0550	8300	L08	9999	8330	04.09.2024	01.07.2024	0010	56293310	HLI0550	D345710001	0013345710	            0001	18.06.2024	       0
		4051476730		10330549	4536968501	00001	282341	Quick-release chuck TE 16/TE 30	8330	0001	             3	PC	PC	000010	680847138	58116822	HLI0550	8300	L08	9999	8330	04.09.2024	01.07.2024	0010	56293410	HLI0550	D345300001	0013345300	            0001	18.06.2024	       0
		4051476730		10330549	4536968502	00001	409172	Hammer drill bit TE-CX 6/32	8330	0001	             4	PC	PC	000010	680847139	58116822	HLI0550	8300	L09	9999	8330	04.09.2024	01.07.2024	0020	56293410	HLI0550	D345300002	0013345300	            0002	18.06.2024	       0
		4051476730		10330549	4536968504	00001	433782	Hammer drill bit TE-CX 5/12	8330	0001	            10	PC	PC	000010	680847140	58116822	HLI0550	8300	L09	9999	8330	04.09.2024	01.07.2024	0030	56293410	HLI0550	D345300003	0013345300	            0003	18.06.2024	       0
		4051476730		10330549	4536968505	00001	433782	Hammer drill bit TE-CX 5/12	8330	0001	            90	PC	PC	000010	680847141	58116802	HLI0550	8300	L09	9999	8330	04.09.2024	01.07.2024	0030	56293410	HLI0550	D345300003	0013345300	            0003	18.06.2024	       0
		4051476730		10330549	4536968507	00001	224117	Quick-release chuck TE 2/2-S/2-E + SDS	8330	0001	             1	PC	PC	000010	680847142	58116822	HLI0550	8300	L08	9999	8330	04.09.2024	01.07.2024	0040	56293410	HLI0550	D345300004	0013345300	            0004	18.06.2024	       0
		4051476730		10330549	4536968509	00001	409190	Hammer drill bit TE-CX 10/27	8330	0001	            13	PC	PC	000010	680847143	58116822	HLI0550	8300	L09	9999	8330	04.09.2024	01.07.2024	0050	56293410	HLI0550	D345300005	0013345300	            0005	18.06.2024	       0
		4051476730		10330549	4536968511	00001	2206615	Hammer drill bit TE-CX 7/8"-18"	8330	0001	             8	PC	PC	000010	680847144	58116822	HLI0550	8300	L09	9999	8330	04.09.2024	01.07.2024	0060	56293410	HLI0550	D345300007	0013345300	            0007	18.06.2024	       0
		4051476730		10330549	4536968513	00001	2222128	Recip. saw blade SP 15 6 (5) w/m	8330	0001	            10	PC	PC	000010	680847145	58116822	HLI0550	8300	L09	9999	8330	04.09.2024	01.07.2024	0070	56293410	HLI0550	D345300008	0013345300	            0008	18.06.2024	       0
		4051476730		10330549	4536968514	00001	409181	Hammer drill bit TE-CX 8/47	8330	0001	             6	PC	PC	000010	680847146	58116822	HLI0550	8300	L09	9999	8330	04.09.2024	01.07.2024	0080	56293410	HLI0550	D345300009	0013345300	            0009	18.06.2024	       0
		4051476730		10330549	4536968516	00001	409178	Hammer drill bit TE-CX 8/27	8330	0001	            13	PC	PC	000010	680847147	58116822	HLI0550	8300	L09	9999	8330	04.09.2024	01.07.2024	0090	56293410	HLI0550	D345300010	0013345300	            0010	18.06.2024	       0
		4051476730		10330549	4536968518	00001	2112763	Setting tool HDI-P 3/8"	8330	0001	             5	PC	PC	000010	680847148	58116822	HLI0550	8300	L09	9999	8330	04.09.2024	01.07.2024	0100	56293410	HLI0550	D345300011	0013345300	            0011	18.06.2024	       0
		4051476730		10330549	4536968520	00001	2095932	Angle grinder AG 180-20P	8330	0001	            16	PC	PC	000010	680847149	58114450	HLI0550	8300	L08	9999	8330	04.09.2024	01.07.2024	0110	56293410	HLI0550	D345300012	0013345300	            0012	18.06.2024	       0
		4051476730		10330549	4536968522	00001	2333179	Cordl. mixer NMX 6-22 box	8330	0001	             5	PC	PC	000010	680847150	58114640	HLI0550	8300	L15	9999	8330	04.09.2024	01.07.2024	0120	56293410	HLI0550	D345300014	0013345300	            0014	18.06.2024	-7
		4051476730		10330549	4536968523	00001	341429	Protective cover 125 assy	8330	0001	             8	PC	PC	000010	680847151	58116822	HLI0550	8300	L09	9999	8330	04.09.2024	01.07.2024	0130	56293410	HLI0550	D345300015	0013345300	            0015	18.06.2024	       0
		4051476730		10330549	4536968525	00001	409176	Hammer drill bit TE-CX 8/17	8330	0001	            10	PC	PC	000010	680847152	58116822	HLI0550	8300	L09	9999	8330	04.09.2024	01.07.2024	0150	56293410	HLI0550	D345300017	0013345300	            0017	18.06.2024	       0
		4051476730		10330549	4536968527	00001	2107829	Comfort side handle TE SH-STD 2	8330	0001	            10	PC	PC	000010	680847153	58116822	HLI0550	8300	L08	9999	8330	04.09.2024	01.07.2024	0170	56293410	HLI0550	D345300020	0013345300	            0020	18.06.2024	       0
		4051476730		10330549	4536968530	00001	2333179	Cordl. mixer NMX 6-22 box	8330	0001	             5	PC	PC	000010	680847154	58114660	HLI0550	8300	L15	9999	8330	04.09.2024	01.07.2024	0180	56293410	HLI0550	D345300021	0013345300	            0021	18.06.2024	-14
		4051476730		10330549	4536968531	00001	2021990	Hammer drill bit TE-CX 5/12 MP8	8330	0001	            80	PC	PC	000010	680847155	58116822	HLI0550	8300	L09	9999	8330	04.09.2024	01.07.2024	0190	56293410	HLI0550	D345300022	0013345300	            0022	18.06.2024	       0
		4051476730		10330549	4536968533	00001	2333179	Cordl. mixer NMX 6-22 box	8330	0001	             5	PC	PC	000010	680847156	58114659	HLI0550	8300	L15	9999	8330	04.09.2024	01.07.2024	0200	56293410	HLI0550	D345300023	0013345300	            0023	18.06.2024	-35
		4051476730		10330549	4536968535	00001	2333179	Cordl. mixer NMX 6-22 box	8330	0001	             3	PC	PC	000010	680847157	58114452	HLI0550	8300	L15	9999	8330	04.09.2024	01.07.2024	0240	56293410	HLI0550	D345300027	0013345300	            0027	18.06.2024	       0
		4051476730		10330549	4536968538	00001	2095933	Angle grinder AG 180-20D	8330	0001	            24	PC	PC	000010	680847158	58114457	HLI0550	8300	L08	9999	8330	04.09.2024	01.07.2024	0250	56293410	HLI0550	D345300006	0013345300	            0006	18.06.2024	       0
		4051476730		10330549	4536968540	00001	2140379	Recip. saw blade SPX 23 68 (10) univ	8330	0001	            50	PC	PC	000010	680847159	58116822	HLI0550	8300	L09	9999	8330	04.09.2024	01.07.2024	0260	56293410	HLI0550	D345300028	0013345300	            0028	18.06.2024	       0
		4051476730		10330549	4536968543	00001	2207028	Bushing tool TE-YX BT 4x4	8330	0001	             1	PC	PC	000010	680847160	58116822	HLI0550	8300	L09	9999	8330	04.09.2024	01.07.2024	0020	56293436	HLI0550	D345937003	0013345937	            0003	18.06.2024	-28
		4051476730		10330549	4536968544	00001	2207028	Bushing tool TE-YX BT 4x4	8330	0001	             2	PC	PC	000010	680847161	58116822	HLI0550	8300	L09	9999	8330	04.09.2024	01.07.2024	0030	56293436	HLI0550	D345937007	0013345937	            0007	18.06.2024	-35
		4051476730		10330549	4536968546	00001	2162023	Carbon brush TE 70-ATC/500-X 220-240V	8330	0001	             1	PC	PC	000010	680847162	58116822	HLI0550	8300	L08	9999	8330	04.09.2024	01.07.2024	0010	56293459	HLI0550	D345100001	0013345100	            0001	18.06.2024	       0
		4051476730		10330549	4536968548	00001	2273642	Channel end cap MT-EC-30	8330	0001	           150	PC	PC	000010	680847163	58116822	HLI0550	8300	L14	9999	8330	04.09.2024	01.07.2024	0010	56293596	HLI0550	D345873011	0013345873	            0011	18.06.2024	       0
		4051476730		10330549	4536968550	00001	2273698	Girder end cap MT-EC-80	8330	0001	           150	PC	PC	000010	680847165	58116822	HLI0550	8300	L14	9999	8330	04.09.2024	01.07.2024	0020	56293596	HLI0550	D345873013	0013345873	            0013	18.06.2024	       0
		4051476730		10330549	4536968551	00001	2151634	Hammer drill bit TE-CX 14/17	8330	0001	             5	PC	PC	000010	680847166	58116822	HLI0550	8300	L09	9999	8330	04.09.2024	01.07.2024	0010	56294610	HLI0550	D347180001	0013347180	            0001	19.06.2024	       0
		4051476730		10330549	4536968553	00001	2261799	Core bit B 82/430+ P-U abras	8330	0001	            16	PC	PC	000010	680847167	58118188	HLI0550	8300	L05	9999	8330	04.09.2024	01.07.2024	0030	56294735	HLI0550	D348123003	0013348123	            0003	19.06.2024	       0
		4051476730		10330549	4536968555	00001	2261733	Core bit B 132/430+ P-U abras	8330	0001	             4	PC	PC	000010	680847168	58116836	HLI0550	8300	L05	9999	8330	04.09.2024	01.07.2024	0060	56294735	HLI0550	D348123006	0013348123	            0006	19.06.2024	       0
		4051476730		10330549	4536968557	00001	2261733	Core bit B 132/430+ P-U abras	8330	0001	             4	PC	PC	000010	680847169	58118187	HLI0550	8300	L05	9999	8330	04.09.2024	01.07.2024	0060	56294735	HLI0550	D348123006	0013348123	            0006	19.06.2024	       0
		4051476730		10330549	4536968558	00001	2261806	Change module 52 P-U abras	8330	0001	            24	PC	PC	000010	680847171	58116802	HLI0550	8300	L05	9999	8330	04.09.2024	01.07.2024	0070	56294735	HLI0550	D348123007	0013348123	            0007	19.06.2024	       0
		4051476730		10330549	4536968560	00001	2261820	Change module 172 P-U abras	8330	0001	             2	PC	PC	000010	680847172	58116822	HLI0550	8300	L05	9999	8330	04.09.2024	01.07.2024	0030	56295031	HLI0550	D348763014	0013348763	            0014	20.06.2024	       0
		4051476730		10330549	4536968562	00001	2261820	Change module 172 P-U abras	8330	0001	             3	PC	PC	000010	680847173	58116802	HLI0550	8300	L05	9999	8330	04.09.2024	01.07.2024	0030	56295031	HLI0550	D348763014	0013348763	            0014	20.06.2024	       0
		4051476730		10330549	4536968563	00001	2261726	Core bit B 72/430+ P-U abras	8330	0001	             3	PC	PC	000010	680847174	58116822	HLI0550	8300	L05	9999	8330	04.09.2024	01.07.2024	0040	56295031	HLI0550	D348763015	0013348763	            0015	20.06.2024	       0
		4051476730		10330549	4536968565	00001	2233868	Tile drill bit M14 25/40 SPX	8330	0001	             5	PC	PC	000010	680847175	58116822	HLI0550	8300	L05	9999	8330	04.09.2024	01.07.2024	0050	56295031	HLI0550	D348763018	0013348763	            0018	20.06.2024	       0
		4051476730		10330549	4536968567	00001	2302141	Dust removal system DSH-DRS	8330	0001	             2	PC	PC	000010	680847176	58116822	HLI0550	8300	L05	9999	8330	04.09.2024	01.07.2024	0060	56295031	HLI0550	D348763022	0013348763	            0022	20.06.2024	       0
		4051476730		10330549	4536968569	00001	2233870	Tile drill bit M14 35/40 SPX	8330	0001	             5	PC	PC	000010	680847177	58116822	HLI0550	8300	L05	9999	8330	04.09.2024	01.07.2024	0070	56295031	HLI0550	D348763023	0013348763	            0023	20.06.2024	       0
		4051476730		10330549	4536968571	00001	2261809	Change module 77 P-U abras	8330	0001	             2	PC	PC	000010	680847178	58116822	HLI0550	8300	L05	9999	8330	04.09.2024	01.07.2024	0080	56295031	HLI0550	D348763008	0013348763	            0008	20.06.2024	       0
		4051476730		10330549	4536968573	00001	2101258	Fastener guide X-FG B3-ME packed	8330	0001	             4	PC	PC	000010	680847179	58116822	HLI0550	8300	L04	9999	8330	04.09.2024	01.07.2024	0090	56295031	HLI0550	D348763004	0013348763	            0004	20.06.2024	       0
		4051476730		10330549	4536968575	00001	2197626	Fastener guide X-FG B3-BT M	8330	0001	             4	PC	PC	000010	680847180	58116802	HLI0550	8300	L04	9999	8330	04.09.2024	01.07.2024	0100	56295031	HLI0550	D348763016	0013348763	            0016	20.06.2024	       0
		4051476730		10330549	4536968578	00001	2346084	Stepped drill bit TS-BT 5.3-95 S	8330	0001	            10	PC	PC	000010	680847181	58116822	HLI0550	8300	L10	9999	8330	04.09.2024	01.07.2024	0110	56295031	HLI0550	D348763020	0013348763	            0020	20.06.2024	       0
		4051476730		10330549	4536968579	00001	2076989	Core bit C+ 1-1/4"/24" SPX-T	8330	0001	             2	PC	PC	000010	680847182	58116822	HLI0550	8300	L05	9999	8330	04.09.2024	01.07.2024	0120	56295031	HLI0550	D348763002	0013348763	            0002	20.06.2024	-28
		4051476730		10330549	4536968581	00001	2158237	Core bit B 102/450 SP-H abras	8330	0001	             5	PC	PC	000010	680847183	58116802	HLI0550	8300	L05	9999	8330	04.09.2024	01.07.2024	0130	56295031	HLI0550	D348763007	0013348763	            0007	20.06.2024	       0
		4051476730		10330549	4536968583	00001	2378318	Remote contr./laser rec. PRA 30	8330	0001	             1	PC	PC	000010	680847184	58116822	HLI0550	8300	L07	9999	8330	04.09.2024	01.07.2024	0160	56295031	HLI0550	D348763019	0013348763	            0019	20.06.2024	       0
		4051476730		10330549	4536968585	00001	2378318	Remote contr./laser rec. PRA 30	8330	0001	             4	PC	PC	000010	680847185	58116802	HLI0550	8300	L07	9999	8330	04.09.2024	01.07.2024	0160	56295031	HLI0550	D348763019	0013348763	            0019	20.06.2024	       0
		4051476730		10330549	4536968587	00001	2158333	Change module 72 SPX/SP-H abras	8330	0001	             5	PC	PC	000010	680847186	58116822	HLI0550	8300	L05	9999	8330	04.09.2024	01.07.2024	0170	56295031	HLI0550	D348763021	0013348763	            0021	20.06.2024	       0
		4051476730		10330549	4536968588	00001	2233867	Tile drill bit M14 20/40 SPX	8330	0001	             5	PC	PC	000010	680847187	58116822	HLI0550	8300	L05	9999	8330	04.09.2024	01.07.2024	0200	56295031	HLI0550	D348763017	0013348763	            0017	20.06.2024	       0
		4051476730		10330549	4536968590	00001	2346074	Elec. connector S-BT-ER M10/15 SN 6 HL	8330	0001	           700	PC	PC	000010	680847189	58116822	HLI0550	8300	L10	9999	8330	04.09.2024	01.07.2024	0230	56295031	HLI0550	D348763005	0013348763	            0005	20.06.2024	       0
		4051476730		10330549	4536968592	00001	2112751	Setting tool HKD-TE-CX M10 3/8"x30	8330	0001	             2	PC	PC	000010	680847190	58116822	HLI0550	8300	L09	9999	8330	04.09.2024	01.07.2024	0020	56295074	HLI0550	D348777004	0013348777	            0004	20.06.2024	       0
		4051476730		10330549	4536968593	00001	2165749	Hammer drill bit TE-YX 3/4"-13"	8330	0001	            14	PC	PC	000010	680847191	58116822	HLI0550	8300	L09	9999	8330	04.09.2024	01.07.2024	0030	56295074	HLI0550	D348777005	0013348777	            0005	20.06.2024	       0
		4051476730		10330549	4536968595	00001	2184685	Hammer drill bit TE-YX 5/8"-13"	8330	0001	            11	PC	PC	000010	680847193	58116822	HLI0550	8300	L09	9999	8330	04.09.2024	01.07.2024	0040	56295074	HLI0550	D348777006	0013348777	            0006	20.06.2024	       0
		4051476730		10330549	4536968597	00001	432947	Cable tie with holder X-ECT 40 MX	8330	0001	        12.800	PC	PC	000010	680847194	58115818	HLI0550	8300	L04	9999	8330	04.09.2024	01.07.2024	0010	56295123	HLI0550	D348922001	0013348922	            0001	20.06.2024	       0
		4051476730		10330549	4536968599	00001	432947	Cable tie with holder X-ECT 40 MX	8330	0001	        12.800	PC	PC	000010	680847196	58115816	HLI0550	8300	L04	9999	8330	04.09.2024	01.07.2024	0010	56295123	HLI0550	D348922001	0013348922	            0001	20.06.2024	       0
		4051476730		10330549	4536968601	00001	432947	Cable tie with holder X-ECT 40 MX	8330	0001	        12.800	PC	PC	000010	680847197	58115834	HLI0550	8300	L04	9999	8330	04.09.2024	01.07.2024	0010	56295123	HLI0550	D348922001	0013348922	            0001	20.06.2024	       0
		4051476730		10330549	4536968602	00001	432947	Cable tie with holder X-ECT 40 MX	8330	0001	        12.800	PC	PC	000010	680847200	58115817	HLI0550	8300	L04	9999	8330	04.09.2024	01.07.2024	0010	56295123	HLI0550	D348922001	0013348922	            0001	20.06.2024	       0
		4051476730		10330549	4536968604	00001	2121387	Filter VC 20/40/150 univ	8330	0001	             1	PC	PC	000010	680847201	58116822	HLI0550	8300	L05	9999	8330	04.09.2024	01.07.2024	0020	56295123	HLI0550	D348922005	0013348922	            0005	20.06.2024	       0
		4051476730		10330549	4536968606	00001	2156393	Steel nail X-S 14 B3 MX BULK	8330	0001	       108.000	PC	PC	000010	680847202	58115820	HLI0550	8300	L04	9999	8330	04.09.2024	01.07.2024	0040	56295123	HLI0550	D348922007	0013348922	            0007	20.06.2024	       0
		4051476730		10330549	4536968608	00001	2006089	Mains adapter PUA 81	8330	0001	             4	PC	PC	000010	680847204	58116802	HLI0550	8300	L07	9999	8330	04.09.2024	01.07.2024	0050	56295123	HLI0550	D348922008	0013348922	            0008	20.06.2024	       0
		4051476730		10330549	4536968609	00001	2278640	Filter VC 20/40/150-X dry	8330	0001	             1	PC	PC	000010	680847205	58116822	HLI0550	8300	L05	9999	8330	04.09.2024	01.07.2024	0060	56295123	HLI0550	D348922009	0013348922	            0009	20.06.2024	       0
		4051476730		10330549	4536968611	00001	2238581	Diamond cup DG-CW 180/7" P (2) univ	8330	0001	            24	PC	PC	000010	680847207	58116802	HLI0550	8300	L05	9999	8330	04.09.2024	01.07.2024	0070	56295123	HLI0550	D348922013	0013348922	            0013	20.06.2024	       0
		4051476730		10330549	4536968613	00001	2121386	Filter VC 20/40 dry	8330	0001	            20	PC	PC	000010	680847208	58116802	HLI0550	8300	L05	9999	8330	04.09.2024	01.07.2024	0080	56295123	HLI0550	D348922017	0013348922	            0017	20.06.2024	       0
		4051476730		10330549	4536968614	00001	2261725	Core bit B 62/430+ P-U abras	8330	0001	             6	PC	PC	000010	680847209	58116830	HLI0550	8300	L05	9999	8330	04.09.2024	01.07.2024	0100	56295123	HLI0550	D348922022	0013348922	            0022	20.06.2024	       0
		4051476730		10330549	4536968616	00001	2261725	Core bit B 62/430+ P-U abras	8330	0001	             6	PC	PC	000010	680847210	58118121	HLI0550	8300	L05	9999	8330	04.09.2024	01.07.2024	0100	56295123	HLI0550	D348922022	0013348922	            0022	20.06.2024	       0
		4051476730		10330549	4536968618	00001	2261725	Core bit B 62/430+ P-U abras	8330	0001	             6	PC	PC	000010	680847212	58118123	HLI0550	8300	L05	9999	8330	04.09.2024	01.07.2024	0100	56295123	HLI0550	D348922022	0013348922	            0022	20.06.2024	       0
		4051476730		10330549	4536968620	00001	2361442	Stud holder S-SH BT M10/W10	8330	0001	             5	PC	PC	000010	680847213	58116822	HLI0550	8300	L10	9999	8330	04.09.2024	01.07.2024	0110	56295123	HLI0550	D348922015	0013348922	            0015	20.06.2024	       0
		4051476730		10330549	4536968622	00001	2158233	Core bit B 77/450 SP-H abras	8330	0001	             2	PC	PC	000010	680847215	58116822	HLI0550	8300	L05	9999	8330	04.09.2024	01.07.2024	0120	56295123	HLI0550	D348922016	0013348922	            0016	20.06.2024	       0
		4051476730		10330549	4536968624	00001	2158233	Core bit B 77/450 SP-H abras	8330	0001	             8	PC	PC	000010	680847216	58116802	HLI0550	8300	L05	9999	8330	04.09.2024	01.07.2024	0120	56295123	HLI0550	D348922016	0013348922	            0016	20.06.2024	       0
		4051476730		10330549	4536968625	00001	2158342	Change module 132 SPX/SP-H abras	8330	0001	            12	PC	PC	000010	680847218	58116802	HLI0550	8300	L05	9999	8330	04.09.2024	01.07.2024	0130	56295123	HLI0550	D348922012	0013348922	            0012	20.06.2024	       0
		4051476730		10330549	4536968627	00001	2156391	High performance nail X-P 24 B3 MX BULK	8330	0001	       108.000	PC	PC	000010	680847219	58115885	HLI0550	8300	L04	9999	8330	04.09.2024	01.07.2024	0010	56296587	HLI0550	D352908001	0013352908	            0001	20.06.2024	       0
		4051476730		10330549	4536968629	00001	2151584	Hammer drill bit TE-CX 12/27 MP8	8330	0001	             8	PC	PC	000010	680847221	58116822	HLI0550	8300	L09	9999	8330	04.09.2024	01.07.2024	0010	56297482	HLI0550	D354163002	0013354163	            0002	21.06.2024	       0
		4051476730		10330549	4536968630	00001	2123166	Quick-release chuck packed	8330	0001	             2	PC	PC	000010	680847223	58116822	HLI0550	8300	L09	9999	8330	04.09.2024	01.07.2024	0020	56297482	HLI0550	D354163003	0013354163	            0003	21.06.2024	       0
		4051476730		10330549	4536968632	00001	2261838	Belt hook	8330	0001	             5	PC	PC	000010	680847224	58116822	HLI0550	8300	L15	9999	8330	04.09.2024	01.07.2024	0030	56297482	HLI0550	D354163005	0013354163	            0005	21.06.2024	       0
		4051476730		10330549	4536968634	00001	2267013	Recip. saw blade SP 30 1014 (5) univ	8330	0001	             5	PC	PC	000010	680847226	58116822	HLI0550	8300	L09	9999	8330	04.09.2024	01.07.2024	0040	56297482	HLI0550	D354163007	0013354163	            0007	21.06.2024	       0
		4051476730		10330549	4536968635	00001	2148677	Angle grinder AG 230-24D 230V box	8330	0001	            25	PC	PC	000010	680847227	58114451	HLI0550	8300	L08	9999	8330	04.09.2024	01.07.2024	0010	56297506	HLI0550	D354183001	0013354183	            0001	21.06.2024	       0
		4051476730		10330549	4536968637	00001	2052753	Chuck TE-C/TE 30 (02)	8330	0001	            24	PC	PC	000010	680847229	58116802	HLI0550	8300	L08	9999	8330	04.09.2024	01.07.2024	0020	56297627	HLI0550	D354482003	0013354482	            0003	22.06.2024	       0
		4051476730		10330549	4536968639	00001	285718	Cable trunking fastener X-ET MX	8330	0001	       160.000	PC	PC	000010	680847230	58115833	HLI0550	8300	L04	9999	8330	04.09.2024	01.07.2024	0030	56297627	HLI0550	D354482006	0013354482	            0006	22.06.2024	       0
		4051476730		10330549	4536968640	00001	2158331	Change module 62 SPX/SP-H abras	8330	0001	            12	PC	PC	000010	680847232	58116802	HLI0550	8300	L05	9999	8330	04.09.2024	01.07.2024	0040	56297627	HLI0550	D354482002	0013354482	            0002	22.06.2024	       0
		4051476730		10330549	4536968642	00001	2158335	Change module 82 SPX/SP-H abras	8330	0001	            24	PC	PC	000010	680847233	58116802	HLI0550	8300	L05	9999	8330	04.09.2024	01.07.2024	0050	56297627	HLI0550	D354482008	0013354482	            0008	22.06.2024	       0
		4051484909		10373381	4537081744	00001	2153650	ON!Track tag AI L2	8330	0001	           500	PC	PC	000010	680937906	58134214	HLI0550	8300	L13	9999	8330	25.09.2024	22.07.2024	0020	56319321	HLI0550	D399178006	0013399178	            0006	13.07.2024	       0
		4051484909		10373381	4537081747	00001	2153650	ON!Track tag AI L2	8330	0001	         1.800	PC	PC	000010	680937907	58134216	HLI0550	8300	L13	9999	8330	25.09.2024	22.07.2024	0020	56319321	HLI0550	D399178006	0013399178	            0006	13.07.2024	       0
		4051484909		10373381	4537081749	00001	2199637	Core bit BI 30/320 SP-L abras	8330	0001	             5	PC	PC	000010	680937908	58134206	HLI0550	8300	L05	9999	8330	25.09.2024	22.07.2024	0150	56295123	HLI0550	D348922003	0013348922	            0003	20.06.2024	       7
		4051484909		10373381	4537081752	00001	2261783	Core bit BI 20/320 SP-L abras	8330	0001	            16	PC	PC	000010	680937909	58134205	HLI0550	8300	L05	9999	8330	25.09.2024	22.07.2024	0070	56319321	HLI0550	D399178005	0013399178	            0005	13.07.2024	       0
		4051484909		10373381	4537081754	00001	2107220	Measuring rod PUA 53 CM	8330	0001	            40	PC	PC	000010	680937910	58133647	HLI0550	8300	L07	9999	8330	25.09.2024	22.07.2024	0010	56319321	HLI0550	D399178001	0013399178	            0001	13.07.2024	       0
		4051484909		10373381	4537081757	00001	2238266	Diamond cup DG-CW 125/5" P (2) univ	8330	0001	            60	PC	PC	000010	680937911	58134730	HLI0550	8300	L05	9999	8330	25.09.2024	22.07.2024	0010	56294735	HLI0550	D348123001	0013348123	            0001	19.06.2024	      14
		4051484909		10373381	4537081759	00001	2261459	Core bit B 37/430 P-U abras	8330	0001	            32	PC	PC	000010	680937912	58134729	HLI0550	8300	L05	9999	8330	25.09.2024	22.07.2024	0050	56294735	HLI0550	D348123005	0013348123	            0005	19.06.2024	      21
		4051484909		10373381	4537081764	00001	305541	Set of wheels DD-HD30-W	8330	0001	             7	PC	PC	000010	680937914	58134834	HLI0550	8300	L05	9999	8330	25.09.2024	22.07.2024	0080	56319321	HLI0550	D399178007	0013399178	            0007	13.07.2024	       0
		4051484909		10373381	4537081766	00001	286794	Connection end BS (M41)	8330	0001	             8	PC	PC	000010	680937915	58134833	HLI0550	8300	L05	9999	8330	25.09.2024	22.07.2024	0090	56319321	HLI0550	D399178003	0013399178	            0003	13.07.2024	       0
		4051484909		10373381	4537081772	00001	2123166	Quick-release chuck packed	8330	0001	             3	PC	PC	000010	680937917	58134833	HLI0550	8300	L09	9999	8330	25.09.2024	22.07.2024	0030	56320710	HLI0550	D403852003	0013403852	            0003	15.07.2024	       0
		4051484909		10373381	4537081779	00001	2074681	Hammer drill bit TE-YD 5/8"-24"	8330	0001	             1	PC	PC	000010	680937920	58134833	HLI0550	8300	L09	9999	8330	25.09.2024	22.07.2024	0070	56320710	HLI0550	D403852011	0013403852	            0011	15.07.2024	       0
		4051484909		10373381	4537081783	00001	409176	Hammer drill bit TE-CX 8/17	8330	0001	            10	PC	PC	000010	680937922	58134833	HLI0550	8300	L09	9999	8330	25.09.2024	22.07.2024	0090	56320710	HLI0550	D403852013	0013403852	            0013	15.07.2024	       0
		4051484909		10373381	4537081786	00001	2241985	Pointed chisel TE-YX SM 70	8330	0001	             1	PC	PC	000010	680937923	58134713	HLI0550	8300	L09	9999	8330	25.09.2024	22.07.2024	0100	56320710	HLI0550	D403852015	0013403852	            0015	15.07.2024	       0
		4051484909		10373381	4537081788	00001	2254750	Pointed chisel TE-HX SM 50 (4)	8330	0001	             4	PC	PC	000010	680937924	58134834	HLI0550	8300	L09	9999	8330	25.09.2024	22.07.2024	0110	56320710	HLI0550	D403852017	0013403852	            0017	15.07.2024	       0
		4051484909		10373381	4537081789	00001	2232606	Flat chisel TE-Y FM 40	8330	0001	             1	PC	PC	000010	680937925	58134833	HLI0550	8300	L09	9999	8330	25.09.2024	22.07.2024	0120	56320710	HLI0550	D403852018	0013403852	            0018	15.07.2024	       0
		4051484909		10373381	4537081791	00001	2184682	Hammer drill bit TE-YX 1/2"-21"	8330	0001	             7	PC	PC	000010	680937926	58134833	HLI0550	8300	L09	9999	8330	25.09.2024	22.07.2024	0130	56320710	HLI0550	D403852020	0013403852	            0020	15.07.2024	       0
		4051484909		10373381	4537081797	00001	2248345	Cordl. angle grinder AG 4S-22-4.5 box	8330	0001	             1	PC	PC	000010	680937928	58133646	HLI0550	8300	L15	9999	8330	25.09.2024	22.07.2024	0150	56320710	HLI0550	D403852026	0013403852	            0026	15.07.2024	       0
		4051484909		10373381	4537081806	00001	382278	Clay spade TE-YX SP 50	8330	0001	             1	PC	PC	000010	680937931	58134833	HLI0550	8300	L09	9999	8330	25.09.2024	22.07.2024	0180	56320710	HLI0550	D403852029	0013403852	            0029	15.07.2024	       0
		4051484909		10373381	4537081808	00001	2112751	Setting tool HKD-TE-CX M10 3/8"x30	8330	0001	             4	PC	PC	000010	680937932	58134833	HLI0550	8300	L09	9999	8330	25.09.2024	22.07.2024	0190	56320710	HLI0550	D403852030	0013403852	            0030	15.07.2024	       0
		4051484909		10373381	4537081810	00001	414472	Setting tool HKD-TE-CX M6 1/4"x25	8330	0001	             1	PC	PC	000010	680937933	58134833	HLI0550	8300	L09	9999	8330	25.09.2024	22.07.2024	0200	56320710	HLI0550	D403852031	0013403852	            0031	15.07.2024	       0
		4051484909		10373381	4537081812	00001	2140721	Recip. saw blade SPX 30 68 (10) univ	8330	0001	           130	PC	PC	000010	680937934	58134833	HLI0550	8300	L09	9999	8330	25.09.2024	22.07.2024	0040	56320750	HLI0550	D403620006	0013403620	            0006	15.07.2024	       0
		4051484909		10373381	4537081813	00001	2140721	Recip. saw blade SPX 30 68 (10) univ	8330	0001	           160	PC	PC	000010	680937935	58134834	HLI0550	8300	L09	9999	8330	25.09.2024	22.07.2024	0040	56320750	HLI0550	D403620006	0013403620	            0006	15.07.2024	       0
		4051484909		10373381	4537081816	00001	2254751	Pointed chisel TE-H SM 40	8330	0001	            56	PC	PC	000010	680937937	58134827	HLI0550	8300	L09	9999	8330	25.09.2024	22.07.2024	0170	56288770	HLI0550	D335878034	0013335878	            0034	13.06.2024	       0
		4051484909		10373381	4537081818	00001	2333179	Cordl. mixer NMX 6-22 box	8330	0001	             5	PC	PC	000010	680937939	58133655	HLI0550	8300	L15	9999	8330	25.09.2024	22.07.2024	0210	56293410	HLI0550	D345300024	0013345300	            0024	18.06.2024	       0
		4051484909		10373381	4537081819	00001	2242387	Diamond cup DG-CW 125/5" P (6) univ	8330	0001	            72	PC	PC	000010	680937940	58134723	HLI0550	8300	L05	9999	8330	25.09.2024	22.07.2024	0040	56294735	HLI0550	D348123004	0013348123	            0004	19.06.2024	       0
		4051484909		10373381	4537081824	00001	2261778	Core bit BI 12/320 SP-L abras	8330	0001	             1	PC	PC	000010	680937944	58134709	HLI0550	8300	L05	9999	8330	25.09.2024	22.07.2024	0140	56295123	HLI0550	D348922019	0013348922	            0019	20.06.2024	      21
		4051484909		10373381	4537081825	00001	2261778	Core bit BI 12/320 SP-L abras	8330	0001	            16	PC	PC	000010	680937945	58134723	HLI0550	8300	L05	9999	8330	25.09.2024	22.07.2024	0140	56295123	HLI0550	D348922019	0013348922	            0019	20.06.2024	      21
		4051484909		10373381	4537081827	00001	2022003	Hammer drill bit TE-CX 8/17 MP8	8330	0001	            96	PC	PC	000010	680937946	58134709	HLI0550	8300	L09	9999	8330	25.09.2024	22.07.2024	0050	56296328	HLI0550	D352701006	0013352701	            0006	20.06.2024	       0
		4051484909		10373381	4537081830	00001	2158348	Change module 202 SPX/SP-H abras	8330	0001	             3	PC	PC	000010	680937948	58134709	HLI0550	8300	L05	9999	8330	25.09.2024	22.07.2024	0020	56302163	HLI0550	D363924001	0013363924	            0001	26.06.2024	      21
		4051484909		10373381	4537081833	00001	2158348	Change module 202 SPX/SP-H abras	8330	0001	             8	PC	PC	000010	680937949	58134723	HLI0550	8300	L05	9999	8330	25.09.2024	22.07.2024	0020	56302163	HLI0550	D363924001	0013363924	            0001	26.06.2024	      21
		4051484909		10373381	4537081843	00001	2216317	Diamond coring tool DD 120 220V	8330	0001	             1	PC	PC	000010	680937953	58134464	HLI0550	8300	L05	9999	8330	25.09.2024	22.07.2024	0070	56302477	HLI0550	D364670033	0013364670	            0033	27.06.2024	       0
		4051484909		10373381	4537081846	00001	220929	Core bit extension DD-BI-ET300	8330	0001	             3	PC	PC	000010	680937954	58134723	HLI0550	8300	L05	9999	8330	25.09.2024	22.07.2024	0180	56302477	HLI0550	D364670035	0013364670	            0035	27.06.2024	      14
		4051484909		10373381	4537081855	00001	2323246	Threaded stud X-M6-8-62 DP7 SCT B3	8330	0001	         1.600	PC	PC	000010	680937958	58134709	HLI0550	8300	L04	9999	8330	25.09.2024	22.07.2024	0020	56306524	HLI0550	D364670027	0013364670	            0027	27.06.2024	       0
		4051484909		10373381	4537081856	00001	418080	Screw anchor KH-EZ 5/8"x5 1/2"	8330	0001	            60	PC	PC	000010	680937959	58134709	HLI0550	8300	L02	9999	8330	25.09.2024	22.07.2024	0010	56309863	HLI0550	D379434001	0013379434	            0001	03.07.2024	       0
		4051484909		10373381	4537081857	00001	418080	Screw anchor KH-EZ 5/8"x5 1/2"	8330	0001	            45	PC	PC	000010	680937960	58134709	HLI0550	8300	L02	9999	8330	25.09.2024	22.07.2024	0020	56309863	HLI0550	D379434005	0013379434	            0005	03.07.2024	-7
		4051484909		10373381	4537081858	00001	2254751	Pointed chisel TE-H SM 40	8330	0001	            56	PC	PC	000010	680937961	58134827	HLI0550	8300	L09	9999	8330	25.09.2024	22.07.2024	0010	56310749	HLI0550	D384121001	0013384121	            0001	04.07.2024	       7
		4051484909		10373381	4537081862	00001	432947	Cable tie with holder X-ECT 40 MX	8330	0001	        12.800	PC	PC	000010	680937964	58133583	HLI0550	8300	L04	9999	8330	25.09.2024	22.07.2024	0010	56312180	HLI0550	D386502005	0013386502	            0005	06.07.2024	       0
		4051484909		10373381	4537081863	00001	432947	Cable tie with holder X-ECT 40 MX	8330	0001	        12.800	PC	PC	000010	680937965	58133582	HLI0550	8300	L04	9999	8330	25.09.2024	22.07.2024	0010	56312180	HLI0550	D386502005	0013386502	            0005	06.07.2024	       0
		4051484909		10373381	4537081864	00001	432947	Cable tie with holder X-ECT 40 MX	8330	0001	        12.800	PC	PC	000010	680937966	58133584	HLI0550	8300	L04	9999	8330	25.09.2024	22.07.2024	0010	56312180	HLI0550	D386502005	0013386502	            0005	06.07.2024	       0
		4051484909		10373381	4537081866	00001	432947	Cable tie with holder X-ECT 40 MX	8330	0001	        12.800	PC	PC	000010	680937967	58133585	HLI0550	8300	L04	9999	8330	25.09.2024	22.07.2024	0010	56312180	HLI0550	D386502005	0013386502	            0005	06.07.2024	       0
		4051484909		10373381	4537081871	00001	2233572	Dia blade 125/22 (6) P univ	8330	0001	            90	PC	PC	000010	680937970	58134723	HLI0550	8300	L05	9999	8330	25.09.2024	22.07.2024	0060	56312180	HLI0550	D386502014	0013386502	            0014	06.07.2024	       0
		4051484909		10373381	4537081872	00001	2314529	Batt.-actuated tool BX 3-L-22 case	8330	0001	             9	PC	PC	000010	680937971	58133712	HLI0550	8300	L04	9999	8330	25.09.2024	22.07.2024	0070	56312180	HLI0550	D386502007	0013386502	            0007	06.07.2024	       0
		4051484909		10373381	4537081874	00001	373419	Adapter BI/BR/BS	8330	0001	             7	PC	PC	000010	680937972	58134709	HLI0550	8300	L05	9999	8330	25.09.2024	22.07.2024	0090	56312180	HLI0550	D386502001	0013386502	            0001	06.07.2024	-7
		4051484909		10373381	4537081877	00001	2217525	Threaded stud X-BT-MR0 M10/15 SN 8	8330	0001	           600	PC	PC	000010	680937973	58134709	HLI0550	8300	L04	9999	8330	25.09.2024	22.07.2024	0110	56312180	HLI0550	D386502008	0013386502	            0008	06.07.2024	       7
		4051484909		10373381	4537081879	00001	2217525	Threaded stud X-BT-MR0 M10/15 SN 8	8330	0001	        24.000	PC	PC	000010	680937974	58133692	HLI0550	8300	L04	9999	8330	25.09.2024	22.07.2024	0110	56312180	HLI0550	D386502008	0013386502	            0008	06.07.2024	       7
		4051484909		10373381	4537081887	00001	2206745	Hammer drill bit TE-CX 18/22	8330	0001	             1	PC	PC	000010	680937977	58134709	HLI0550	8300	L09	9999	8330	25.09.2024	22.07.2024	0020	56313519	HLI0550	D390665002	0013390665	            0002	08.07.2024	       0
		4051484909		10373381	4537081891	00001	2022002	Hammer drill bit TE-CX 8/12 MP8	8330	0001	            64	PC	PC	000010	680937978	58134709	HLI0550	8300	L09	9999	8330	25.09.2024	22.07.2024	0020	56313544	HLI0550	D389190002	0013389190	            0002	08.07.2024	       0
		4051484909		10373381	4537081893	00001	435007	Hammer drill bit TE-CX 3/8"-12"	8330	0001	            40	PC	PC	000010	680937979	58134709	HLI0550	8300	L09	9999	8330	25.09.2024	22.07.2024	0070	56313544	HLI0550	D389190007	0013389190	            0007	08.07.2024	       0
		4051484909		10373381	4537081896	00001	2207028	Bushing tool TE-YX BT 4x4	8330	0001	             2	PC	PC	000010	680937980	58134709	HLI0550	8300	L09	9999	8330	25.09.2024	22.07.2024	0100	56313544	HLI0550	D389190010	0013389190	            0010	08.07.2024	       0
		4051484909		10373381	4537081899	00001	282301	Flat chisel TE-CX FM 25	8330	0001	             5	PC	PC	000010	680937981	58134709	HLI0550	8300	L09	9999	8330	25.09.2024	22.07.2024	0110	56313544	HLI0550	D389190011	0013389190	            0011	08.07.2024	       0
		4051484909		10373381	4537081903	00001	2254752	Pointed chisel TE-H SM 50	8330	0001	            16	PC	PC	000010	680937983	58134723	HLI0550	8300	L09	9999	8330	25.09.2024	22.07.2024	0180	56313544	HLI0550	D389190018	0013389190	            0018	08.07.2024	       0
		4051484909		10373381	4537081906	00001	2341239	Pointed chisel TE-SX SM 50	8330	0001	            35	PC	PC	000010	680937985	58134723	HLI0550	8300	L09	9999	8330	25.09.2024	22.07.2024	0200	56313544	HLI0550	D389190020	0013389190	            0020	08.07.2024	       0
		4051484909		10373381	4537081908	00001	2151626	Hammer drill bit TE-CX 12/17	8330	0001	             5	PC	PC	000010	680937986	58134709	HLI0550	8300	L09	9999	8330	25.09.2024	22.07.2024	0020	56315172	HLI0550	D393925002	0013393925	            0002	09.07.2024	       0
		4051484909		10373381	4537081911	00001	2370436	Cordless rotary hammer TE 50-22 case	8330	0001	             2	PC	PC	000010	680937987	58133742	HLI0550	8300	L15	9999	8330	25.09.2024	22.07.2024	0010	56318287	HLI0550	D397419001	0013397419	            0001	11.07.2024	       0
		4051484909		10373381	4537081914	00001	2370436	Cordless rotary hammer TE 50-22 case	8330	0001	             2	PC	PC	000010	680937988	58134459	HLI0550	8300	L15	9999	8330	25.09.2024	22.07.2024	0010	56318287	HLI0550	D397419001	0013397419	            0001	11.07.2024	       0
		4051484909		10373381	4537081916	00001	2370436	Cordless rotary hammer TE 50-22 case	8330	0001	             1	PC	PC	000010	680937989	58134463	HLI0550	8300	L15	9999	8330	25.09.2024	22.07.2024	0010	56318287	HLI0550	D397419001	0013397419	            0001	11.07.2024	       0
		4051484909		10373381	4537081918	00001	2370436	Cordless rotary hammer TE 50-22 case	8330	0001	             2	PC	PC	000010	680937990	58134471	HLI0550	8300	L15	9999	8330	25.09.2024	22.07.2024	0010	56318287	HLI0550	D397419001	0013397419	            0001	11.07.2024	       0
		4051484909		10373381	4537081920	00001	2370436	Cordless rotary hammer TE 50-22 case	8330	0001	             1	PC	PC	000010	680937991	58134486	HLI0550	8300	L15	9999	8330	25.09.2024	22.07.2024	0010	56318287	HLI0550	D397419001	0013397419	            0001	11.07.2024	       0
		4051484909		10373381	4537081924	00001	2158345	Change module 162 SPX/SP-H abras	8330	0001	            12	PC	PC	000010	680937993	58134723	HLI0550	8300	L05	9999	8330	25.09.2024	22.07.2024	0040	56319321	HLI0550	D399178002	0013399178	            0002	13.07.2024	       0
		4051484909		10373381	4537081926	00001	2199635	Core bit BI 28/320 SP-L abras	8330	0001	             7	PC	PC	000010	680937994	58134709	HLI0550	8300	L05	9999	8330	25.09.2024	22.07.2024	0050	56319321	HLI0550	D399178009	0013399178	            0009	13.07.2024	       0
		4051484909		10373381	4537081929	00001	2158331	Change module 62 SPX/SP-H abras	8330	0001	            18	PC	PC	000010	680937995	58134723	HLI0550	8300	L05	9999	8330	25.09.2024	22.07.2024	0060	56319321	HLI0550	D399178004	0013399178	            0004	13.07.2024	       0
		4051479378		10345488	4537020773	00001	2203668	Diamond coring tool DD 150-U 220V	8330	0001	             2	PC	PC	000010	680889354	58122777	HLI0550	8300	L05	9999	8330	16.09.2024	10.07.2024	0010	56288923	HLI0550	D335932001	0013335932	            0001	14.06.2024	       0
		4051479378		10345488	4537020775	00001	2158345	Change module 162 SPX/SP-H abras	8330	0001	             2	PC	PC	000010	680889355	58123472	HLI0550	8300	L05	9999	8330	16.09.2024	10.07.2024	0060	56297627	HLI0550	D354482005	0013354482	            0005	22.06.2024	       7
		4051479378		10345488	4537020776	00001	2278640	Filter VC 20/40/150-X dry	8330	0001	             2	PC	PC	000010	680889356	58123472	HLI0550	8300	L05	9999	8330	16.09.2024	10.07.2024	0070	56302456	HLI0550	D364782019	0013364782	            0019	27.06.2024	       0
		4051479378		10345488	4537020777	00001	305940	Jack screw DD-HD30-SL	8330	0001	             2	PC	PC	000010	680889357	58123473	HLI0550	8300	L05	9999	8330	16.09.2024	10.07.2024	0130	56302477	HLI0550	D364670005	0013364670	            0005	27.06.2024	       0
		4051479378		10345488	4537020778	00001	2158338	Change module 102 SPX/SP-H abras	8330	0001	             2	PC	PC	000010	680889358	58123472	HLI0550	8300	L05	9999	8330	16.09.2024	10.07.2024	0210	56302477	HLI0550	D364670016	0013364670	            0016	27.06.2024	-35
		4051479378		10345488	4537020779	00001	2158338	Change module 102 SPX/SP-H abras	8330	0001	             2	PC	PC	000010	680889359	58123472	HLI0550	8300	L05	9999	8330	16.09.2024	10.07.2024	0220	56302477	HLI0550	D364670017	0013364670	            0017	27.06.2024	-42
		4051479378		10345488	4537020780	00001	2238558	Diamond cup DG-CW 125/5" SPX abras	8330	0001	             2	PC	PC	000010	680889360	58123472	HLI0550	8300	L05	9999	8330	16.09.2024	10.07.2024	0090	56305166	HLI0550	D368562012	0013368562	            0012	29.06.2024	       0
		4051479378		10345488	4537020782	00001	2158347	Change module 182 SPX/SP-H abras	8330	0001	             2	PC	PC	000010	680889361	58123472	HLI0550	8300	L05	9999	8330	16.09.2024	10.07.2024	0130	56305166	HLI0550	D368562008	0013368562	            0008	29.06.2024	       0
		4051479378		10345488	4537020783	00001	2102194	Gas-actuated tool GX 3 case	8330	0001	             8	PC	PC	000010	680889362	58121640	HLI0550	8300	L04	9999	8330	16.09.2024	10.07.2024	0060	56302456	HLI0550	D364782018	0013364782	            0018	27.06.2024	       0
		4051479378		10345488	4537020784	00001	360055	Battery pack PRA 84	8330	0001	             5	PC	PC	000010	680889363	58122739	HLI0550	8300	L07	9999	8330	16.09.2024	10.07.2024	0050	56302477	HLI0550	D364670013	0013364670	            0013	27.06.2024	       0
		4051479378		10345488	4537020785	00001	360055	Battery pack PRA 84	8330	0001	             1	PC	PC	000010	680889364	58122739	HLI0550	8300	L07	9999	8330	16.09.2024	10.07.2024	0050	56305166	HLI0550	D368562007	0013368562	            0007	29.06.2024	       0
		4051479378		10345488	4537020786	00001	2153651	ON!Track tag AI L5	8330	0001	           100	PC	PC	000010	680889365	58123168	HLI0550	8300	L13	9999	8330	16.09.2024	10.07.2024	0010	56305126	HLI0550	D368371001	0013368371	            0001	29.06.2024	       0
		4051479378		10345488	4537020787	00001	2242387	Diamond cup DG-CW 125/5" P (6) univ	8330	0001	            72	PC	PC	000010	680889366	58123205	HLI0550	8300	L05	9999	8330	16.09.2024	10.07.2024	0050	56290280	HLI0550	D337829007	0013337829	            0007	15.06.2024	      14
		4051479378		10345488	4537020788	00001	2323246	Threaded stud X-M6-8-62 DP7 SCT B3	8330	0001	         6.000	PC	PC	000010	680889367	58123472	HLI0550	8300	L04	9999	8330	16.09.2024	10.07.2024	0350	56223179	HLI0550	D209186	0013209186	            0000	11.04.2024	       0
		4051479378		10345488	4537020790	00001	2203668	Diamond coring tool DD 150-U 220V	8330	0001	             1	PC	PC	000010	680889368	58122198	HLI0550	8300	L05	9999	8330	16.09.2024	10.07.2024	0010	56288923	HLI0550	D335932001	0013335932	            0001	14.06.2024	       0
		4051479378		10345488	4537020791	00001	2158339	Change module 107 SPX/SP-H abras	8330	0001	            12	PC	PC	000010	680889369	58123725	HLI0550	8300	L05	9999	8330	16.09.2024	10.07.2024	0050	56289016	HLI0550	D335928003	0013335928	            0003	14.06.2024	-14
		4051479378		10345488	4537020792	00001	2334179	Hand-held battery cut-off saw DSH 700-22	8330	0001	             1	PC	PC	000010	680889370	58122780	HLI0550	8300	L05	9999	8330	16.09.2024	10.07.2024	0050	56290257	HLI0550	D337863016	0013337863	            0016	14.06.2024	       0
		4051479378		10345488	4537020793	00001	2261727	Core bit B 77/430+ P-U abras	8330	0001	             6	PC	PC	000010	680889371	58123473	HLI0550	8300	L05	9999	8330	16.09.2024	10.07.2024	0020	56290280	HLI0550	D337829003	0013337829	            0003	15.06.2024	      14
		4051479378		10345488	4537020794	00001	2284390	Gasket set TE 500 STD	8330	0001	             1	PC	PC	000010	680889372	58123472	HLI0550	8300	L08	9999	8330	16.09.2024	10.07.2024	0060	56291743	HLI0550	D342570004	0013342570	            0004	17.06.2024	      14
		4051479378		10345488	4537020795	00001	2253099	Cordl. combihammer TE 60-22 case	8330	0001	             1	PC	PC	000010	680889373	58123096	HLI0550	8300	L15	9999	8330	16.09.2024	10.07.2024	0230	56293410	HLI0550	D345300026	0013345300	            0026	18.06.2024	       0
		4051479378		10345488	4537020796	00001	2079849	Comfort side handle XSAG	8330	0001	             4	PC	PC	000010	680889374	58123472	HLI0550	8300	L09	9999	8330	16.09.2024	10.07.2024	0270	56293410	HLI0550	D345300018	0013345300	            0018	18.06.2024	       7
		4051479378		10345488	4537020797	00001	2076989	Core bit C+ 1-1/4"/24" SPX-T	8330	0001	             1	PC	PC	000010	680889375	58123472	HLI0550	8300	L05	9999	8330	16.09.2024	10.07.2024	0120	56295031	HLI0550	D348763002	0013348763	            0002	20.06.2024	-28
		4051479378		10345488	4537020798	00001	2151677	Hammer drill bit TE-CX 12/17 MP50	8330	0001	           100	PC	PC	000010	680889376	58123472	HLI0550	8300	L09	9999	8330	16.09.2024	10.07.2024	0010	56295074	HLI0550	D348777003	0013348777	            0003	20.06.2024	       7
		4051479378		10345488	4537020799	00001	315828	Extraction head DD-BI-DRSA-SC assy	8330	0001	             7	PC	PC	000010	680889377	58123472	HLI0550	8300	L05	9999	8330	16.09.2024	10.07.2024	0030	56295123	HLI0550	D348922006	0013348922	            0006	20.06.2024	       7
		4051479378		10345488	4537020800	00001	2261783	Core bit BI 20/320 SP-L abras	8330	0001	            16	PC	PC	000010	680889378	58123473	HLI0550	8300	L05	9999	8330	16.09.2024	10.07.2024	0160	56295123	HLI0550	D348922014	0013348922	            0014	20.06.2024	       7
		4051479378		10345488	4537020801	00001	2101048	Gas nail X-P 24 G3 MX	8330	0001	        12.000	PC	PC	000010	680889379	58123473	HLI0550	8300	L04	9999	8330	16.09.2024	10.07.2024	0170	56295123	HLI0550	D348922011	0013348922	            0011	20.06.2024	       7
		4051479378		10345488	4537020802	00001	2158345	Change module 162 SPX/SP-H abras	8330	0001	             6	PC	PC	000010	680889380	58123725	HLI0550	8300	L05	9999	8330	16.09.2024	10.07.2024	0060	56297627	HLI0550	D354482005	0013354482	            0005	22.06.2024	       7
		4051479378		10345488	4537020803	00001	2261783	Core bit BI 20/320 SP-L abras	8330	0001	            24	PC	PC	000010	680889381	58123725	HLI0550	8300	L05	9999	8330	16.09.2024	10.07.2024	0080	56297627	HLI0550	D354482007	0013354482	            0007	22.06.2024	       7
		4051479378		10345488	4537020804	00001	2158345	Change module 162 SPX/SP-H abras	8330	0001	             4	PC	PC	000010	680889382	58123472	HLI0550	8300	L05	9999	8330	16.09.2024	10.07.2024	0090	56297627	HLI0550	D354482005	0013354482	            0005	22.06.2024	       7
		4051479378		10345488	4537020805	00001	2158345	Change module 162 SPX/SP-H abras	8330	0001	            12	PC	PC	000010	680889383	58123473	HLI0550	8300	L05	9999	8330	16.09.2024	10.07.2024	0090	56297627	HLI0550	D354482005	0013354482	            0005	22.06.2024	       7
		4051479378		10345488	4537020807	00001	2261728	Core bit B 102/430+ P-U abras	8330	0001	            16	PC	PC	000010	680889384	58123254	HLI0550	8300	L05	9999	8330	16.09.2024	10.07.2024	0010	56300551	HLI0550	D360372001	0013360372	            0001	25.06.2024	       0
		4051479378		10345488	4537020808	00001	2197930	Stepped drill bit TX-BT 4.7/7-80	8330	0001	            70	PC	PC	000010	680889385	58123472	HLI0550	8300	L04	9999	8330	16.09.2024	10.07.2024	0010	56300762	HLI0550	D361990001	0013361990	            0001	25.06.2024	       0
		4051479378		10345488	4537020809	00001	2217525	Threaded stud X-BT-MR0 M10/15 SN 8	8330	0001	           900	PC	PC	000010	680889386	58123472	HLI0550	8300	L04	9999	8330	16.09.2024	10.07.2024	0030	56300762	HLI0550	D361990002	0013361990	            0002	25.06.2024	       0
		4051479378		10345488	4537020810	00001	2217525	Threaded stud X-BT-MR0 M10/15 SN 8	8330	0001	           900	PC	PC	000010	680889387	58123472	HLI0550	8300	L04	9999	8330	16.09.2024	10.07.2024	0040	56300762	HLI0550	D361990005	0013361990	            0005	25.06.2024	       0
		4051479378		10345488	4537020811	00001	2346064	Threaded stud S-BT-MR M10/15 SN 6 HL	8330	0001	           400	PC	PC	000010	680889388	58123472	HLI0550	8300	L10	9999	8330	16.09.2024	10.07.2024	0050	56300762	HLI0550	D361990003	0013361990	            0003	25.06.2024	       0
		4051479378		10345488	4537020812	00001	2273698	Girder end cap MT-EC-80	8330	0001	           250	PC	PC	000010	680889389	58123472	HLI0550	8300	L14	9999	8330	16.09.2024	10.07.2024	0010	56300893	HLI0550	D361680001	0013361680	            0001	25.06.2024	       0
		4051479378		10345488	4537020813	00001	2163831	Cordl. lamp SL 2-A12 box	8330	0001	             5	PC	PC	000010	680889390	58123472	HLI0550	8300	L09	9999	8330	16.09.2024	10.07.2024	0010	56302123	HLI0550	D363982001	0013363982	            0001	26.06.2024	       0
		4051479378		10345488	4537020814	00001	2052753	Chuck TE-C/TE 30 (02)	8330	0001	            16	PC	PC	000010	680889391	58123473	HLI0550	8300	L08	9999	8330	16.09.2024	10.07.2024	0010	56302137	HLI0550	D363986001	0013363986	            0001	26.06.2024	       0
		4051479378		10345488	4537020815	00001	409190	Hammer drill bit TE-CX 10/27	8330	0001	            15	PC	PC	000010	680889392	58123472	HLI0550	8300	L09	9999	8330	16.09.2024	10.07.2024	0020	56302137	HLI0550	D363986003	0013363986	            0003	26.06.2024	       0
		4051479378		10345488	4537020816	00001	2162023	Carbon brush TE 70-ATC/500-X 220-240V	8330	0001	             6	PC	PC	000010	680889393	58123472	HLI0550	8300	L08	9999	8330	16.09.2024	10.07.2024	0030	56302137	HLI0550	D363986004	0013363986	            0004	26.06.2024	       0
		4051479378		10345488	4537020817	00001	2123166	Quick-release chuck packed	8330	0001	             3	PC	PC	000010	680889394	58123472	HLI0550	8300	L09	9999	8330	16.09.2024	10.07.2024	0040	56302137	HLI0550	D363986005	0013363986	            0005	26.06.2024	       0
		4051479378		10345488	4537020818	00001	409178	Hammer drill bit TE-CX 8/27	8330	0001	            30	PC	PC	000010	680889395	58123472	HLI0550	8300	L09	9999	8330	16.09.2024	10.07.2024	0050	56302137	HLI0550	D363986007	0013363986	            0007	26.06.2024	       0
		4051479378		10345488	4537020819	00001	2168890	Flat chisel TE-SX FM 36 (4)	8330	0001	             8	PC	PC	000010	680889396	58123473	HLI0550	8300	L09	9999	8330	16.09.2024	10.07.2024	0060	56302137	HLI0550	D363986008	0013363986	            0008	26.06.2024	       0
		4051479378		10345488	4537020820	00001	2232598	Flat chisel TE-Y FM 40 (5)	8330	0001	             5	PC	PC	000010	680889397	58123473	HLI0550	8300	L09	9999	8330	16.09.2024	10.07.2024	0070	56302137	HLI0550	D363986012	0013363986	            0012	26.06.2024	       0
		4051479378		10345488	4537020821	00001	2248345	Cordl. angle grinder AG 4S-22-4.5 box	8330	0001	             1	PC	PC	000010	680889398	58122772	HLI0550	8300	L15	9999	8330	16.09.2024	10.07.2024	0080	56302137	HLI0550	D363986013	0013363986	            0013	26.06.2024	       0
		4051479378		10345488	4537020822	00001	2107708	Circ. saw blade SCB WU 190x30 z18 (5)	8330	0001	            10	PC	PC	000010	680889399	58123472	HLI0550	8300	L09	9999	8330	16.09.2024	10.07.2024	0010	56302175	HLI0550	D363993001	0013363993	            0001	26.06.2024	       0
		4051479378		10345488	4537020823	00001	2107708	Circ. saw blade SCB WU 190x30 z18 (5)	8330	0001	            15	PC	PC	000010	680889400	58123725	HLI0550	8300	L09	9999	8330	16.09.2024	10.07.2024	0010	56302175	HLI0550	D363993001	0013363993	            0001	26.06.2024	       0
		4051479378		10345488	4537020824	00001	243752	Setting tool HSD-M M12 1/2"X50	8330	0001	             1	PC	PC	000010	680889401	58123472	HLI0550	8300	L02	9999	8330	16.09.2024	10.07.2024	0050	56302225	HLI0550	D363795006	0013363795	            0006	26.06.2024	       0
		4051479378		10345488	4537020825	00001	273203	Round steel brush HIT-RB 7/16"	8330	0001	             1	PC	PC	000010	680889402	58123472	HLI0550	8300	L01	9999	8330	16.09.2024	10.07.2024	0010	56302236	HLI0550	D364283001	0013364283	            0001	26.06.2024	       0
		4051479378		10345488	4537020826	00001	2278640	Filter VC 20/40/150-X dry	8330	0001	             1	PC	PC	000010	680889403	58123472	HLI0550	8300	L05	9999	8330	16.09.2024	10.07.2024	0020	56302456	HLI0550	D364782009	0013364782	            0009	27.06.2024	-7
		4051479378		10345488	4537020827	00001	2121387	Filter VC 20/40/150 univ	8330	0001	             1	PC	PC	000010	680889404	58123472	HLI0550	8300	L05	9999	8330	16.09.2024	10.07.2024	0040	56302456	HLI0550	D364782013	0013364782	            0013	27.06.2024	       0
		4051479378		10345488	4537020828	00001	215196	Starting aid DD 110-D DD-SA-RK M27	8330	0001	            10	PC	PC	000010	680889405	58123472	HLI0550	8300	L05	9999	8330	16.09.2024	10.07.2024	0090	56302456	HLI0550	D364782002	0013364782	            0002	27.06.2024	       0
		4051479378		10345488	4537020829	00001	286794	Connection end BS (M41)	8330	0001	             9	PC	PC	000010	680889406	58123472	HLI0550	8300	L05	9999	8330	16.09.2024	10.07.2024	0110	56302456	HLI0550	D364782011	0013364782	            0011	27.06.2024	       0
		4051479378		10345488	4537020830	00001	203852	Dust bag VC 40/150-10 (10) plastic	8330	0001	            10	PC	PC	000010	680889407	58123472	HLI0550	8300	L05	9999	8330	16.09.2024	10.07.2024	0020	56302477	HLI0550	D364670006	0013364670	            0006	27.06.2024	       0
		4051479378		10345488	4537020831	00001	2262130	Dust bag VC 40-X/150-10 X (10) fleece	8330	0001	            10	PC	PC	000010	680889408	58123096	HLI0550	8300	L05	9999	8330	16.09.2024	10.07.2024	0040	56302477	HLI0550	D364670011	0013364670	            0011	27.06.2024	       0
		4051479378		10345488	4537020832	00001	2065448	Laser visibility glasses PP EY-GU R red	8330	0001	             2	PC	PC	000010	680889409	58123472	HLI0550	8300	L04	9999	8330	16.09.2024	10.07.2024	0060	56302477	HLI0550	D364670014	0013364670	            0014	27.06.2024	       0
		4051479378		10345488	4537020833	00001	373422	Adapter BS/BI	8330	0001	             5	PC	PC	000010	680889410	58123473	HLI0550	8300	L05	9999	8330	16.09.2024	10.07.2024	0080	56302477	HLI0550	D364670036	0013364670	            0036	27.06.2024	       0
		4051479378		10345488	4537020834	00001	2229811	Fastener guide X-6-FGR	8330	0001	             3	PC	PC	000010	680889411	58123472	HLI0550	8300	L04	9999	8330	16.09.2024	10.07.2024	0100	56302477	HLI0550	D364670028	0013364670	            0028	27.06.2024	       0
		4051479378		10345488	4537020835	00001	284891	Adapter BS/BL	8330	0001	             1	PC	PC	000010	680889412	58123472	HLI0550	8300	L05	9999	8330	16.09.2024	10.07.2024	0110	56302477	HLI0550	D364670012	0013364670	            0012	27.06.2024	       0
		4051479378		10345488	4537020836	00001	2157749	Change module 52 SPX/SP-H abras	8330	0001	             6	PC	PC	000010	680889413	58123725	HLI0550	8300	L05	9999	8330	16.09.2024	10.07.2024	0120	56302477	HLI0550	D364670002	0013364670	            0002	27.06.2024	       0
		4051479378		10345488	4537020837	00001	2069903	Starting aid DD-SA 102 (4")	8330	0001	             3	PC	PC	000010	680889414	58123472	HLI0550	8300	L05	9999	8330	16.09.2024	10.07.2024	0140	56302477	HLI0550	D364670008	0013364670	            0008	27.06.2024	       0
		4051479378		10345488	4537020838	00001	2069906	Starting aid DD-SA 132	8330	0001	             3	PC	PC	000010	680889415	58123472	HLI0550	8300	L05	9999	8330	16.09.2024	10.07.2024	0150	56302477	HLI0550	D364670021	0013364670	            0021	27.06.2024	       0
		4051479378		10345488	4537020840	00001	2378318	Remote contr./laser rec. PRA 30	8330	0001	             1	PC	PC	000010	680889416	58123472	HLI0550	8300	L07	9999	8330	16.09.2024	10.07.2024	0160	56302477	HLI0550	D364670034	0013364670	            0034	27.06.2024	       0
		4051479378		10345488	4537020841	00001	2158230	Core bit B 62/450 SP-H abras	8330	0001	             1	PC	PC	000010	680889417	58123472	HLI0550	8300	L05	9999	8330	16.09.2024	10.07.2024	0200	56302477	HLI0550	D364670015	0013364670	            0015	27.06.2024	       0
		4051479378		10345488	4537020842	00001	2158228	Core bit B 52/450 SP-H abras	8330	0001	             5	PC	PC	000010	680889418	58123473	HLI0550	8300	L05	9999	8330	16.09.2024	10.07.2024	0240	56302477	HLI0550	D364670022	0013364670	            0022	27.06.2024	       0
		4051479378		10345488	4537020843	00001	2042729	Plug seal CFS-T RRS-43/0+5-23 GS	8330	0001	            48	PC	PC	000010	680889419	58123472	HLI0550	8300	L03	9999	8330	16.09.2024	10.07.2024	0010	56302876	HLI0550	D364286001	0013364286	            0001	26.06.2024	       0
		4051479378		10345488	4537020844	00001	2316592	Lubricant CFS-T LUB 500g	8330	0001	             3	PC	PC	000010	680889420	58123472	HLI0550	8300	L03	9999	8330	16.09.2024	10.07.2024	0010	56302887	HLI0550	D364288001	0013364288	            0001	26.06.2024	       0
		4051479378		10345488	4537020845	00001	243748	Setting tool HSD-M M8 5/16"X30	8330	0001	             1	PC	PC	000010	680889421	58123472	HLI0550	8300	L02	9999	8330	16.09.2024	10.07.2024	0010	56303831	HLI0550	D366705001	0013366705	            0001	28.06.2024	       0
		4051479378		10345488	4537020846	00001	273205	Round steel brush HIT-RB 9/16"	8330	0001	             1	PC	PC	000010	680889422	58123472	HLI0550	8300	L01	9999	8330	16.09.2024	10.07.2024	0020	56303831	HLI0550	D366705002	0013366705	            0002	28.06.2024	       0
		4051479378		10345488	4537020847	00001	273209	Round steel brush HIT-RB 11/16"	8330	0001	             1	PC	PC	000010	680889423	58123472	HLI0550	8300	L01	9999	8330	16.09.2024	10.07.2024	0030	56303831	HLI0550	D366705003	0013366705	            0003	28.06.2024	       0
		4051479378		10345488	4537020848	00001	432947	Cable tie with holder X-ECT 40 MX	8330	0001	        12.800	PC	PC	000010	680889424	58122128	HLI0550	8300	L04	9999	8330	16.09.2024	10.07.2024	0020	56305126	HLI0550	D368371002	0013368371	            0002	29.06.2024	       0
		4051479378		10345488	4537020849	00001	2052753	Chuck TE-C/TE 30 (02)	8330	0001	            16	PC	PC	000010	680889425	58123473	HLI0550	8300	L08	9999	8330	16.09.2024	10.07.2024	0040	56305126	HLI0550	D368371005	0013368371	            0005	29.06.2024	       0
		4051479378		10345488	4537020850	00001	305541	Set of wheels DD-HD30-W	8330	0001	             7	PC	PC	000010	680889426	58123473	HLI0550	8300	L05	9999	8330	16.09.2024	10.07.2024	0050	56305126	HLI0550	D368371007	0013368371	            0007	29.06.2024	       0
		4051479378		10345488	4537020851	00001	2158345	Change module 162 SPX/SP-H abras	8330	0001	            12	PC	PC	000010	680889427	58123473	HLI0550	8300	L05	9999	8330	16.09.2024	10.07.2024	0060	56305126	HLI0550	D368371003	0013368371	            0003	29.06.2024	       0
		4051479378		10345488	4537020852	00001	2121560	Dust bag VC 20/150-6 (5) fleece	8330	0001	             5	PC	PC	000010	680889428	58123472	HLI0550	8300	L05	9999	8330	16.09.2024	10.07.2024	0010	56305166	HLI0550	D368562002	0013368562	            0002	29.06.2024	       0
		4051479378		10345488	4537020853	00001	2105778	Accessory kit DD 5/8"	8330	0001	             1	PC	PC	000010	680889429	58122792	HLI0550	8300	L05	9999	8330	16.09.2024	10.07.2024	0020	56305166	HLI0550	D368562003	0013368562	            0003	29.06.2024	       0
		4051479378		10345488	4537020855	00001	2145833	Filtration bag DD-WMS 100 MP5 large	8330	0001	             5	PC	PC	000010	680889430	58123472	HLI0550	8300	L05	9999	8330	16.09.2024	10.07.2024	0030	56305166	HLI0550	D368562004	0013368562	            0004	29.06.2024	       0
		4051479378		10345488	4537020856	00001	2071083	Slope adapter PRA 79	8330	0001	             1	PC	PC	000010	680889431	58123472	HLI0550	8300	L07	9999	8330	16.09.2024	10.07.2024	0040	56305166	HLI0550	D368562006	0013368562	            0006	29.06.2024	       0
		4051479378		10345488	4537020857	00001	2227009	Wall mount with magnetic bracket PMA 90	8330	0001	             1	PC	PC	000010	680889432	58123472	HLI0550	8300	L07	9999	8330	16.09.2024	10.07.2024	0070	56305166	HLI0550	D368562013	0013368562	            0013	29.06.2024	       0
		4051479378		10345488	4537020858	00001	2159816	Push bar DD-WMS 100 assy	8330	0001	             1	PC	PC	000010	680889433	58123096	HLI0550	8300	L05	9999	8330	16.09.2024	10.07.2024	0080	56305166	HLI0550	D368562016	0013368562	            0016	29.06.2024	       0
		4051479378		10345488	4537020859	00001	207322	Sealing washer DD-SW-107/117-M	8330	0001	             1	PC	PC	000010	680889434	58123472	HLI0550	8300	L05	9999	8330	16.09.2024	10.07.2024	0100	56305166	HLI0550	D368562001	0013368562	            0001	29.06.2024	       0
		4051479378		10345488	4537020860	00001	285296	Guide rail extension DD-HD30-XT30	8330	0001	             1	PC	PC	000010	680889435	58123473	HLI0550	8300	L05	9999	8330	16.09.2024	10.07.2024	0110	56305166	HLI0550	D368562005	0013368562	            0005	29.06.2024	       0
		4051479378		10345488	4537020861	00001	2158230	Core bit B 62/450 SP-H abras	8330	0001	             3	PC	PC	000010	680889436	58123472	HLI0550	8300	L05	9999	8330	16.09.2024	10.07.2024	0120	56305166	HLI0550	D368562010	0013368562	            0010	29.06.2024	       0
		4051479378		10345488	4537020862	00001	2168891	Flat chisel TE-SX FM 43 (4)	8330	0001	           112	PC	PC	000010	680889437	58123254	HLI0550	8300	L09	9999	8330	16.09.2024	10.07.2024	0010	56293141	HLI0550	D345456001	0013345456	            0001	18.06.2024	       0
		4051479378		10345488	4537020863	00001	2261783	Core bit BI 20/320 SP-L abras	8330	0001	            88	PC	PC	000010	680889438	58123725	HLI0550	8300	L05	9999	8330	16.09.2024	10.07.2024	0160	56295123	HLI0550	D348922014	0013348922	            0014	20.06.2024	       7
		4051479378		10345488	4537020864	00001	2168891	Flat chisel TE-SX FM 43 (4)	8330	0001	           112	PC	PC	000010	680889439	58123258	HLI0550	8300	L09	9999	8330	16.09.2024	10.07.2024	0010	56295587	HLI0550	D349431001	0013349431	            0001	20.06.2024	       0
		4051479378		10345488	4537020866	00001	2156390	High performance nail X-P 20 B3 MX BULK	8330	0001	       108.000	PC	PC	000010	680889440	58122134	HLI0550	8300	L04	9999	8330	16.09.2024	10.07.2024	0010	56296666	HLI0550	D352906001	0013352906	            0001	20.06.2024	       7
		4051479378		10345488	4537020867	00001	2156390	High performance nail X-P 20 B3 MX BULK	8330	0001	       108.000	PC	PC	000010	680889441	58122135	HLI0550	8300	L04	9999	8330	16.09.2024	10.07.2024	0010	56296667	HLI0550	D352907001	0013352907	            0001	20.06.2024	       7
		4051479379		10345488	4537020868	00001	2151638	Hammer drill bit TE-CX 14/47	8330	0001	             2	PC	PC	000010	680889442	58123351	HLI0550	8300	L09	9999	8330	16.09.2024	10.07.2024	0070	56268476	HLI0550	D293637005	0013293637	            0005	24.05.2024	      35
		4051479379		10345488	4537020869	00001	2153651	ON!Track tag AI L5	8330	0001	           100	PC	PC	000010	680889443	58123170	HLI0550	8300	L13	9999	8330	16.09.2024	10.07.2024	0030	56274048	HLI0550	D304711014	0013304711	            0014	30.05.2024	       0
		4051479379		10345488	4537020870	00001	2153651	ON!Track tag AI L5	8330	0001	           100	PC	PC	000010	680889444	58123170	HLI0550	8300	L13	9999	8330	16.09.2024	10.07.2024	0050	56284136	HLI0550	D327856006	0013327856	            0006	10.06.2024	       0
		4051479379		10345488	4537020872	00001	2288622	Socket cutter 5'' SPX-L	8330	0001	            48	PC	PC	000010	680889445	58123359	HLI0550	8300	L05	9999	8330	16.09.2024	10.07.2024	0160	56265721	HLI0550	D289752025	0013289752	            0025	23.05.2024	      14
		4051479379		10345488	4537020873	00001	2124716	Diamond coring tool DD 200 230V BS	8330	0001	             6	PC	PC	000010	680889446	58121642	HLI0550	8300	L05	9999	8330	16.09.2024	10.07.2024	0010	56267813	HLI0550	D293092001	0013293092	            0001	24.05.2024	      21
		4051479379		10345488	4537020874	00001	2151586	Hammer drill bit TE-CX 14/17 MP8	8330	0001	            24	PC	PC	000010	680889447	58123351	HLI0550	8300	L09	9999	8330	16.09.2024	10.07.2024	0040	56268476	HLI0550	D293637006	0013293637	            0006	24.05.2024	       0
		4051479379		10345488	4537020875	00001	2124812	Diamond coring tool DD 200 220V BL	8330	0001	             4	PC	PC	000010	680889448	58121639	HLI0550	8300	L05	9999	8330	16.09.2024	10.07.2024	0010	56274032	HLI0550	D304811012	0013304811	            0012	30.05.2024	       7
		4051479379		10345488	4537020877	00001	2124812	Diamond coring tool DD 200 220V BL	8330	0001	             4	PC	PC	000010	680889449	58121638	HLI0550	8300	L05	9999	8330	16.09.2024	10.07.2024	0040	56274032	HLI0550	D304811018	0013304811	            0018	30.05.2024	      14
		4051479379		10345488	4537020878	00001	2124812	Diamond coring tool DD 200 220V BL	8330	0001	             4	PC	PC	000010	680889450	58121643	HLI0550	8300	L05	9999	8330	16.09.2024	10.07.2024	0020	56274048	HLI0550	D304711004	0013304711	            0004	30.05.2024	       0
		4051479379		10345488	4537020879	00001	2200273	Dust lip set DGH 130	8330	0001	            15	PC	PC	000010	680889451	58123351	HLI0550	8300	L05	9999	8330	16.09.2024	10.07.2024	0090	56274048	HLI0550	D304711042	0013304711	            0042	30.05.2024	       0
		4051479379		10345488	4537020880	00001	2005208	Diamond coring tool DD 160 220V	8330	0001	            14	PC	PC	000010	680889452	58121641	HLI0550	8300	L05	9999	8330	16.09.2024	10.07.2024	0130	56274048	HLI0550	D304711051	0013304711	            0051	30.05.2024	       0
		4051479379		10345488	4537020881	00001	2203668	Diamond coring tool DD 150-U 220V	8330	0001	             1	PC	PC	000010	680889453	58122168	HLI0550	8300	L05	9999	8330	16.09.2024	10.07.2024	0010	56281665	HLI0550	D323731001	0013323731	            0001	07.06.2024	       7
		4051479379		10345488	4537020882	00001	2238576	Diamond cup DG-CW 115/4.5" P (2) univ	8330	0001	           252	PC	PC	000010	680889454	58123206	HLI0550	8300	L05	9999	8330	16.09.2024	10.07.2024	0010	56283972	HLI0550	D327257001	0013327257	            0001	10.06.2024	       0
		4051479379		10345488	4537020884	00001	2341252	Pointed chisel TE-SX SM 43 (4)	8330	0001	           224	PC	PC	000010	680889455	58123359	HLI0550	8300	L09	9999	8330	16.09.2024	10.07.2024	0060	56278558	HLI0550	D319098011	0013319098	            0011	04.06.2024	       0
		4051479380		10345488	4537020885	00001	2370436	Cordless rotary hammer TE 50-22 case	8330	0001	             2	PC	PC	000010	680889456	58122205	HLI0550	8300	L15	9999	8330	16.09.2024	10.07.2024	0110	56261404	HLI0550	D282806008	0013282806	            0008	17.05.2024	       0
		4051479380		10345488	4537020886	00001	2370436	Cordless rotary hammer TE 50-22 case	8330	0001	             2	PC	PC	000010	680889457	58122947	HLI0550	8300	L15	9999	8330	16.09.2024	10.07.2024	0110	56261404	HLI0550	D282806008	0013282806	            0008	17.05.2024	       0
		4051479380		10345488	4537020888	00001	2261745	Change module 112 P-U abras	8330	0001	            30	PC	PC	000010	680889458	58123204	HLI0550	8300	L05	9999	8330	16.09.2024	10.07.2024	0050	56227437	HLI0550	D219066003	0013219066	            0003	16.04.2024	      14
		4051479380		10345488	4537020889	00001	2261745	Change module 112 P-U abras	8330	0001	            12	PC	PC	000010	680889459	58123673	HLI0550	8300	L05	9999	8330	16.09.2024	10.07.2024	0050	56227437	HLI0550	D219066003	0013219066	            0003	16.04.2024	      14
		4051479380		10345488	4537020890	00001	2151593	Hammer drill bit TE-CX 16/22	8330	0001	             5	PC	PC	000010	680889460	58123166	HLI0550	8300	L09	9999	8330	16.09.2024	10.07.2024	0220	56226146	HLI0550	D216966020	0013216966	            0020	15.04.2024	      70
		4051479380		10345488	4537020891	00001	2151593	Hammer drill bit TE-CX 16/22	8330	0001	             6	PC	PC	000010	680889461	58123166	HLI0550	8300	L09	9999	8330	16.09.2024	10.07.2024	0050	56236260	HLI0550	D226779070	0013226779	            0070	19.04.2024	      70
		4051479380		10345488	4537020892	00001	438579	Breaker TE 700-AVR 220V	8330	0001	            20	PC	PC	000010	680889462	58123097	HLI0550	8300	L08	9999	8330	16.09.2024	10.07.2024	0030	56239482	HLI0550	D239416005	0013239416	            0005	25.04.2024	       7
		4051479380		10345488	4537020893	00001	438579	Breaker TE 700-AVR 220V	8330	0001	            20	PC	PC	000010	680889463	58123098	HLI0550	8300	L08	9999	8330	16.09.2024	10.07.2024	0030	56239482	HLI0550	D239416005	0013239416	            0005	25.04.2024	       7
		4051479380		10345488	4537020895	00001	438579	Breaker TE 700-AVR 220V	8330	0001	            20	PC	PC	000010	680889464	58123099	HLI0550	8300	L08	9999	8330	16.09.2024	10.07.2024	0030	56239482	HLI0550	D239416005	0013239416	            0005	25.04.2024	       7
		4051479380		10345488	4537020896	00001	438579	Breaker TE 700-AVR 220V	8330	0001	            20	PC	PC	000010	680889465	58123100	HLI0550	8300	L08	9999	8330	16.09.2024	10.07.2024	0030	56239482	HLI0550	D239416005	0013239416	            0005	25.04.2024	       7
		4051479380		10345488	4537020897	00001	2149475	Breaker TE 2000-AVR 230V	8330	0001	             8	PC	PC	000010	680889466	58123111	HLI0550	8300	L08	9999	8330	16.09.2024	10.07.2024	0010	56247277	HLI0550	D256625003	0013256625	            0003	03.05.2024	       0
		4051479380		10345488	4537020898	00001	2149475	Breaker TE 2000-AVR 230V	8330	0001	             8	PC	PC	000010	680889467	58123101	HLI0550	8300	L08	9999	8330	16.09.2024	10.07.2024	0010	56247277	HLI0550	D256625003	0013256625	            0003	03.05.2024	       0
		4051479380		10345488	4537020899	00001	2149475	Breaker TE 2000-AVR 230V	8330	0001	             8	PC	PC	000010	680889468	58123102	HLI0550	8300	L08	9999	8330	16.09.2024	10.07.2024	0010	56247277	HLI0550	D256625003	0013256625	            0003	03.05.2024	       0
		4051479380		10345488	4537020900	00001	2149475	Breaker TE 2000-AVR 230V	8330	0001	             8	PC	PC	000010	680889469	58123103	HLI0550	8300	L08	9999	8330	16.09.2024	10.07.2024	0010	56247277	HLI0550	D256625003	0013256625	            0003	03.05.2024	       0
		4051479380		10345488	4537020901	00001	2149475	Breaker TE 2000-AVR 230V	8330	0001	             8	PC	PC	000010	680889470	58123106	HLI0550	8300	L08	9999	8330	16.09.2024	10.07.2024	0010	56247277	HLI0550	D256625003	0013256625	            0003	03.05.2024	       0
		4051479380		10345488	4537020902	00001	2149475	Breaker TE 2000-AVR 230V	8330	0001	             8	PC	PC	000010	680889471	58123107	HLI0550	8300	L08	9999	8330	16.09.2024	10.07.2024	0010	56247277	HLI0550	D256625003	0013256625	            0003	03.05.2024	       0
		4051479380		10345488	4537020903	00001	2149475	Breaker TE 2000-AVR 230V	8330	0001	             8	PC	PC	000010	680889472	58123104	HLI0550	8300	L08	9999	8330	16.09.2024	10.07.2024	0010	56247277	HLI0550	D256625003	0013256625	            0003	03.05.2024	       0
		4051479380		10345488	4537020905	00001	2149475	Breaker TE 2000-AVR 230V	8330	0001	             8	PC	PC	000010	680889473	58123105	HLI0550	8300	L08	9999	8330	16.09.2024	10.07.2024	0010	56247277	HLI0550	D256625003	0013256625	            0003	03.05.2024	       0
		4051479380		10345488	4537020906	00001	2151593	Hammer drill bit TE-CX 16/22	8330	0001	            10	PC	PC	000010	680889474	58123166	HLI0550	8300	L09	9999	8330	16.09.2024	10.07.2024	0010	56251526	HLI0550	D260623002	0013260623	            0002	06.05.2024	      56
		4051479380		10345488	4537020907	00001	2076519	Core bit C+ 20/600 SPX-T	8330	0001	             2	PC	PC	000010	680889475	58123095	HLI0550	8300	L05	9999	8330	16.09.2024	10.07.2024	0220	56252183	HLI0550	D266169054	0013266169	            0054	09.05.2024	      50
		4051479380		10345488	4537020908	00001	2199676	Core bit B 450/450 SP-H abras	8330	0001	             1	PC	PC	000010	680889476	58123094	HLI0550	8300	L05	9999	8330	16.09.2024	10.07.2024	0260	56252183	HLI0550	D266169043	0013266169	            0043	09.05.2024	       0
		4051479380		10345488	4537020909	00001	2151593	Hammer drill bit TE-CX 16/22	8330	0001	            12	PC	PC	000010	680889477	58123166	HLI0550	8300	L09	9999	8330	16.09.2024	10.07.2024	0010	56260604	HLI0550	D276539001	0013276539	            0001	14.05.2024	      42
		4051479380		10345488	4537020910	00001	2146846	Breaker TE 500-AVR 220V	8330	0001	            20	PC	PC	000010	680889478	58123108	HLI0550	8300	L08	9999	8330	16.09.2024	10.07.2024	0010	56261404	HLI0550	D282806001	0013282806	            0001	17.05.2024	       0
		4051479380		10345488	4537020911	00001	2146846	Breaker TE 500-AVR 220V	8330	0001	            20	PC	PC	000010	680889479	58123109	HLI0550	8300	L08	9999	8330	16.09.2024	10.07.2024	0010	56261404	HLI0550	D282806001	0013282806	            0001	17.05.2024	       0
		4051479380		10345488	4537020913	00001	2146846	Breaker TE 500-AVR 220V	8330	0001	            20	PC	PC	000010	680889480	58123110	HLI0550	8300	L08	9999	8330	16.09.2024	10.07.2024	0010	56261404	HLI0550	D282806001	0013282806	            0001	17.05.2024	       0
		4051479380		10345488	4537020914	00001	2168875	Flat chisel TE-SX FM 43	8330	0001	           120	PC	PC	000010	680889481	58123337	HLI0550	8300	L09	9999	8330	16.09.2024	10.07.2024	0020	56261404	HLI0550	D282806002	0013282806	            0002	17.05.2024	       0
		4051479380		10345488	4537020915	00001	2254658	Pointed chisel TE-HX SM 50	8330	0001	            12	PC	PC	000010	680889482	58123208	HLI0550	8300	L09	9999	8330	16.09.2024	10.07.2024	0080	56261404	HLI0550	D282806018	0013282806	            0018	17.05.2024	       0
		4051479380		10345488	4537020916	00001	2107707	Circ. saw blade SCB WU 190x30 z18	8330	0001	             5	PC	PC	000010	680889483	58123166	HLI0550	8300	L09	9999	8330	16.09.2024	10.07.2024	0140	56261404	HLI0550	D282806011	0013282806	            0011	17.05.2024	       0
		4051479380		10345488	4537020918	00001	2107707	Circ. saw blade SCB WU 190x30 z18	8330	0001	            15	PC	PC	000010	680889484	58123208	HLI0550	8300	L09	9999	8330	16.09.2024	10.07.2024	0140	56261404	HLI0550	D282806011	0013282806	            0011	17.05.2024	       0
		4051479380		10345488	4537020919	00001	2064703	Breaker TE 800-AVR 220V	8330	0001	            11	PC	PC	000010	680889485	58121815	HLI0550	8300	L08	9999	8330	16.09.2024	10.07.2024	0150	56261404	HLI0550	D282806009	0013282806	            0009	17.05.2024	       0
		4051479380		10345488	4537020920	00001	2064703	Breaker TE 800-AVR 220V	8330	0001	            11	PC	PC	000010	680889486	58121816	HLI0550	8300	L08	9999	8330	16.09.2024	10.07.2024	0150	56261404	HLI0550	D282806009	0013282806	            0009	17.05.2024	       0
		4051479380		10345488	4537020921	00001	2064703	Breaker TE 800-AVR 220V	8330	0001	            11	PC	PC	000010	680889487	58121814	HLI0550	8300	L08	9999	8330	16.09.2024	10.07.2024	0150	56261404	HLI0550	D282806009	0013282806	            0009	17.05.2024	       0
		4051479380		10345488	4537020923	00001	2064703	Breaker TE 800-AVR 220V	8330	0001	            11	PC	PC	000010	680889488	58121813	HLI0550	8300	L08	9999	8330	16.09.2024	10.07.2024	0150	56261404	HLI0550	D282806009	0013282806	            0009	17.05.2024	       0
		4051479380		10345488	4537020924	00001	2064703	Breaker TE 800-AVR 220V	8330	0001	            11	PC	PC	000010	680889489	58121810	HLI0550	8300	L08	9999	8330	16.09.2024	10.07.2024	0150	56261404	HLI0550	D282806009	0013282806	            0009	17.05.2024	       0
		4051479380		10345488	4537020925	00001	2341099	Hammer drill bit TE-CX 5/8"-8"	8330	0001	            22	PC	PC	000010	680889490	58123166	HLI0550	8300	L09	9999	8330	16.09.2024	10.07.2024	0300	56219015	HLI0550	D202547033	0013202547	            0033	08.04.2024	      42
		4051479380		10345488	4537020926	00001	2150738	Grinding wheel AG-D SP 115x6.4	8330	0001	           140	PC	PC	000010	680889491	58123337	HLI0550	8300	L09	9999	8330	16.09.2024	10.07.2024	0130	56261404	HLI0550	D282806012	0013282806	            0012	17.05.2024	       0
		4051479380		10345488	4537020927	00001	409188	Hammer drill bit TE-CX 10/17	8330	0001	           270	PC	PC	000010	680889492	58123208	HLI0550	8300	L09	9999	8330	16.09.2024	10.07.2024	0060	56264103	HLI0550	D287583008	0013287583	            0008	21.05.2024	       0
		4051479380		10345488	4537020929	00001	2150738	Grinding wheel AG-D SP 115x6.4	8330	0001	         1.060	PC	PC	000010	680889493	58123337	HLI0550	8300	L09	9999	8330	16.09.2024	10.07.2024	0130	56261404	HLI0550	D282806012	0013282806	            0012	17.05.2024	       0
		4051482019		10359787	4537043907	00001	2102194	Gas-actuated tool GX 3 case	8330	0001	             5	PC	PC	000010	680907431	58127325	HLI0550	8300	L04	9999	8330	11.09.2024	15.07.2024	0010	56302456	HLI0550	D364782008	0013364782	            0008	27.06.2024	       0
		4051482019		10359787	4537043910	00001	2097583	Rotating laser PR 300-HV2S	8330	0001	             1	PC	PC	000010	680907432	58128158	HLI0550	8300	L07	9999	8330	11.09.2024	15.07.2024	0010	56302361	HLI0550	D364019001	0013364019	            0001	26.06.2024	       7
		4051482019		10359787	4537043911	00001	2097583	Rotating laser PR 300-HV2S	8330	0001	             1	PC	PC	000010	680907433	58128158	HLI0550	8300	L07	9999	8330	11.09.2024	15.07.2024	0010	56310995	HLI0550	D384894001	0013384894	            0001	04.07.2024	       0
		4051482019		10359787	4537043914	00001	2264046	Laser receiver PMA 32	8330	0001	             5	PC	PC	000010	680907434	58128610	HLI0550	8300	L07	9999	8330	11.09.2024	15.07.2024	0010	56310978	HLI0550	D384889001	0013384889	            0001	04.07.2024	       0
		4051482019		10359787	4537043917	00001	2242903	Cordl. area light SL 6-22 box	8330	0001	             3	PC	PC	000010	680907435	58128732	HLI0550	8300	L15	9999	8330	11.09.2024	15.07.2024	0060	56313054	HLI0550	D388562003	0013388562	            0003	08.07.2024	       0
		4051482019		10359787	4537043918	00001	2017478	Tripod PRA 90	8330	0001	             1	PC	PC	000010	680907436	58128772	HLI0550	8300	L07	9999	8330	11.09.2024	15.07.2024	0010	56310865	HLI0550	D384453001	0013384453	            0001	04.07.2024	       0
		4051482019		10359787	4537043920	00001	2153651	ON!Track tag AI L5	8330	0001	           700	PC	PC	000010	680907437	58128713	HLI0550	8300	L13	9999	8330	11.09.2024	15.07.2024	0070	56312193	HLI0550	D386375007	0013386375	            0007	06.07.2024	       0
		4051482019		10359787	4537043922	00001	409192	Hammer drill bit TE-CX 10/47	8330	0001	             5	PC	PC	000010	680907438	58128977	HLI0550	8300	L09	9999	8330	11.09.2024	15.07.2024	0040	56288770	HLI0550	D335878008	0013335878	            0008	13.06.2024	      21
		4051482019		10359787	4537043924	00001	2165913	Hammer drill bit TE-YX 1 1/8"-21"	8330	0001	             7	PC	PC	000010	680907439	58128977	HLI0550	8300	L09	9999	8330	11.09.2024	15.07.2024	0180	56288770	HLI0550	D335878035	0013335878	            0035	13.06.2024	      21
		4051482019		10359787	4537043927	00001	2006978	Vacuum pump DD VP-U 220V	8330	0001	             1	PC	PC	000010	680907440	58129010	HLI0550	8300	L05	9999	8330	11.09.2024	15.07.2024	0010	56290257	HLI0550	D337863003	0013337863	            0003	14.06.2024	      14
		4051482019		10359787	4537043930	00001	2232382	Diamond grinder DGH 150 230V	8330	0001	             1	PC	PC	000010	680907441	58128557	HLI0550	8300	L05	9999	8330	11.09.2024	15.07.2024	0060	56290257	HLI0550	D337863017	0013337863	            0017	14.06.2024	       7
		4051482019		10359787	4537043932	00001	2157747	Change module 42 SPX/SP-H abras	8330	0001	             1	PC	PC	000010	680907442	58128977	HLI0550	8300	L05	9999	8330	11.09.2024	15.07.2024	0180	56290257	HLI0550	D337863013	0013337863	            0013	14.06.2024	-7
		4051482019		10359787	4537043934	00001	2273697	Girder end cap MT-EC-70	8330	0001	           100	PC	PC	000010	680907443	58128977	HLI0550	8300	L14	9999	8330	11.09.2024	15.07.2024	0060	56290280	HLI0550	D337829002	0013337829	            0002	15.06.2024	      21
		4051482019		10359787	4537043936	00001	2021998	Hammer drill bit TE-CX 6/17 MP8	8330	0001	            80	PC	PC	000010	680907444	58128977	HLI0550	8300	L09	9999	8330	11.09.2024	15.07.2024	0030	56291815	HLI0550	D341658007	0013341658	            0007	17.06.2024	-28
		4051482019		10359787	4537043938	00001	409192	Hammer drill bit TE-CX 10/47	8330	0001	            23	PC	PC	000010	680907445	58128977	HLI0550	8300	L09	9999	8330	11.09.2024	15.07.2024	0140	56293410	HLI0550	D345300016	0013345300	            0016	18.06.2024	      14
		4051482019		10359787	4537043940	00001	2273697	Girder end cap MT-EC-70	8330	0001	           150	PC	PC	000010	680907446	58128977	HLI0550	8300	L14	9999	8330	11.09.2024	15.07.2024	0010	56293597	HLI0550	D345873012	0013345873	            0012	18.06.2024	      14
		4051482019		10359787	4537043942	00001	2238576	Diamond cup DG-CW 115/4.5" P (2) univ	8330	0001	           252	PC	PC	000010	680907447	58128996	HLI0550	8300	L05	9999	8330	11.09.2024	15.07.2024	0020	56294735	HLI0550	D348123002	0013348123	            0002	19.06.2024	-7
		4051482019		10359787	4537043944	00001	2203668	Diamond coring tool DD 150-U 220V	8330	0001	             1	PC	PC	000010	680907448	58128560	HLI0550	8300	L05	9999	8330	11.09.2024	15.07.2024	0010	56296499	HLI0550	D352820002	0013352820	            0002	21.06.2024	       0
		4051482019		10359787	4537043947	00001	2203668	Diamond coring tool DD 150-U 220V	8330	0001	             1	PC	PC	000010	680907449	58128368	HLI0550	8300	L05	9999	8330	11.09.2024	15.07.2024	0010	56296516	HLI0550	D352912001	0013352912	            0001	20.06.2024	       0
		4051482019		10359787	4537043949	00001	2203668	Diamond coring tool DD 150-U 220V	8330	0001	             2	PC	PC	000010	680907450	58128373	HLI0550	8300	L05	9999	8330	11.09.2024	15.07.2024	0010	56296516	HLI0550	D352912001	0013352912	            0001	20.06.2024	       0
		4051482019		10359787	4537043951	00001	2203668	Diamond coring tool DD 150-U 220V	8330	0001	             2	PC	PC	000010	680907451	58128377	HLI0550	8300	L05	9999	8330	11.09.2024	15.07.2024	0010	56296516	HLI0550	D352912001	0013352912	            0001	20.06.2024	       0
		4051482019		10359787	4537043953	00001	2203668	Diamond coring tool DD 150-U 220V	8330	0001	             5	PC	PC	000010	680907452	58128561	HLI0550	8300	L05	9999	8330	11.09.2024	15.07.2024	0010	56296518	HLI0550	D352913001	0013352913	            0001	20.06.2024	       0
		4051482019		10359787	4537043955	00001	2121386	Filter VC 20/40 dry	8330	0001	            20	PC	PC	000010	680907453	58129010	HLI0550	8300	L05	9999	8330	11.09.2024	15.07.2024	0030	56302456	HLI0550	D364782012	0013364782	            0012	27.06.2024	       0
		4051482019		10359787	4537043957	00001	2121387	Filter VC 20/40/150 univ	8330	0001	             1	PC	PC	000010	680907454	58128977	HLI0550	8300	L05	9999	8330	11.09.2024	15.07.2024	0050	56302456	HLI0550	D364782016	0013364782	            0016	27.06.2024	       0
		4051482019		10359787	4537043959	00001	2361442	Stud holder S-SH BT M10/W10	8330	0001	             1	PC	PC	000010	680907455	58128977	HLI0550	8300	L10	9999	8330	11.09.2024	15.07.2024	0080	56302456	HLI0550	D364782021	0013364782	            0021	27.06.2024	       0
		4051482019		10359787	4537043961	00001	286794	Connection end BS (M41)	8330	0001	             7	PC	PC	000010	680907456	58128977	HLI0550	8300	L05	9999	8330	11.09.2024	15.07.2024	0100	56302456	HLI0550	D364782003	0013364782	            0003	27.06.2024	       0
		4051482019		10359787	4537043963	00001	2158229	Core bit B 57/450 SP-H abras	8330	0001	             1	PC	PC	000010	680907457	58128977	HLI0550	8300	L05	9999	8330	11.09.2024	15.07.2024	0120	56302456	HLI0550	D364782015	0013364782	            0015	27.06.2024	       0
		4051482019		10359787	4537043965	00001	2199633	Core bit BI 25/320 SP-L abras	8330	0001	            16	PC	PC	000010	680907458	58128978	HLI0550	8300	L05	9999	8330	11.09.2024	15.07.2024	0250	56302477	HLI0550	D364670018	0013364670	            0018	27.06.2024	       7
		4051482019		10359787	4537043967	00001	2151626	Hammer drill bit TE-CX 12/17	8330	0001	             5	PC	PC	000010	680907459	58128977	HLI0550	8300	L09	9999	8330	11.09.2024	15.07.2024	0010	56304866	HLI0550	D367698001	0013367698	            0001	28.06.2024	       0
		4051482019		10359787	4537043969	00001	2261783	Core bit BI 20/320 SP-L abras	8330	0001	            16	PC	PC	000010	680907460	58128978	HLI0550	8300	L05	9999	8330	11.09.2024	15.07.2024	0070	56305126	HLI0550	D368371006	0013368371	            0006	29.06.2024	       7
		4051482019		10359787	4537043970	00001	2323246	Threaded stud X-M6-8-62 DP7 SCT B3	8330	0001	         2.400	PC	PC	000010	680907461	58128977	HLI0550	8300	L04	9999	8330	11.09.2024	15.07.2024	0010	56306524	HLI0550	D364670025	0013364670	            0025	27.06.2024	       0
		4051482019		10359787	4537043971	00001	285718	Cable trunking fastener X-ET MX	8330	0001	       160.000	PC	PC	000010	680907462	58127882	HLI0550	8300	L04	9999	8330	11.09.2024	15.07.2024	0010	56306827	HLI0550	D377495004	0013377495	            0004	02.07.2024	       0
		4051482019		10359787	4537043972	00001	2253115	Cordl. combihammer TE 30-22 case	8330	0001	             4	PC	PC	000010	680907463	58128763	HLI0550	8300	L15	9999	8330	11.09.2024	15.07.2024	0020	56306827	HLI0550	D377495009	0013377495	            0009	02.07.2024	       0
		4051482019		10359787	4537043973	00001	2217525	Threaded stud X-BT-MR0 M10/15 SN 8	8330	0001	        10.500	PC	PC	000010	680907464	58128978	HLI0550	8300	L04	9999	8330	11.09.2024	15.07.2024	0010	56307942	HLI0550	D364782014	0013364782	            0014	27.06.2024	       7
		4051482019		10359787	4537043974	00001	2217525	Threaded stud X-BT-MR0 M10/15 SN 8	8330	0001	         1.100	PC	PC	000010	680907465	58128977	HLI0550	8300	L04	9999	8330	11.09.2024	15.07.2024	0010	56307942	HLI0550	D364782014	0013364782	            0014	27.06.2024	       7
		4051482019		10359787	4537043975	00001	433790	Hammer drill bit TE-CX 6/22	8330	0001	            10	PC	PC	000010	680907466	58128977	HLI0550	8300	L09	9999	8330	11.09.2024	15.07.2024	0010	56308162	HLI0550	D380303001	0013380303	            0001	02.07.2024	       0
		4051482019		10359787	4537043976	00001	2224151	Tool case TE 1000-AVR empty	8330	0001	             2	PC	PC	000010	680907467	58127324	HLI0550	8300	L08	9999	8330	11.09.2024	15.07.2024	0020	56308162	HLI0550	D380303002	0013380303	            0002	02.07.2024	       0
		4051482019		10359787	4537043977	00001	2254659	Pointed chisel TE-HX SM 40 (4)	8330	0001	             4	PC	PC	000010	680907468	58128765	HLI0550	8300	L09	9999	8330	11.09.2024	15.07.2024	0040	56308210	HLI0550	D380372006	0013380372	            0006	02.07.2024	       0
		4051482019		10359787	4537043978	00001	2184660	Comfort side handle TE 500-X (Gen 3)	8330	0001	             1	PC	PC	000010	680907469	58128977	HLI0550	8300	L08	9999	8330	11.09.2024	15.07.2024	0060	56308210	HLI0550	D380372010	0013380372	            0010	02.07.2024	       0
		4051482019		10359787	4537043979	00001	2184682	Hammer drill bit TE-YX 1/2"-21"	8330	0001	             3	PC	PC	000010	680907470	58128977	HLI0550	8300	L09	9999	8330	11.09.2024	15.07.2024	0070	56308210	HLI0550	D380372011	0013380372	            0011	02.07.2024	       0
		4051482019		10359787	4537043980	00001	2184685	Hammer drill bit TE-YX 5/8"-13"	8330	0001	             4	PC	PC	000010	680907471	58128977	HLI0550	8300	L09	9999	8330	11.09.2024	15.07.2024	0080	56308210	HLI0550	D380372012	0013380372	            0012	02.07.2024	       0
		4051482019		10359787	4537043981	00001	2241991	Flat chisel TE-YX FM 36	8330	0001	            10	PC	PC	000010	680907472	58128765	HLI0550	8300	L09	9999	8330	11.09.2024	15.07.2024	0090	56308210	HLI0550	D380372014	0013380372	            0014	02.07.2024	       0
		4051482019		10359787	4537043983	00001	2326037	Band saw SB 6-22 case	8330	0001	             1	PC	PC	000010	680907473	58128193	HLI0550	8300	L15	9999	8330	11.09.2024	15.07.2024	0100	56308210	HLI0550	D380372017	0013380372	            0017	02.07.2024	       0
		4051482019		10359787	4537043984	00001	2326037	Band saw SB 6-22 case	8330	0001	             1	PC	PC	000010	680907474	58128553	HLI0550	8300	L15	9999	8330	11.09.2024	15.07.2024	0100	56308210	HLI0550	D380372017	0013380372	            0017	02.07.2024	       0
		4051482019		10359787	4537043985	00001	2252741	Nibbler SPN 6-22 CN case	8330	0001	             1	PC	PC	000010	680907475	58128870	HLI0550	8300	L15	9999	8330	11.09.2024	15.07.2024	0110	56308210	HLI0550	D380372003	0013380372	            0003	02.07.2024	       0
		4051482019		10359787	4537043986	00001	2206743	Hammer drill bit TE-CX 3/4"-18"	8330	0001	            24	PC	PC	000010	680907476	58128977	HLI0550	8300	L09	9999	8330	11.09.2024	15.07.2024	0010	56308317	HLI0550	D380542001	0013380542	            0001	02.07.2024	       0
		4051482019		10359787	4537043987	00001	2242387	Diamond cup DG-CW 125/5" P (6) univ	8330	0001	            18	PC	PC	000010	680907477	58128978	HLI0550	8300	L05	9999	8330	11.09.2024	15.07.2024	0010	56309354	HLI0550	D382122001	0013382122	            0001	03.07.2024	       0
		4051482019		10359787	4537043988	00001	2242387	Diamond cup DG-CW 125/5" P (6) univ	8330	0001	            54	PC	PC	000010	680907478	58129010	HLI0550	8300	L05	9999	8330	11.09.2024	15.07.2024	0010	56309354	HLI0550	D382122001	0013382122	            0001	03.07.2024	       0
		4051482019		10359787	4537043989	00001	2238576	Diamond cup DG-CW 115/4.5" P (2) univ	8330	0001	           252	PC	PC	000010	680907479	58128996	HLI0550	8300	L05	9999	8330	11.09.2024	15.07.2024	0020	56309354	HLI0550	D382122002	0013382122	            0002	03.07.2024	       0
		4051482019		10359787	4537043990	00001	414472	Setting tool HKD-TE-CX M6 1/4"x25	8330	0001	             5	PC	PC	000010	680907480	58128977	HLI0550	8300	L09	9999	8330	11.09.2024	15.07.2024	0010	56309433	HLI0550	D381938001	0013381938	            0001	03.07.2024	       0
		4051482019		10359787	4537043991	00001	2150740	Grinding wheel AG-D SP 125x6.4	8330	0001	            10	PC	PC	000010	680907481	58128765	HLI0550	8300	L09	9999	8330	11.09.2024	15.07.2024	0020	56309433	HLI0550	D381938003	0013381938	            0003	03.07.2024	       0
		4051482019		10359787	4537043992	00001	427726	Circular saw SCW 70 230V box	8330	0001	             1	PC	PC	000010	680907482	58128148	HLI0550	8300	L08	9999	8330	11.09.2024	15.07.2024	0010	56309500	HLI0550	D382204001	0013382204	            0001	03.07.2024	       0
		4051482019		10359787	4537043993	00001	427726	Circular saw SCW 70 230V box	8330	0001	             1	PC	PC	000010	680907483	58128376	HLI0550	8300	L08	9999	8330	11.09.2024	15.07.2024	0010	56309500	HLI0550	D382204001	0013382204	            0001	03.07.2024	       0
		4051482019		10359787	4537043994	00001	2230166	Sleeve anchor HA NG 8x45 R1	8330	0001	         1.200	PC	PC	000010	680907484	58128978	HLI0550	8300	L02	9999	8330	11.09.2024	15.07.2024	0010	56310813	HLI0550	D384404001	0013384404	            0001	04.07.2024	       0
		4051482019		10359787	4537043995	00001	2230166	Sleeve anchor HA NG 8x45 R1	8330	0001	           800	PC	PC	000010	680907485	58128977	HLI0550	8300	L02	9999	8330	11.09.2024	15.07.2024	0010	56310813	HLI0550	D384404001	0013384404	            0001	04.07.2024	       0
		4051482019		10359787	4537043996	00001	2261821	Change module 202 P-U abras	8330	0001	             9	PC	PC	000010	680907486	58128892	HLI0550	8300	L05	9999	8330	11.09.2024	15.07.2024	0010	56310850	HLI0550	D384651001	0013384651	            0001	04.07.2024	       0
		4051482019		10359787	4537043997	00001	2261821	Change module 202 P-U abras	8330	0001	             1	PC	PC	000010	680907487	58128977	HLI0550	8300	L05	9999	8330	11.09.2024	15.07.2024	0010	56310850	HLI0550	D384651001	0013384651	            0001	04.07.2024	       0
		4051482019		10359787	4537043998	00001	2261814	Change module 122 P-U abras	8330	0001	             6	PC	PC	000010	680907488	58128765	HLI0550	8300	L05	9999	8330	11.09.2024	15.07.2024	0010	56310866	HLI0550	D384455001	0013384455	            0001	04.07.2024	       0
		4051482019		10359787	4537043999	00001	207325	Sealing washer DD-SW-158/162-M	8330	0001	             1	PC	PC	000010	680907489	58128977	HLI0550	8300	L05	9999	8330	11.09.2024	15.07.2024	0010	56310867	HLI0550	D384456001	0013384456	            0001	04.07.2024	       0
		4051482019		10359787	4537044000	00001	2040916	Water collector sys DD-WMK-BL	8330	0001	             1	PC	PC	000010	680907490	58128371	HLI0550	8300	L05	9999	8330	11.09.2024	15.07.2024	0010	56310976	HLI0550	D384805001	0013384805	            0001	04.07.2024	       0
		4051482019		10359787	4537044001	00001	305538	Vacuum baseplate DD-HD30-VBP	8330	0001	             1	PC	PC	000010	680907491	58127812	HLI0550	8300	L05	9999	8330	11.09.2024	15.07.2024	0020	56310976	HLI0550	D384805002	0013384805	            0002	04.07.2024	       0
		4051482019		10359787	4537044002	00001	203852	Dust bag VC 40/150-10 (10) plastic	8330	0001	            20	PC	PC	000010	680907492	58128977	HLI0550	8300	L05	9999	8330	11.09.2024	15.07.2024	0030	56310976	HLI0550	D384805003	0013384805	            0003	04.07.2024	       0
		4051482019		10359787	4537044003	00001	254684	Pipe X-PT 3FT	8330	0001	             3	PC	PC	000010	680907493	58128764	HLI0550	8300	L04	9999	8330	11.09.2024	15.07.2024	0040	56310976	HLI0550	D384805004	0013384805	            0004	04.07.2024	       0
		4051482019		10359787	4537044004	00001	2101258	Fastener guide X-FG B3-ME packed	8330	0001	             1	PC	PC	000010	680907494	58128977	HLI0550	8300	L04	9999	8330	11.09.2024	15.07.2024	0010	56311128	HLI0550	D384454001	0013384454	            0001	04.07.2024	       0
		4051482019		10359787	4537044005	00001	2117878	Cutting disc SP-S 305/22 univ	8330	0001	             1	PC	PC	000010	680907495	58128977	HLI0550	8300	L05	9999	8330	11.09.2024	15.07.2024	0010	56311452	HLI0550	D384895001	0013384895	            0001	04.07.2024	       0
		4051482019		10359787	4537044006	00001	2007686	Jack screw DD-ST-150/160-JS	8330	0001	             2	PC	PC	000010	680907496	58128977	HLI0550	8300	L05	9999	8330	11.09.2024	15.07.2024	0010	56311455	HLI0550	D384892001	0013384892	            0001	04.07.2024	       0
		4051482019		10359787	4537044007	00001	2212510	Torque tool X-BT 1/4" 20Nm / 14.8lbft	8330	0001	             2	PC	PC	000010	680907497	58128977	HLI0550	8300	L04	9999	8330	11.09.2024	15.07.2024	0030	56312176	HLI0550	D386374005	0013386374	            0005	06.07.2024	       0
		4051482019		10359787	4537044008	00001	2039186	Bit set S-BSC+ UNI 25/1" T (10)	8330	0001	             2	PC	PC	000010	680907498	58128977	HLI0550	8300	L10	9999	8330	11.09.2024	15.07.2024	0040	56312176	HLI0550	D386374006	0013386374	            0006	06.07.2024	       0
		4051482019		10359787	4537044009	00001	2278640	Filter VC 20/40/150-X dry	8330	0001	             3	PC	PC	000010	680907499	58128977	HLI0550	8300	L05	9999	8330	11.09.2024	15.07.2024	0050	56312180	HLI0550	D386502013	0013386502	            0013	06.07.2024	       0
		4051482019		10359787	4537044010	00001	2101048	Gas nail X-P 24 G3 MX	8330	0001	        18.000	PC	PC	000010	680907500	58128978	HLI0550	8300	L04	9999	8330	11.09.2024	15.07.2024	0100	56312180	HLI0550	D386502003	0013386502	            0003	06.07.2024	       0
		4051482019		10359787	4537044011	00001	285718	Cable trunking fastener X-ET MX	8330	0001	       160.000	PC	PC	000010	680907501	58127884	HLI0550	8300	L04	9999	8330	11.09.2024	15.07.2024	0010	56312193	HLI0550	D386375001	0013386375	            0001	06.07.2024	       0
		4051482019		10359787	4537044012	00001	285718	Cable trunking fastener X-ET MX	8330	0001	       160.000	PC	PC	000010	680907502	58127883	HLI0550	8300	L04	9999	8330	11.09.2024	15.07.2024	0010	56312193	HLI0550	D386375001	0013386375	            0001	06.07.2024	       0
		4051482019		10359787	4537044013	00001	2184478	Flat washer 8 8,4x16x1,6 ISO 7089 A4 200	8330	0001	         1.000	PC	PC	000010	680907503	58128977	HLI0550	8300	L06	9999	8330	11.09.2024	15.07.2024	0020	56312193	HLI0550	D386375002	0013386375	            0002	06.07.2024	       0
		4051482019		10359787	4537044014	00001	2127164	Supply cord 220V 4m BRCLIL univ	8330	0001	            60	PC	PC	000010	680907504	58128761	HLI0550	8300	L08	9999	8330	11.09.2024	15.07.2024	0030	56312193	HLI0550	D386375003	0013386375	            0003	06.07.2024	       0
		4051482019		10359787	4537044017	00001	2361441	Stud holder S-SH BT M8	8330	0001	            10	PC	PC	000010	680907505	58128977	HLI0550	8300	L10	9999	8330	11.09.2024	15.07.2024	0040	56312193	HLI0550	D386375004	0013386375	            0004	06.07.2024	       0
		4051482019		10359787	4537044018	00001	2021997	Hammer drill bit TE-CX 6/12 MP8	8330	0001	           176	PC	PC	000010	680907506	58128765	HLI0550	8300	L09	9999	8330	11.09.2024	15.07.2024	0050	56312193	HLI0550	D386375005	0013386375	            0005	06.07.2024	       0
		4051482019		10359787	4537044019	00001	2121387	Filter VC 20/40/150 univ	8330	0001	             1	PC	PC	000010	680907507	58128977	HLI0550	8300	L05	9999	8330	11.09.2024	15.07.2024	0060	56312193	HLI0550	D386375006	0013386375	            0006	06.07.2024	       0
		4051482019		10359787	4537044020	00001	2240605	Cordl. reciprocating saw SR 4-22 case	8330	0001	             3	PC	PC	000010	680907508	58128555	HLI0550	8300	L15	9999	8330	11.09.2024	15.07.2024	0010	56313054	HLI0550	D388562001	0013388562	            0001	08.07.2024	       0
		4051482019		10359787	4537044021	00001	2157094	Drill UD 4 230V	8330	0001	             1	PC	PC	000010	680907509	58128562	HLI0550	8300	L08	9999	8330	11.09.2024	15.07.2024	0020	56313054	HLI0550	D388562002	0013388562	            0002	08.07.2024	       0
		4051482019		10359787	4537044022	00001	2243001	Cordless task light SL 2-22 box	8330	0001	             6	PC	PC	000010	680907510	58128564	HLI0550	8300	L15	9999	8330	11.09.2024	15.07.2024	0030	56313054	HLI0550	D388562004	0013388562	            0004	08.07.2024	       0
		4051482019		10359787	4537044023	00001	2352716	Cordless blower NBL 4-22 box	8330	0001	             5	PC	PC	000010	680907511	58128978	HLI0550	8300	L15	9999	8330	11.09.2024	15.07.2024	0040	56313054	HLI0550	D388562005	0013388562	            0005	08.07.2024	       0
		4051482019		10359787	4537044024	00001	2352716	Cordless blower NBL 4-22 box	8330	0001	             3	PC	PC	000010	680907512	58129010	HLI0550	8300	L15	9999	8330	11.09.2024	15.07.2024	0040	56313054	HLI0550	D388562005	0013388562	            0005	08.07.2024	       0
		4051482019		10359787	4537044025	00001	2200273	Dust lip set DGH 130	8330	0001	            15	PC	PC	000010	680907513	58128977	HLI0550	8300	L05	9999	8330	11.09.2024	15.07.2024	0010	56313138	HLI0550	D387731001	0013387731	            0001	08.07.2024	       0
		4051482019		10359787	4537044026	00001	2233572	Dia blade 125/22 (6) P univ	8330	0001	            90	PC	PC	000010	680907514	58128765	HLI0550	8300	L05	9999	8330	11.09.2024	15.07.2024	0010	56313180	HLI0550	D388924001	0013388924	            0001	08.07.2024	       0
		4051482019		10359787	4537044027	00001	2351368	Cordl. circular saw SC 4MR-22 case	8330	0001	            12	PC	PC	000010	680907515	58127348	HLI0550	8300	L15	9999	8330	11.09.2024	15.07.2024	0020	56313180	HLI0550	D388924002	0013388924	            0002	08.07.2024	       0
		4051482019		10359787	4537044028	00001	2233562	Dia blade 230/22 SPX univ	8330	0001	             7	PC	PC	000010	680907516	58128978	HLI0550	8300	L05	9999	8330	11.09.2024	15.07.2024	0030	56313180	HLI0550	D388924003	0013388924	            0003	08.07.2024	       0
		4051482019		10359787	4537044029	00001	2233562	Dia blade 230/22 SPX univ	8330	0001	             1	PC	PC	000010	680907517	58128977	HLI0550	8300	L05	9999	8330	11.09.2024	15.07.2024	0030	56313180	HLI0550	D388924003	0013388924	            0003	08.07.2024	       0
		4051482019		10359787	4537044030	00001	2233562	Dia blade 230/22 SPX univ	8330	0001	            28	PC	PC	000010	680907518	58129010	HLI0550	8300	L05	9999	8330	11.09.2024	15.07.2024	0030	56313180	HLI0550	D388924003	0013388924	            0003	08.07.2024	       0
		4051482019		10359787	4537044031	00001	2261752	Core bit B 47/430 P-U abras	8330	0001	            32	PC	PC	000010	680907519	58128892	HLI0550	8300	L05	9999	8330	11.09.2024	15.07.2024	0070	56313180	HLI0550	D388924008	0013388924	            0008	08.07.2024	       0
		4051482019		10359787	4537044032	00001	2261724	Core bit B 52/430+ P-U abras	8330	0001	            32	PC	PC	000010	680907520	58128761	HLI0550	8300	L05	9999	8330	11.09.2024	15.07.2024	0100	56313180	HLI0550	D388924011	0013388924	            0011	08.07.2024	       0
		4051482019		10359787	4537044033	00001	2287945	Dia blade 300/25 SPX univ A	8330	0001	             8	PC	PC	000010	680907521	58128765	HLI0550	8300	L05	9999	8330	11.09.2024	15.07.2024	0170	56313180	HLI0550	D388924018	0013388924	            0018	08.07.2024	       0
		4051482019		10359787	4537044034	00001	2270778	Diamond cup DG-CW 150/6" SPX univ	8330	0001	            30	PC	PC	000010	680907522	58128978	HLI0550	8300	L05	9999	8330	11.09.2024	15.07.2024	0180	56313180	HLI0550	D388924019	0013388924	            0019	08.07.2024	       0
		4051482019		10359787	4537044035	00001	2151586	Hammer drill bit TE-CX 14/17 MP8	8330	0001	            40	PC	PC	000010	680907523	58128977	HLI0550	8300	L09	9999	8330	11.09.2024	15.07.2024	0010	56313463	HLI0550	D390295001	0013390295	            0001	08.07.2024	       0
		4051482019		10359787	4537044036	00001	2151626	Hammer drill bit TE-CX 12/17	8330	0001	            10	PC	PC	000010	680907524	58128977	HLI0550	8300	L09	9999	8330	11.09.2024	15.07.2024	0030	56313463	HLI0550	D390295003	0013390295	            0003	08.07.2024	       0
		4051482019		10359787	4537044037	00001	2206745	Hammer drill bit TE-CX 18/22	8330	0001	             4	PC	PC	000010	680907525	58128977	HLI0550	8300	L09	9999	8330	11.09.2024	15.07.2024	0010	56313519	HLI0550	D390665001	0013390665	            0001	08.07.2024	       0
		4051482019		10359787	4537044039	00001	409175	Hammer drill bit TE-CX 8/12	8330	0001	            90	PC	PC	000010	680907526	58128765	HLI0550	8300	L09	9999	8330	11.09.2024	15.07.2024	0010	56313544	HLI0550	D389190001	0013389190	            0001	08.07.2024	       0
		4051482019		10359787	4537044040	00001	433788	Hammer drill bit TE-CX 6/12	8330	0001	           180	PC	PC	000010	680907527	58128978	HLI0550	8300	L09	9999	8330	11.09.2024	15.07.2024	0030	56313544	HLI0550	D389190003	0013389190	            0003	08.07.2024	       0
		4051482019		10359787	4537044041	00001	435000	Hammer drill bit TE-CX 1/4"-6"	8330	0001	           180	PC	PC	000010	680907528	58128765	HLI0550	8300	L09	9999	8330	11.09.2024	15.07.2024	0040	56313544	HLI0550	D389190004	0013389190	            0004	08.07.2024	       0
		4051482019		10359787	4537044042	00001	2022008	Hammer drill bit TE-CX 10/17 MP8	8330	0001	           288	PC	PC	000010	680907529	58128765	HLI0550	8300	L09	9999	8330	11.09.2024	15.07.2024	0050	56313544	HLI0550	D389190005	0013389190	            0005	08.07.2024	       0
		4051482019		10359787	4537044043	00001	435007	Hammer drill bit TE-CX 3/8"-12"	8330	0001	            50	PC	PC	000010	680907530	58128977	HLI0550	8300	L09	9999	8330	11.09.2024	15.07.2024	0060	56313544	HLI0550	D389190006	0013389190	            0006	08.07.2024	       0
		4051482019		10359787	4537044044	00001	282301	Flat chisel TE-CX FM 25	8330	0001	            16	PC	PC	000010	680907531	58128977	HLI0550	8300	L09	9999	8330	11.09.2024	15.07.2024	0080	56313544	HLI0550	D389190008	0013389190	            0008	08.07.2024	       0
		4051482019		10359787	4537044045	00001	282299	Pointed chisel TE-CX SM 25	8330	0001	            60	PC	PC	000010	680907532	58129010	HLI0550	8300	L09	9999	8330	11.09.2024	15.07.2024	0090	56313544	HLI0550	D389190009	0013389190	            0009	08.07.2024	       0
		4051482019		10359787	4537044046	00001	2168891	Flat chisel TE-SX FM 43 (4)	8330	0001	           112	PC	PC	000010	680907533	58128892	HLI0550	8300	L09	9999	8330	11.09.2024	15.07.2024	0120	56313544	HLI0550	D389190012	0013389190	            0012	08.07.2024	       0
		4051482019		10359787	4537044047	00001	2207028	Bushing tool TE-YX BT 4x4	8330	0001	             1	PC	PC	000010	680907534	58128977	HLI0550	8300	L09	9999	8330	11.09.2024	15.07.2024	0130	56313544	HLI0550	D389190013	0013389190	            0013	08.07.2024	       0
		4051482019		10359787	4537044048	00001	2207028	Bushing tool TE-YX BT 4x4	8330	0001	            10	PC	PC	000010	680907535	58128765	HLI0550	8300	L09	9999	8330	11.09.2024	15.07.2024	0130	56313544	HLI0550	D389190013	0013389190	            0013	08.07.2024	       0
		4051482019		10359787	4537044049	00001	2254657	Pointed chisel TE-HX SM 40	8330	0001	            96	PC	PC	000010	680907536	58128891	HLI0550	8300	L09	9999	8330	11.09.2024	15.07.2024	0140	56313544	HLI0550	D389190014	0013389190	            0014	08.07.2024	       0
		4051482019		10359787	4537044050	00001	2254657	Pointed chisel TE-HX SM 40	8330	0001	            72	PC	PC	000010	680907538	58128993	HLI0550	8300	L09	9999	8330	11.09.2024	15.07.2024	0140	56313544	HLI0550	D389190014	0013389190	            0014	08.07.2024	       0
		4051482019		10359787	4537044051	00001	2254657	Pointed chisel TE-HX SM 40	8330	0001	            48	PC	PC	000010	680907539	58128892	HLI0550	8300	L09	9999	8330	11.09.2024	15.07.2024	0140	56313544	HLI0550	D389190014	0013389190	            0014	08.07.2024	       0
		4051482019		10359787	4537044052	00001	2241986	Pointed chisel TE-YX SM 36 (4)	8330	0001	            16	PC	PC	000010	680907540	58128978	HLI0550	8300	L09	9999	8330	11.09.2024	15.07.2024	0150	56313544	HLI0550	D389190015	0013389190	            0015	08.07.2024	       0
		4051482019		10359787	4537044053	00001	2241986	Pointed chisel TE-YX SM 36 (4)	8330	0001	            32	PC	PC	000010	680907541	58129010	HLI0550	8300	L09	9999	8330	11.09.2024	15.07.2024	0150	56313544	HLI0550	D389190015	0013389190	            0015	08.07.2024	       0
		4051482019		10359787	4537044054	00001	2241992	Flat chisel TE-YX FM 50	8330	0001	           120	PC	PC	000010	680907542	58128762	HLI0550	8300	L09	9999	8330	11.09.2024	15.07.2024	0170	56313544	HLI0550	D389190017	0013389190	            0017	08.07.2024	       0
		4051482019		10359787	4537044055	00001	2341239	Pointed chisel TE-SX SM 50	8330	0001	            60	PC	PC	000010	680907544	58128762	HLI0550	8300	L09	9999	8330	11.09.2024	15.07.2024	0190	56313544	HLI0550	D389190019	0013389190	            0019	08.07.2024	       0
		4051482019		10359787	4537044056	00001	2254752	Pointed chisel TE-H SM 50	8330	0001	            16	PC	PC	000010	680907545	58128978	HLI0550	8300	L09	9999	8330	11.09.2024	15.07.2024	0210	56313544	HLI0550	D389190021	0013389190	            0021	08.07.2024	       0
		4051482019		10359787	4537044057	00001	2254752	Pointed chisel TE-H SM 50	8330	0001	             4	PC	PC	000010	680907546	58129010	HLI0550	8300	L09	9999	8330	11.09.2024	15.07.2024	0210	56313544	HLI0550	D389190021	0013389190	            0021	08.07.2024	       0
		4051482019		10359787	4537044058	00001	2254774	Flat chisel TE-HX FM 40	8330	0001	             4	PC	PC	000010	680907547	58128978	HLI0550	8300	L09	9999	8330	11.09.2024	15.07.2024	0220	56313544	HLI0550	D389190022	0013389190	            0022	08.07.2024	       0
		4051482019		10359787	4537044059	00001	2254774	Flat chisel TE-HX FM 40	8330	0001	            16	PC	PC	000010	680907548	58129010	HLI0550	8300	L09	9999	8330	11.09.2024	15.07.2024	0220	56313544	HLI0550	D389190022	0013389190	            0022	08.07.2024	       0
		4051482020		10359787	4537044060	00001	2323247	Threaded stud X-M6-8-52 DP7 SCT B3	8330	0001	         1.100	PC	PC	000010	680907549	58128717	HLI0550	8300	L04	9999	8330	11.09.2024	15.07.2024	0020	56180746	HLI0550	D117262002	0013117262	            0002	29.02.2024	     119
		4051482020		10359787	4537044061	00001	2369713	Angle grinder AG 125-20SE 230V box	8330	0001	            27	PC	PC	000010	680907550	58127380	HLI0550	8300	L08	9999	8330	11.09.2024	15.07.2024	0010	56186312	HLI0550	D135629001	0013135629	            0001	07.03.2024	     119
		4051482020		10359787	4537044062	00001	2261812	Change module 102 P-U abras	8330	0001	            12	PC	PC	000010	680907551	58128718	HLI0550	8300	L05	9999	8330	11.09.2024	15.07.2024	0010	56263500	HLI0550	D285912001	0013285912	            0001	21.05.2024	       7
		4051482021		10359787	4537044063	00001	2157748	Change module 47 SPX/SP-H abras	8330	0001	            24	PC	PC	000010	680907552	58128781	HLI0550	8300	L05	9999	8330	11.09.2024	15.07.2024	0140	56265721	HLI0550	D289752027	0013289752	            0027	23.05.2024	      14
		4051482021		10359787	4537044064	00001	2124716	Diamond coring tool DD 200 230V BS	8330	0001	             1	PC	PC	000010	680907553	58128155	HLI0550	8300	L05	9999	8330	11.09.2024	15.07.2024	0010	56267813	HLI0550	D293092001	0013293092	            0001	24.05.2024	      21
		4051482021		10359787	4537044065	00001	2124716	Diamond coring tool DD 200 230V BS	8330	0001	             1	PC	PC	000010	680907554	58128598	HLI0550	8300	L05	9999	8330	11.09.2024	15.07.2024	0010	56267813	HLI0550	D293092001	0013293092	            0001	24.05.2024	      21
		4051482021		10359787	4537044066	00001	2160049	Combihammer TE 30-AVR 220V case	8330	0001	             9	PC	PC	000010	680907555	58127326	HLI0550	8300	L08	9999	8330	11.09.2024	15.07.2024	0010	56268476	HLI0550	D293637002	0013293637	            0002	24.05.2024	       0
		4051482021		10359787	4537044067	00001	2128232	Combihammer TE 50-AVR 220 V	8330	0001	            10	PC	PC	000010	680907556	58127323	HLI0550	8300	L08	9999	8330	11.09.2024	15.07.2024	0020	56268476	HLI0550	D293637003	0013293637	            0003	24.05.2024	       0
		4051482021		10359787	4537044068	00001	2128232	Combihammer TE 50-AVR 220 V	8330	0001	             2	PC	PC	000010	680907557	58127382	HLI0550	8300	L08	9999	8330	11.09.2024	15.07.2024	0020	56268476	HLI0550	D293637003	0013293637	            0003	24.05.2024	       0
		4051482021		10359787	4537044069	00001	2151586	Hammer drill bit TE-CX 14/17 MP8	8330	0001	             8	PC	PC	000010	680907558	58128709	HLI0550	8300	L09	9999	8330	11.09.2024	15.07.2024	0030	56268476	HLI0550	D293637004	0013293637	            0004	24.05.2024	       0
		4051482021		10359787	4537044070	00001	2107707	Circ. saw blade SCB WU 190x30 z18	8330	0001	            15	PC	PC	000010	680907559	58128781	HLI0550	8300	L09	9999	8330	11.09.2024	15.07.2024	0030	56271647	HLI0550	D300650006	0013300650	            0006	28.05.2024	       0
		4051482021		10359787	4537044071	00001	3739	Spring clip	8330	0001	            90	PC	PC	000010	680907560	58128709	HLI0550	8300	L04	9999	8330	11.09.2024	15.07.2024	0100	56274048	HLI0550	D304711044	0013304711	            0044	30.05.2024	       0
		4051482021		10359787	4537044072	00001	259271	Cleaning kit DX	8330	0001	             1	PC	PC	000010	680907561	58128709	HLI0550	8300	L04	9999	8330	11.09.2024	15.07.2024	0110	56274048	HLI0550	D304711045	0013304711	            0045	30.05.2024	       0
		4051482021		10359787	4537044073	00001	2126539	Dust extr. hood DG-EX125/ 5" grinding	8330	0001	             1	PC	PC	000010	680907562	58128709	HLI0550	8300	L05	9999	8330	11.09.2024	15.07.2024	0170	56274048	HLI0550	D304711056	0013304711	            0056	30.05.2024	       0
		4051482021		10359787	4537044074	00001	409313	Piston 36/DNI packed	8330	0001	            25	PC	PC	000010	680907563	58128709	HLI0550	8300	L04	9999	8330	11.09.2024	15.07.2024	0180	56274048	HLI0550	D304711060	0013304711	            0060	30.05.2024	       0
		4051482021		10359787	4537044075	00001	2124812	Diamond coring tool DD 200 220V BL	8330	0001	             4	PC	PC	000010	680907564	58127327	HLI0550	8300	L05	9999	8330	11.09.2024	15.07.2024	0250	56274048	HLI0550	D304711079	0013304711	            0079	30.05.2024	       0
		4051482021		10359787	4537044076	00001	2157748	Change module 47 SPX/SP-H abras	8330	0001	            24	PC	PC	000010	680907565	58128781	HLI0550	8300	L05	9999	8330	11.09.2024	15.07.2024	0440	56274048	HLI0550	D304711012	0013304711	            0012	30.05.2024	-14
		4051482021		10359787	4537044077	00001	2077893	Dispenser CFS-DISP 29oz CART	8330	0001	            20	PC	PC	000010	680907566	58128781	HLI0550	8300	L03	9999	8330	11.09.2024	15.07.2024	0090	56274123	HLI0550	D304769012	0013304769	            0012	31.05.2024	       0
		4051482021		10359787	4537044078	00001	2341253	Pointed chisel TE-SX SM 50 (4)	8330	0001	           112	PC	PC	000010	680907567	58128932	HLI0550	8300	L09	9999	8330	11.09.2024	15.07.2024	0120	56276851	HLI0550	D315834020	0013315834	            0020	03.06.2024	       0
		4051482021		10359787	4537044079	00001	409192	Hammer drill bit TE-CX 10/47	8330	0001	             8	PC	PC	000010	680907568	58128709	HLI0550	8300	L09	9999	8330	11.09.2024	15.07.2024	0080	56278558	HLI0550	D319098013	0013319098	            0013	04.06.2024	      28
		4051482021		10359787	4537044080	00001	2386420	Tool holder EXO-T-22 I-shaped	8330	0001	             5	PC	PC	000010	680907569	58128709	HLI0550	8300	L05	9999	8330	11.09.2024	15.07.2024	0010	56279433	HLI0550	D317979002	0013317979	            0002	04.06.2024	      28
		4051482021		10359787	4537044081	00001	409192	Hammer drill bit TE-CX 10/47	8330	0001	             4	PC	PC	000010	680907570	58128709	HLI0550	8300	L09	9999	8330	11.09.2024	15.07.2024	0010	56283005	HLI0550	D325634001	0013325634	            0001	07.06.2024	      28
		4051482021		10359787	4537044082	00001	2134761	Rotating laser PR 30-HVS A12	8330	0001	            16	PC	PC	000010	680907571	58127328	HLI0550	8300	L07	9999	8330	11.09.2024	15.07.2024	0350	56274048	HLI0550	D304711008	0013304711	            0008	30.05.2024	       0
		4051482021		10359787	4537044083	00001	2153651	ON!Track tag AI L5	8330	0001	           100	PC	PC	000010	680907572	58128710	HLI0550	8300	L13	9999	8330	11.09.2024	15.07.2024	0260	56274048	HLI0550	D304711081	0013304711	            0081	30.05.2024	       0
		4051482022		10359787	4537044084	00001	2101255	Receptacle X-PT B3	8330	0001	             2	PC	PC	000010	680907573	58127814	HLI0550	8300	L04	9999	8330	11.09.2024	15.07.2024	0010	56311083	HLI0550	D384581001	0013384581	            0001	04.07.2024	       0
		4051484909		10373381	4537081761	00001	2254779	Flat chisel TE-H FM 50	8330	0001	             8	PC	PC	000010	680937913	58134730	HLI0550	8300	L09	9999	8330	25.09.2024	22.07.2024	0220	56320710	HLI0550	D403852008	0013403852	            0008	15.07.2024	       0
		4051484909		10373381	4537081774	00001	2112757	Stop drill bit HKD-TE-CX-B M10 3/8"x30	8330	0001	             1	PC	PC	000010	680937918	58134833	HLI0550	8300	L09	9999	8330	25.09.2024	22.07.2024	0040	56320710	HLI0550	D403852005	0013403852	            0005	15.07.2024	       0
		4051484909		10373381	4537081777	00001	2206737	Hammer drill bit TE-CX 28/27	8330	0001	             1	PC	PC	000010	680937919	58134833	HLI0550	8300	L09	9999	8330	25.09.2024	22.07.2024	0050	56320710	HLI0550	D403852006	0013403852	            0006	15.07.2024	       0
		4051484909		10373381	4537081781	00001	2018961	Hammer drill bit TE-YD 7/8"-24"	8330	0001	             2	PC	PC	000010	680937921	58134833	HLI0550	8300	L09	9999	8330	25.09.2024	22.07.2024	0080	56320710	HLI0550	D403852012	0013403852	            0012	15.07.2024	       0
		4051484909		10373381	4537081795	00001	2168890	Flat chisel TE-SX FM 36 (4)	8330	0001	             8	PC	PC	000010	680937927	58134834	HLI0550	8300	L09	9999	8330	25.09.2024	22.07.2024	0140	56320710	HLI0550	D403852023	0013403852	            0023	15.07.2024	       0
		4051484909		10373381	4537081800	00001	2297644	Friction ring 1/2" incl. O-Ring MP5	8330	0001	            10	PC	PC	000010	680937929	58134833	HLI0550	8300	L15	9999	8330	25.09.2024	22.07.2024	0160	56320710	HLI0550	D403852027	0013403852	            0027	15.07.2024	       0
		4051484909		10373381	4537081803	00001	2222131	Recip. saw blade SP 30 6 (5) w/m	8330	0001	             5	PC	PC	000010	680937930	58134833	HLI0550	8300	L09	9999	8330	25.09.2024	22.07.2024	0170	56320710	HLI0550	D403852028	0013403852	            0028	15.07.2024	       0
		4051484909		10373381	4537081815	00001	2162025	Carbon brush TE 800 / AVR 220 - 240V	8330	0001	            97	PC	PC	000010	680937936	58134709	HLI0550	8300	L08	9999	8330	25.09.2024	22.07.2024	0010	56288770	HLI0550	D335878001	0013335878	            0001	13.06.2024	      28
		4051484909		10373381	4537081817	00001	2157744	Change module 35 SPX/SP-H abras	8330	0001	             1	PC	PC	000010	680937938	58134709	HLI0550	8300	L05	9999	8330	25.09.2024	22.07.2024	0170	56290257	HLI0550	D337863012	0013337863	            0012	14.06.2024	       0
		4051484909		10373381	4537081820	00001	2157744	Change module 35 SPX/SP-H abras	8330	0001	             1	PC	PC	000010	680937941	58134709	HLI0550	8300	L05	9999	8330	25.09.2024	22.07.2024	0140	56295031	HLI0550	D348763011	0013348763	            0011	20.06.2024	-7
		4051484909		10373381	4537081821	00001	2158334	Change module 77 SPX/SP-H abras	8330	0001	             1	PC	PC	000010	680937942	58134709	HLI0550	8300	L05	9999	8330	25.09.2024	22.07.2024	0150	56295031	HLI0550	D348763010	0013348763	            0010	20.06.2024	-14
		4051484909		10373381	4537081822	00001	2157747	Change module 42 SPX/SP-H abras	8330	0001	             4	PC	PC	000010	680937943	58134709	HLI0550	8300	L05	9999	8330	25.09.2024	22.07.2024	0180	56295031	HLI0550	D348763001	0013348763	            0001	20.06.2024	-7
		4051484909		10373381	4537081828	00001	2150732	Cutting disc AC-D SP 180x1.5	8330	0001	           600	PC	PC	000010	680937947	58134722	HLI0550	8300	L09	9999	8330	25.09.2024	22.07.2024	0070	56296328	HLI0550	D352701010	0013352701	            0010	20.06.2024	       0
		4051484909		10373381	4537081835	00001	2261455	Core bit BI 22/320 SP-L abras	8330	0001	            16	PC	PC	000010	680937950	58134723	HLI0550	8300	L05	9999	8330	25.09.2024	22.07.2024	0130	56302456	HLI0550	D364782020	0013364782	            0020	27.06.2024	      14
		4051484909		10373381	4537081838	00001	2261782	Core bit BI 18/320 SP-L abras	8330	0001	            16	PC	PC	000010	680937951	58134723	HLI0550	8300	L05	9999	8330	25.09.2024	22.07.2024	0140	56302456	HLI0550	D364782010	0013364782	            0010	27.06.2024	-7
		4051484909		10373381	4537081841	00001	2006978	Vacuum pump DD VP-U 220V	8330	0001	             1	PC	PC	000010	680937952	58134723	HLI0550	8300	L05	9999	8330	25.09.2024	22.07.2024	0010	56302477	HLI0550	D364670001	0013364670	            0001	27.06.2024	       7
		4051484909		10373381	4537081848	00001	2158334	Change module 77 SPX/SP-H abras	8330	0001	             2	PC	PC	000010	680937955	58134709	HLI0550	8300	L05	9999	8330	25.09.2024	22.07.2024	0190	56302477	HLI0550	D364670003	0013364670	            0003	27.06.2024	-28
		4051484909		10373381	4537081851	00001	2158334	Change module 77 SPX/SP-H abras	8330	0001	             2	PC	PC	000010	680937956	58134709	HLI0550	8300	L05	9999	8330	25.09.2024	22.07.2024	0230	56302477	HLI0550	D364670030	0013364670	            0030	27.06.2024	-21
		4051484909		10373381	4537081853	00001	2261781	Core bit BI 16/320 SP-L abras	8330	0001	            16	PC	PC	000010	680937957	58134723	HLI0550	8300	L05	9999	8330	25.09.2024	22.07.2024	0260	56302477	HLI0550	D364670026	0013364670	            0026	27.06.2024	      14
		4051484909		10373381	4537081859	00001	2158334	Change module 77 SPX/SP-H abras	8330	0001	             2	PC	PC	000010	680937962	58134709	HLI0550	8300	L05	9999	8330	25.09.2024	22.07.2024	0060	56312176	HLI0550	D386374003	0013386374	            0003	06.07.2024	-35
		4051484909		10373381	4537081861	00001	2158338	Change module 102 SPX/SP-H abras	8330	0001	             2	PC	PC	000010	680937963	58134709	HLI0550	8300	L05	9999	8330	25.09.2024	22.07.2024	0080	56312176	HLI0550	D386374008	0013386374	            0008	06.07.2024	-35
		4051484909		10373381	4537081867	00001	2179276	Fastener guide X-FG B3-ME 02 packed	8330	0001	            20	PC	PC	000010	680937968	58134709	HLI0550	8300	L04	9999	8330	25.09.2024	22.07.2024	0020	56312180	HLI0550	D386502006	0013386502	            0006	06.07.2024	       0
		4051484909		10373381	4537081868	00001	3739	Spring clip	8330	0001	            90	PC	PC	000010	680937969	58134709	HLI0550	8300	L04	9999	8330	25.09.2024	22.07.2024	0030	56312180	HLI0550	D386502011	0013386502	            0011	06.07.2024	       0
		4051484909		10373381	4537081881	00001	2351368	Cordl. circular saw SC 4MR-22 case	8330	0001	             4	PC	PC	000010	680937975	58133653	HLI0550	8300	L15	9999	8330	25.09.2024	22.07.2024	0040	56313180	HLI0550	D388924004	0013388924	            0004	08.07.2024	       0
		4051484909		10373381	4537081884	00001	2151586	Hammer drill bit TE-CX 14/17 MP8	8330	0001	             8	PC	PC	000010	680937976	58134709	HLI0550	8300	L09	9999	8330	25.09.2024	22.07.2024	0020	56313463	HLI0550	D390295002	0013390295	            0002	08.07.2024	       0
		4051484909		10373381	4537081901	00001	2241987	Pointed chisel TE-YX SM 50 (4)	8330	0001	            96	PC	PC	000010	680937982	58134827	HLI0550	8300	L09	9999	8330	25.09.2024	22.07.2024	0160	56313544	HLI0550	D389190016	0013389190	            0016	08.07.2024	       0
		4051484909		10373381	4537081922	00001	2124716	Diamond coring tool DD 200 230V BS	8330	0001	             4	PC	PC	000010	680937992	58133654	HLI0550	8300	L05	9999	8330	25.09.2024	22.07.2024	0030	56319321	HLI0550	D399178008	0013399178	            0008	13.07.2024	       0
		4051484910		10373381	4537081931	00001	2341099	Hammer drill bit TE-CX 5/8"-8"	8330	0001	             5	PC	PC	000010	680937996	58134204	HLI0550	8300	L09	9999	8330	25.09.2024	22.07.2024	0090	56226152	HLI0550	D216927013	0013216927	            0013	15.04.2024	      56
		4051484910		10373381	4537081933	00001	2341099	Hammer drill bit TE-CX 5/8"-8"	8330	0001	            36	PC	PC	000010	680937997	58134291	HLI0550	8300	L09	9999	8330	25.09.2024	22.07.2024	0090	56226152	HLI0550	D216927013	0013216927	            0013	15.04.2024	      56
		4051484910		10373381	4537081936	00001	2341099	Hammer drill bit TE-CX 5/8"-8"	8330	0001	            11	PC	PC	000010	680937998	58134204	HLI0550	8300	L09	9999	8330	25.09.2024	22.07.2024	0140	56226152	HLI0550	D216927010	0013216927	            0010	15.04.2024	      70
		4051484910		10373381	4537081939	00001	2341099	Hammer drill bit TE-CX 5/8"-8"	8330	0001	            20	PC	PC	000010	680937999	58134204	HLI0550	8300	L09	9999	8330	25.09.2024	22.07.2024	0040	56232777	HLI0550	D226779009	0013226779	            0009	19.04.2024	      42
		4051484910		10373381	4537081941	00001	2341099	Hammer drill bit TE-CX 5/8"-8"	8330	0001	            24	PC	PC	000010	680938000	58134204	HLI0550	8300	L09	9999	8330	25.09.2024	22.07.2024	0030	56240869	HLI0550	D241507008	0013241507	            0008	26.04.2024	      49
		4051484910		10373381	4537081944	00001	2341099	Hammer drill bit TE-CX 5/8"-8"	8330	0001	            16	PC	PC	000010	680938001	58134291	HLI0550	8300	L09	9999	8330	25.09.2024	22.07.2024	0030	56240869	HLI0550	D241507008	0013241507	            0008	26.04.2024	      49
		4051484910		10373381	4537081947	00001	2341099	Hammer drill bit TE-CX 5/8"-8"	8330	0001	            20	PC	PC	000010	680938002	58134291	HLI0550	8300	L09	9999	8330	25.09.2024	22.07.2024	0060	56240869	HLI0550	D241507004	0013241507	            0004	26.04.2024	      35
		4051484910		10373381	4537081949	00001	2341099	Hammer drill bit TE-CX 5/8"-8"	8330	0001	            60	PC	PC	000010	680938003	58134215	HLI0550	8300	L09	9999	8330	25.09.2024	22.07.2024	0020	56242623	HLI0550	D245716003	0013245716	            0003	29.04.2024	      35
		4051484910		10373381	4537081950	00001	2331189	Dia blade 110/20/16 (6) P univ	8330	0001	           150	PC	PC	000010	680938004	58134731	HLI0550	8300	L05	9999	8330	25.09.2024	22.07.2024	0010	56227437	HLI0550	D219066001	0013219066	            0001	16.04.2024	      28
		4051484910		10373381	4537081951	00001	2331189	Dia blade 110/20/16 (6) P univ	8330	0001	           540	PC	PC	000010	680938005	58134731	HLI0550	8300	L05	9999	8330	25.09.2024	22.07.2024	0020	56240273	HLI0550	D240749002	0013240749	            0002	26.04.2024	      28
		4051484910		10373381	4537081952	00001	2331189	Dia blade 110/20/16 (6) P univ	8330	0001	            30	PC	PC	000010	680938006	58134731	HLI0550	8300	L05	9999	8330	25.09.2024	22.07.2024	0060	56242901	HLI0550	D246302002	0013246302	            0002	30.04.2024	      70
		4051484911		10373381	4537081953	00001	2349158	Grating disc X-FCM-R 28/33	8330	0001	         2.400	PC	PC	000010	680938007	58134724	HLI0550	8300	L04	9999	8330	25.09.2024	22.07.2024	0060	56262311	HLI0550	D284295	0013284295	            0000	20.05.2024	       0
		4051484911		10373381	4537081954	00001	2349158	Grating disc X-FCM-R 28/33	8330	0001	         9.600	PC	PC	000010	680938008	58134725	HLI0550	8300	L04	9999	8330	25.09.2024	22.07.2024	0060	56262311	HLI0550	D284295	0013284295	            0000	20.05.2024	       0
		4051484911		10373381	4537081955	00001	2349158	Grating disc X-FCM-R 28/33	8330	0001	         1.200	PC	PC	000010	680938009	58134726	HLI0550	8300	L04	9999	8330	25.09.2024	22.07.2024	0060	56262311	HLI0550	D284295	0013284295	            0000	20.05.2024	       0
		4051484911		10373381	4537081956	00001	2157748	Change module 47 SPX/SP-H abras	8330	0001	            24	PC	PC	000010	680938010	58134726	HLI0550	8300	L05	9999	8330	25.09.2024	22.07.2024	0270	56274032	HLI0550	D304811031	0013304811	            0031	30.05.2024	      14
		4051484911		10373381	4537081957	00001	2124812	Diamond coring tool DD 200 220V BL	8330	0001	             4	PC	PC	000010	680938011	58133657	HLI0550	8300	L05	9999	8330	25.09.2024	22.07.2024	0160	56274048	HLI0550	D304711055	0013304711	            0055	30.05.2024	       0
		4051484911		10373381	4537081958	00001	2008061	Diamond coring tool DD 110-D 220V	8330	0001	            10	PC	PC	000010	680938012	58133656	HLI0550	8300	L05	9999	8330	25.09.2024	22.07.2024	0210	56274048	HLI0550	D304711072	0013304711	            0072	30.05.2024	       0
		4051484911		10373381	4537081959	00001	2167744	Breaker TE 1000-AVR 230V univ cord	8330	0001	            10	PC	PC	000010	680938013	58133727	HLI0550	8300	L08	9999	8330	25.09.2024	22.07.2024	0130	56276851	HLI0550	D315834021	0013315834	            0021	03.06.2024	       0
		4051484911		10373381	4537081960	00001	2341252	Pointed chisel TE-SX SM 43 (4)	8330	0001	           168	PC	PC	000010	680938014	58134935	HLI0550	8300	L09	9999	8330	25.09.2024	22.07.2024	0040	56278558	HLI0550	D319098009	0013319098	            0009	04.06.2024	       0
		4051484911		10373381	4537081961	00001	2254657	Pointed chisel TE-HX SM 40	8330	0001	            24	PC	PC	000010	680938015	58134935	HLI0550	8300	L09	9999	8330	25.09.2024	22.07.2024	0070	56278558	HLI0550	D319098012	0013319098	            0012	04.06.2024	       0
		4051484911		10373381	4537081962	00001	2241984	Pointed chisel TE-YX SM 50	8330	0001	            90	PC	PC	000010	680938016	58134726	HLI0550	8300	L09	9999	8330	25.09.2024	22.07.2024	0010	56280095	HLI0550	D321725002	0013321725	            0002	05.06.2024	       0
		4051484911		10373381	4537081963	00001	2254752	Pointed chisel TE-H SM 50	8330	0001	            16	PC	PC	000010	680938017	58134726	HLI0550	8300	L09	9999	8330	25.09.2024	22.07.2024	0080	56283005	HLI0550	D325634013	0013325634	            0013	07.06.2024	       0
		4051484911		10373381	4537081964	00001	2261819	Change module 162 P-U abras	8330	0001	            27	PC	PC	000010	680938018	58134732	HLI0550	8300	L05	9999	8330	25.09.2024	22.07.2024	0010	56266755	HLI0550	D291466001	0013291466	            0001	23.05.2024	       0
		4051484912		10373381	4537081965	00001	2179725	Recip. saw blade SP 30 10 (50) metal	8330	0001	           100	PC	PC	000010	680938019	58134839	HLI0550	8300	L09	9999	8330	25.09.2024	22.07.2024	0210	56320710	HLI0550	D403852022	0013403852	            0022	15.07.2024	       0
		4051487502		10387792	4537117558	00001	2097583	Rotating laser PR 300-HV2S	8330	0001	             2	PC	PC	000010	680967137	58139108	HLI0550	8300	L07	9999	8330	17.09.2024	29.07.2024	0010	56327933	HLI0550	D418058005	0013418058	            0005	22.07.2024	       0
		4051487502		10387792	4537117559	00001	2342040	Runtime tag AI T320R	8330	0001	           100	PC	PC	000010	680967138	58140040	HLI0550	8300	L13	9999	8330	17.09.2024	29.07.2024	0230	56327933	HLI0550	D418058023	0013418058	            0023	22.07.2024	       0
		4051487502		10387792	4537117560	00001	2153650	ON!Track tag AI L2	8330	0001	           500	PC	PC	000010	680967139	58140116	HLI0550	8300	L13	9999	8330	17.09.2024	29.07.2024	0050	56326503	HLI0550	D413136007	0013413136	            0007	20.07.2024	       0
		4051487502		10387792	4537117561	00001	2261738	Core bit B 202/430+ P-U abras	8330	0001	             3	PC	PC	000010	680967140	58139534	HLI0550	8300	L05	9999	8330	17.09.2024	29.07.2024	0070	56327933	HLI0550	D418058021	0013418058	            0021	22.07.2024	       0
		4051487502		10387792	4537117562	00001	2194555	Cutting disc EQD SPX-SL 150 (6) univ	8330	0001	            12	PC	PC	000010	680967141	58140108	HLI0550	8300	L05	9999	8330	17.09.2024	29.07.2024	0190	56327933	HLI0550	D418058038	0013418058	            0038	22.07.2024	       0
		4051487502		10387792	4537117563	00001	2039260	Nut setter S-SY SDT	8330	0001	             1	PC	PC	000010	680967142	58140108	HLI0550	8300	L10	9999	8330	17.09.2024	29.07.2024	0200	56327933	HLI0550	D418058030	0013418058	            0030	22.07.2024	       0
		4051487502		10387792	4537117564	00001	2217521	Stand-up handle SDT 9 magazine	8330	0001	             1	PC	PC	000010	680967143	58140108	HLI0550	8300	L10	9999	8330	17.09.2024	29.07.2024	0240	56327933	HLI0550	D418058010	0013418058	            0010	22.07.2024	       0
		4051487502		10387792	4537117565	00001	282987	Chuck DD-CS-BL	8330	0001	             3	PC	PC	000010	680967144	58140126	HLI0550	8300	L05	9999	8330	17.09.2024	29.07.2024	0260	56327933	HLI0550	D418058043	0013418058	            0043	22.07.2024	       0
		4051487502		10387792	4537117566	00001	2076515	Core bit C+ 32/300 SPX-T	8330	0001	             1	PC	PC	000010	680967145	58140108	HLI0550	8300	L05	9999	8330	17.09.2024	29.07.2024	0290	56327933	HLI0550	D418058002	0013418058	            0002	22.07.2024	       0
		4051487502		10387792	4537117567	00001	2076515	Core bit C+ 32/300 SPX-T	8330	0001	             4	PC	PC	000010	680967146	58140126	HLI0550	8300	L05	9999	8330	17.09.2024	29.07.2024	0290	56327933	HLI0550	D418058002	0013418058	            0002	22.07.2024	       0
		4051487502		10387792	4537117568	00001	2076518	Core bit C+ 35/300 SPX-T	8330	0001	             1	PC	PC	000010	680967147	58140108	HLI0550	8300	L05	9999	8330	17.09.2024	29.07.2024	0300	56327933	HLI0550	D418058031	0013418058	            0031	22.07.2024	       0
		4051487502		10387792	4537117569	00001	2158344	Change module 152 SPX/SP-H abras	8330	0001	             1	PC	PC	000010	680967148	58140108	HLI0550	8300	L05	9999	8330	17.09.2024	29.07.2024	0310	56327933	HLI0550	D418058001	0013418058	            0001	22.07.2024	       0
		4051487502		10387792	4537117570	00001	2158347	Change module 182 SPX/SP-H abras	8330	0001	             1	PC	PC	000010	680967149	58140108	HLI0550	8300	L05	9999	8330	17.09.2024	29.07.2024	0330	56327933	HLI0550	D418058044	0013418058	            0044	22.07.2024	       0
		4051487502		10387792	4537117571	00001	24669	Dispenser CS 270-P1	8330	0001	            10	PC	PC	000010	680967150	58140705	HLI0550	8300	L03	9999	8330	17.09.2024	29.07.2024	0010	56327862	HLI0550	D417908001	0013417908	            0001	22.07.2024	       0
		4051487502		10387792	4537117573	00001	24669	Dispenser CS 270-P1	8330	0001	             5	PC	PC	000010	680967151	58141183	HLI0550	8300	L03	9999	8330	17.09.2024	29.07.2024	0010	56327862	HLI0550	D417908001	0013417908	            0001	22.07.2024	       0
		4051487502		10387792	4537117574	00001	409177	Hammer drill bit TE-CX 8/22	8330	0001	            10	PC	PC	000010	680967152	58140686	HLI0550	8300	L09	9999	8330	17.09.2024	29.07.2024	0020	56327882	HLI0550	D418330002	0013418330	            0002	22.07.2024	       0
		4051487502		10387792	4537117575	00001	2097381	Stop drill bit HKD-TE-CX-B M6x25	8330	0001	             5	PC	PC	000010	680967153	58140686	HLI0550	8300	L09	9999	8330	17.09.2024	29.07.2024	0060	56327882	HLI0550	D418330006	0013418330	            0006	22.07.2024	       0
		4051487502		10387792	4537117576	00001	409176	Hammer drill bit TE-CX 8/17	8330	0001	            10	PC	PC	000010	680967154	58140686	HLI0550	8300	L09	9999	8330	17.09.2024	29.07.2024	0070	56327882	HLI0550	D418330007	0013418330	            0007	22.07.2024	       0
		4051487502		10387792	4537117577	00001	409189	Hammer drill bit TE-CX 10/22	8330	0001	            10	PC	PC	000010	680967155	58140686	HLI0550	8300	L09	9999	8330	17.09.2024	29.07.2024	0110	56327882	HLI0550	D418330011	0013418330	            0011	22.07.2024	       0
		4051487502		10387792	4537117578	00001	433790	Hammer drill bit TE-CX 6/22	8330	0001	            10	PC	PC	000010	680967156	58140686	HLI0550	8300	L09	9999	8330	17.09.2024	29.07.2024	0120	56327882	HLI0550	D418330012	0013418330	            0012	22.07.2024	       0
		4051487502		10387792	4537117579	00001	2194351	Elec. connector X-BT-ER M8/7 SN 8	8330	0001	           600	PC	PC	000010	680967157	58140686	HLI0550	8300	L04	9999	8330	17.09.2024	29.07.2024	0020	56327933	HLI0550	D418058006	0013418058	            0006	22.07.2024	       0
		4051487502		10387792	4537117580	00001	2261257	Filter VC 20/40/150-X univ	8330	0001	             3	PC	PC	000010	680967158	58140686	HLI0550	8300	L05	9999	8330	17.09.2024	29.07.2024	0040	56327933	HLI0550	D418058011	0013418058	            0011	22.07.2024	       0
		4051487502		10387792	4537117581	00001	2261257	Filter VC 20/40/150-X univ	8330	0001	             2	PC	PC	000010	680967159	58141182	HLI0550	8300	L05	9999	8330	17.09.2024	29.07.2024	0040	56327933	HLI0550	D418058011	0013418058	            0011	22.07.2024	       0
		4051487502		10387792	4537117582	00001	2261734	Core bit B 142/430+ P-U abras	8330	0001	             1	PC	PC	000010	680967160	58141182	HLI0550	8300	L05	9999	8330	17.09.2024	29.07.2024	0050	56327933	HLI0550	D418058016	0013418058	            0016	22.07.2024	       0
		4051487502		10387792	4537117583	00001	2221453	Nose piece SDT 9-NP R red	8330	0001	             1	PC	PC	000010	680967161	58140686	HLI0550	8300	L10	9999	8330	17.09.2024	29.07.2024	0080	56327933	HLI0550	D418058024	0013418058	            0024	22.07.2024	       0
		4051487502		10387792	4537117584	00001	2326718	Strip catcher SDT 9-SC	8330	0001	             1	PC	PC	000010	680967162	58140686	HLI0550	8300	L10	9999	8330	17.09.2024	29.07.2024	0090	56327933	HLI0550	D418058026	0013418058	            0026	22.07.2024	       0
		4051487502		10387792	4537117585	00001	2349161	Grating disc X-FCM-R 48/53	8330	0001	           600	PC	PC	000010	680967163	58141091	HLI0550	8300	L04	9999	8330	17.09.2024	29.07.2024	0100	56327933	HLI0550	D418058027	0013418058	            0027	22.07.2024	       0
		4051487502		10387792	4537117586	00001	2349161	Grating disc X-FCM-R 48/53	8330	0001	           200	PC	PC	000010	680967164	58140686	HLI0550	8300	L04	9999	8330	17.09.2024	29.07.2024	0100	56327933	HLI0550	D418058027	0013418058	            0027	22.07.2024	       0
		4051487502		10387792	4537117587	00001	2326719	Strip guide SDT 9-SG	8330	0001	             1	PC	PC	000010	680967165	58140686	HLI0550	8300	L10	9999	8330	17.09.2024	29.07.2024	0110	56327933	HLI0550	D418058028	0013418058	            0028	22.07.2024	       0
		4051487502		10387792	4537117589	00001	333310	Pole tool X-PT 351 7FT assy	8330	0001	             1	PC	PC	000010	680967166	58139539	HLI0550	8300	L04	9999	8330	17.09.2024	29.07.2024	0120	56327933	HLI0550	D418058032	0013418058	            0032	22.07.2024	       0
		4051487502		10387792	4537117590	00001	435442	Batter board receiver holder PRA 751	8330	0001	             1	PC	PC	000010	680967167	58141091	HLI0550	8300	L07	9999	8330	17.09.2024	29.07.2024	0160	56327933	HLI0550	D418058041	0013418058	            0041	22.07.2024	       0
		4051487502		10387792	4537117591	00001	305538	Vacuum baseplate DD-HD30-VBP	8330	0001	             1	PC	PC	000010	680967168	58139883	HLI0550	8300	L05	9999	8330	17.09.2024	29.07.2024	0170	56327933	HLI0550	D418058042	0013418058	            0042	22.07.2024	       0
		4051487502		10387792	4537117592	00001	2146846	Breaker TE 500-AVR 220V	8330	0001	            20	PC	PC	000010	680967169	58139536	HLI0550	8300	L08	9999	8330	17.09.2024	29.07.2024	0120	56288770	HLI0550	D335878021	0013335878	            0021	13.06.2024	       0
		4051487502		10387792	4537117593	00001	2146846	Breaker TE 500-AVR 220V	8330	0001	            10	PC	PC	000010	680967170	58139529	HLI0550	8300	L08	9999	8330	17.09.2024	29.07.2024	0120	56288770	HLI0550	D335878021	0013335878	            0021	13.06.2024	       0
		4051487502		10387792	4537117594	00001	2333179	Cordl. mixer NMX 6-22 box	8330	0001	             5	PC	PC	000010	680967171	58138957	HLI0550	8300	L15	9999	8330	17.09.2024	29.07.2024	0220	56293410	HLI0550	D345300025	0013345300	            0025	18.06.2024	       0
		4051487502		10387792	4537117595	00001	2273256	Hexagon bolt MT-TLB OC	8330	0001	        12.800	PC	PC	000010	680967172	58140093	HLI0550	8300	L14	9999	8330	17.09.2024	29.07.2024	0020	56293597	HLI0550	D345873010	0013345873	            0010	18.06.2024	      28
		4051487502		10387792	4537117596	00001	2273256	Hexagon bolt MT-TLB OC	8330	0001	           800	PC	PC	000010	680967173	58140692	HLI0550	8300	L14	9999	8330	17.09.2024	29.07.2024	0020	56293597	HLI0550	D345873010	0013345873	            0010	18.06.2024	      28
		4051487502		10387792	4537117597	00001	2241994	Flat chisel TE-YX FM 50 (4)	8330	0001	            32	PC	PC	000010	680967174	58140692	HLI0550	8300	L09	9999	8330	17.09.2024	29.07.2024	0040	56296328	HLI0550	D352701005	0013352701	            0005	20.06.2024	       0
		4051487502		10387792	4537117599	00001	2341239	Pointed chisel TE-SX SM 50	8330	0001	            35	PC	PC	000010	680967175	58140692	HLI0550	8300	L09	9999	8330	17.09.2024	29.07.2024	0120	56296328	HLI0550	D352701021	0013352701	            0021	20.06.2024	       0
		4051487502		10387792	4537117600	00001	2157748	Change module 47 SPX/SP-H abras	8330	0001	            24	PC	PC	000010	680967176	58140692	HLI0550	8300	L05	9999	8330	17.09.2024	29.07.2024	0030	56296499	HLI0550	D352820001	0013352820	            0001	21.06.2024	       0
		4051487502		10387792	4537117601	00001	2158348	Change module 202 SPX/SP-H abras	8330	0001	             8	PC	PC	000010	680967177	58140692	HLI0550	8300	L05	9999	8330	17.09.2024	29.07.2024	0010	56302163	HLI0550	D363924001	0013363924	            0001	26.06.2024	      21
		4051487502		10387792	4537117602	00001	2158348	Change module 202 SPX/SP-H abras	8330	0001	             1	PC	PC	000010	680967178	58140683	HLI0550	8300	L05	9999	8330	17.09.2024	29.07.2024	0010	56302163	HLI0550	D363924001	0013363924	            0001	26.06.2024	      21
		4051487502		10387792	4537117603	00001	2042729	Plug seal CFS-T RRS-43/0+5-23 GS	8330	0001	            32	PC	PC	000010	680967179	58140683	HLI0550	8300	L03	9999	8330	17.09.2024	29.07.2024	0020	56302876	HLI0550	D364286002	0013364286	            0002	26.06.2024	      21
		4051487502		10387792	4537117604	00001	2042729	Plug seal CFS-T RRS-43/0+5-23 GS	8330	0001	           300	PC	PC	000010	680967180	58140696	HLI0550	8300	L03	9999	8330	17.09.2024	29.07.2024	0010	56302884	HLI0550	D364287001	0013364287	            0001	26.06.2024	      21
		4051487502		10387792	4537117605	00001	2314550	Batt.-actuated tool BX 3-ME-22 case	8330	0001	             9	PC	PC	000010	680967181	58138898	HLI0550	8300	L04	9999	8330	17.09.2024	29.07.2024	0010	56303578	HLI0550	D352909001	0013352909	            0001	20.06.2024	      28
		4051487502		10387792	4537117606	00001	2314550	Batt.-actuated tool BX 3-ME-22 case	8330	0001	             9	PC	PC	000010	680967182	58139079	HLI0550	8300	L04	9999	8330	17.09.2024	29.07.2024	0010	56303578	HLI0550	D352909001	0013352909	            0001	20.06.2024	      28
		4051487502		10387792	4537117607	00001	2314550	Batt.-actuated tool BX 3-ME-22 case	8330	0001	             7	PC	PC	000010	680967183	58138902	HLI0550	8300	L04	9999	8330	17.09.2024	29.07.2024	0010	56303578	HLI0550	D352909001	0013352909	            0001	20.06.2024	      28
		4051487502		10387792	4537117608	00001	2149604	Diamond cutter DCH 300-X 220V	8330	0001	             1	PC	PC	000010	680967184	58139153	HLI0550	8300	L05	9999	8330	17.09.2024	29.07.2024	0060	56305166	HLI0550	D368562009	0013368562	            0009	29.06.2024	       7
		4051487502		10387792	4537117609	00001	2149604	Diamond cutter DCH 300-X 220V	8330	0001	             1	PC	PC	000010	680967185	58139154	HLI0550	8300	L05	9999	8330	17.09.2024	29.07.2024	0060	56305166	HLI0550	D368562009	0013368562	            0009	29.06.2024	       7
		4051487502		10387792	4537117610	00001	432947	Cable tie with holder X-ECT 40 MX	8330	0001	        12.800	PC	PC	000010	680967186	58139842	HLI0550	8300	L04	9999	8330	17.09.2024	29.07.2024	0040	56312180	HLI0550	D386502012	0013386502	            0012	06.07.2024	       0
		4051487502		10387792	4537117611	00001	432947	Cable tie with holder X-ECT 40 MX	8330	0001	        12.800	PC	PC	000010	680967187	58139841	HLI0550	8300	L04	9999	8330	17.09.2024	29.07.2024	0040	56312180	HLI0550	D386502012	0013386502	            0012	06.07.2024	       0
		4051487502		10387792	4537117612	00001	432947	Cable tie with holder X-ECT 40 MX	8330	0001	        12.800	PC	PC	000010	680967188	58139843	HLI0550	8300	L04	9999	8330	17.09.2024	29.07.2024	0040	56312180	HLI0550	D386502012	0013386502	            0012	06.07.2024	       0
		4051487502		10387792	4537117613	00001	432947	Cable tie with holder X-ECT 40 MX	8330	0001	        12.800	PC	PC	000010	680967189	58139840	HLI0550	8300	L04	9999	8330	17.09.2024	29.07.2024	0040	56312180	HLI0550	D386502012	0013386502	            0012	06.07.2024	       0
		4051487502		10387792	4537117614	00001	2314529	Batt.-actuated tool BX 3-L-22 case	8330	0001	             9	PC	PC	000010	680967190	58138897	HLI0550	8300	L04	9999	8330	17.09.2024	29.07.2024	0080	56312180	HLI0550	D386502009	0013386502	            0009	06.07.2024	       0
		4051487502		10387792	4537117616	00001	2241994	Flat chisel TE-YX FM 50 (4)	8330	0001	            32	PC	PC	000010	680967191	58140692	HLI0550	8300	L09	9999	8330	17.09.2024	29.07.2024	0010	56315172	HLI0550	D393925001	0013393925	            0001	09.07.2024	       0
		4051487502		10387792	4537117617	00001	2151626	Hammer drill bit TE-CX 12/17	8330	0001	             5	PC	PC	000010	680967192	58140683	HLI0550	8300	L09	9999	8330	17.09.2024	29.07.2024	0010	56316073	HLI0550	D394872001	0013394872	            0001	10.07.2024	       0
		4051487502		10387792	4537117618	00001	2018963	Hammer drill bit TE-YD 1"-24"	8330	0001	             2	PC	PC	000010	680967193	58140683	HLI0550	8300	L09	9999	8330	17.09.2024	29.07.2024	0020	56320710	HLI0550	D403852002	0013403852	            0002	15.07.2024	       0
		4051487502		10387792	4537117619	00001	2296384	Chuck TE-C dicker GK packed	8330	0001	             2	PC	PC	000010	680967194	58140683	HLI0550	8300	L09	9999	8330	17.09.2024	29.07.2024	0060	56320710	HLI0550	D403852010	0013403852	            0010	15.07.2024	       7
		4051487502		10387792	4537117620	00001	2232595	Pointed chisel TE-Y SM 40 (10)	8330	0001	            20	PC	PC	000010	680967195	58140692	HLI0550	8300	L09	9999	8330	17.09.2024	29.07.2024	0010	56322500	HLI0550	D407054001	0013407054	            0001	16.07.2024	       0
		4051487502		10387792	4537117621	00001	433790	Hammer drill bit TE-CX 6/22	8330	0001	            15	PC	PC	000010	680967196	58140683	HLI0550	8300	L09	9999	8330	17.09.2024	29.07.2024	0020	56322500	HLI0550	D407054008	0013407054	            0008	16.07.2024	       0
		4051487502		10387792	4537117622	00001	2150732	Cutting disc AC-D SP 180x1.5	8330	0001	         1.200	PC	PC	000010	680967197	58140090	HLI0550	8300	L09	9999	8330	17.09.2024	29.07.2024	0090	56322500	HLI0550	D407054020	0013407054	            0020	16.07.2024	       0
		4051487502		10387792	4537117623	00001	409189	Hammer drill bit TE-CX 10/22	8330	0001	            10	PC	PC	000010	680967198	58140683	HLI0550	8300	L09	9999	8330	17.09.2024	29.07.2024	0100	56322500	HLI0550	D407054023	0013407054	            0023	16.07.2024	       0
		4051487502		10387792	4537117624	00001	409177	Hammer drill bit TE-CX 8/22	8330	0001	            15	PC	PC	000010	680967199	58140683	HLI0550	8300	L09	9999	8330	17.09.2024	29.07.2024	0120	56322500	HLI0550	D407054025	0013407054	            0025	16.07.2024	       0
		4051487502		10387792	4537117625	00001	2151626	Hammer drill bit TE-CX 12/17	8330	0001	            15	PC	PC	000010	680967200	58140683	HLI0550	8300	L09	9999	8330	17.09.2024	29.07.2024	0020	56323828	HLI0550	D408960002	0013408960	            0002	17.07.2024	       0
		4051487502		10387792	4537117626	00001	2131134	Hammer drill bit TE-CX 16/90	8330	0001	            15	PC	PC	000010	680967201	58139538	HLI0550	8300	L09	9999	8330	17.09.2024	29.07.2024	0010	56323908	HLI0550	D409543003	0013409543	            0003	17.07.2024	       0
		4051487502		10387792	4537117627	00001	2224291	Hammer drill bit  TE-C 8/16 MP8	8330	0001	            16	PC	PC	000010	680967202	58140683	HLI0550	8300	L09	9999	8330	17.09.2024	29.07.2024	0020	56323908	HLI0550	D409543002	0013409543	            0002	17.07.2024	       0
		4051487502		10387792	4537117628	00001	2006089	Mains adapter PUA 81	8330	0001	             4	PC	PC	000010	680967203	58140692	HLI0550	8300	L07	9999	8330	17.09.2024	29.07.2024	0010	56323964	HLI0550	D408700004	0013408700	            0004	17.07.2024	       0
		4051487502		10387792	4537117629	00001	2149226	Univ. cable tie holder X-UCT-E MX	8330	0001	        48.000	PC	PC	000010	680967204	58140694	HLI0550	8300	L04	9999	8330	17.09.2024	29.07.2024	0020	56323964	HLI0550	D408700006	0013408700	            0006	17.07.2024	       0
		4051487502		10387792	4537117630	00001	2149226	Univ. cable tie holder X-UCT-E MX	8330	0001	        48.000	PC	PC	000010	680967205	58140695	HLI0550	8300	L04	9999	8330	17.09.2024	29.07.2024	0020	56323964	HLI0550	D408700006	0013408700	            0006	17.07.2024	       0
		4051487502		10387792	4537117631	00001	2149226	Univ. cable tie holder X-UCT-E MX	8330	0001	        12.000	PC	PC	000010	680967206	58140696	HLI0550	8300	L04	9999	8330	17.09.2024	29.07.2024	0020	56323964	HLI0550	D408700006	0013408700	            0006	17.07.2024	       0
		4051487502		10387792	4537117632	00001	2149226	Univ. cable tie holder X-UCT-E MX	8330	0001	         6.000	PC	PC	000010	680967207	58141083	HLI0550	8300	L04	9999	8330	17.09.2024	29.07.2024	0020	56323964	HLI0550	D408700006	0013408700	            0006	17.07.2024	       0
		4051487502		10387792	4537117633	00001	2149226	Univ. cable tie holder X-UCT-E MX	8330	0001	         5.000	PC	PC	000010	680967208	58140683	HLI0550	8300	L04	9999	8330	17.09.2024	29.07.2024	0020	56323964	HLI0550	D408700006	0013408700	            0006	17.07.2024	       0
		4051487502		10387792	4537117634	00001	215197	Starting aid DD 110-D DD-SA-RK BI+	8330	0001	            22	PC	PC	000010	680967209	58140683	HLI0550	8300	L05	9999	8330	17.09.2024	29.07.2024	0030	56323964	HLI0550	D408700002	0013408700	            0002	17.07.2024	       0
		4051487502		10387792	4537117635	00001	2149225	Washer holder X-WHC B3 packed	8330	0001	            17	PC	PC	000010	680967210	58140683	HLI0550	8300	L04	9999	8330	17.09.2024	29.07.2024	0040	56323964	HLI0550	D408700005	0013408700	            0005	17.07.2024	       0
		4051487502		10387792	4537117637	00001	259768	Dispenser gun CF DS-1	8330	0001	            25	PC	PC	000010	680967211	58140025	HLI0550	8300	L03	9999	8330	17.09.2024	29.07.2024	0010	56324055	HLI0550	D408739001	0013408739	            0001	17.07.2024	       0
		4051487502		10387792	4537117639	00001	259768	Dispenser gun CF DS-1	8330	0001	            25	PC	PC	000010	680967212	58140279	HLI0550	8300	L03	9999	8330	17.09.2024	29.07.2024	0010	56324055	HLI0550	D408739001	0013408739	            0001	17.07.2024	       0
		4051487502		10387792	4537117640	00001	259768	Dispenser gun CF DS-1	8330	0001	            25	PC	PC	000010	680967213	58140283	HLI0550	8300	L03	9999	8330	17.09.2024	29.07.2024	0010	56324055	HLI0550	D408739001	0013408739	            0001	17.07.2024	       0
		4051487502		10387792	4537117641	00001	2184549	Flat washer 12 13x24x2,5 ISO 7089 A4 200	8330	0001	           900	PC	PC	000010	680967214	58140683	HLI0550	8300	L06	9999	8330	17.09.2024	29.07.2024	0010	56324469	HLI0550	D409962004	0013409962	            0004	18.07.2024	       0
		4051487502		10387792	4537117642	00001	2149226	Univ. cable tie holder X-UCT-E MX	8330	0001	        48.000	PC	PC	000010	680967215	58140701	HLI0550	8300	L04	9999	8330	17.09.2024	29.07.2024	0010	56325276	HLI0550	D411928001	0013411928	            0001	18.07.2024	       0
		4051487502		10387792	4537117643	00001	2149226	Univ. cable tie holder X-UCT-E MX	8330	0001	        48.000	PC	PC	000010	680967216	58140693	HLI0550	8300	L04	9999	8330	17.09.2024	29.07.2024	0010	56325276	HLI0550	D411928001	0013411928	            0001	18.07.2024	       0
		4051487502		10387792	4537117644	00001	2149226	Univ. cable tie holder X-UCT-E MX	8330	0001	        48.000	PC	PC	000010	680967217	58140700	HLI0550	8300	L04	9999	8330	17.09.2024	29.07.2024	0010	56325276	HLI0550	D411928001	0013411928	            0001	18.07.2024	       0
		4051487502		10387792	4537117645	00001	2149226	Univ. cable tie holder X-UCT-E MX	8330	0001	        48.000	PC	PC	000010	680967218	58140699	HLI0550	8300	L04	9999	8330	17.09.2024	29.07.2024	0010	56325276	HLI0550	D411928001	0013411928	            0001	18.07.2024	       0
		4051487502		10387792	4537117646	00001	2149226	Univ. cable tie holder X-UCT-E MX	8330	0001	        48.000	PC	PC	000010	680967219	58140698	HLI0550	8300	L04	9999	8330	17.09.2024	29.07.2024	0010	56325276	HLI0550	D411928001	0013411928	            0001	18.07.2024	       0
		4051487502		10387792	4537117647	00001	2149226	Univ. cable tie holder X-UCT-E MX	8330	0001	         6.000	PC	PC	000010	680967220	58140704	HLI0550	8300	L04	9999	8330	17.09.2024	29.07.2024	0010	56325276	HLI0550	D411928001	0013411928	            0001	18.07.2024	       0
		4051487502		10387792	4537117648	00001	2149226	Univ. cable tie holder X-UCT-E MX	8330	0001	         4.000	PC	PC	000010	680967221	58140683	HLI0550	8300	L04	9999	8330	17.09.2024	29.07.2024	0010	56325276	HLI0550	D411928001	0013411928	            0001	18.07.2024	       0
		4051487502		10387792	4537117649	00001	2149226	Univ. cable tie holder X-UCT-E MX	8330	0001	        48.000	PC	PC	000010	680967222	58140697	HLI0550	8300	L04	9999	8330	17.09.2024	29.07.2024	0020	56325276	HLI0550	D411928002	0013411928	            0002	18.07.2024	       0
		4051487502		10387792	4537117650	00001	2149226	Univ. cable tie holder X-UCT-E MX	8330	0001	        48.000	PC	PC	000010	680967223	58140688	HLI0550	8300	L04	9999	8330	17.09.2024	29.07.2024	0020	56325276	HLI0550	D411928002	0013411928	            0002	18.07.2024	       0
		4051487502		10387792	4537117652	00001	2149226	Univ. cable tie holder X-UCT-E MX	8330	0001	        48.000	PC	PC	000010	680967224	58140690	HLI0550	8300	L04	9999	8330	17.09.2024	29.07.2024	0020	56325276	HLI0550	D411928002	0013411928	            0002	18.07.2024	       0
		4051487502		10387792	4537117653	00001	2149226	Univ. cable tie holder X-UCT-E MX	8330	0001	        48.000	PC	PC	000010	680967225	58140691	HLI0550	8300	L04	9999	8330	17.09.2024	29.07.2024	0020	56325276	HLI0550	D411928002	0013411928	            0002	18.07.2024	       0
		4051487502		10387792	4537117654	00001	2149226	Univ. cable tie holder X-UCT-E MX	8330	0001	        48.000	PC	PC	000010	680967226	58140689	HLI0550	8300	L04	9999	8330	17.09.2024	29.07.2024	0020	56325276	HLI0550	D411928002	0013411928	            0002	18.07.2024	       0
		4051487502		10387792	4537117655	00001	2149226	Univ. cable tie holder X-UCT-E MX	8330	0001	         6.000	PC	PC	000010	680967227	58141166	HLI0550	8300	L04	9999	8330	17.09.2024	29.07.2024	0020	56325276	HLI0550	D411928002	0013411928	            0002	18.07.2024	       0
		4051487502		10387792	4537117656	00001	2149226	Univ. cable tie holder X-UCT-E MX	8330	0001	         4.000	PC	PC	000010	680967228	58140683	HLI0550	8300	L04	9999	8330	17.09.2024	29.07.2024	0020	56325276	HLI0550	D411928002	0013411928	            0002	18.07.2024	       0
		4051487502		10387792	4537117657	00001	2156390	High performance nail X-P 20 B3 MX BULK	8330	0001	       108.000	PC	PC	000010	680967229	58139839	HLI0550	8300	L04	9999	8330	17.09.2024	29.07.2024	0010	56325277	HLI0550	D411929001	0013411929	            0001	18.07.2024	       0
		4051487502		10387792	4537117658	00001	2197931	Stepped drill bit TX-BT 4.7/7-110	8330	0001	            10	PC	PC	000010	680967230	58140683	HLI0550	8300	L04	9999	8330	17.09.2024	29.07.2024	0010	56325372	HLI0550	D412007002	0013412007	            0002	18.07.2024	       0
		4051487502		10387792	4537117659	00001	2361441	Stud holder S-SH BT M8	8330	0001	           120	PC	PC	000010	680967231	58140683	HLI0550	8300	L10	9999	8330	17.09.2024	29.07.2024	0010	56325380	HLI0550	D412011002	0013412011	            0002	18.07.2024	       0
		4051487502		10387792	4537117660	00001	2197930	Stepped drill bit TX-BT 4.7/7-80	8330	0001	            70	PC	PC	000010	680967232	58140683	HLI0550	8300	L04	9999	8330	17.09.2024	29.07.2024	0040	56325380	HLI0550	D412011009	0013412011	            0009	18.07.2024	       0
		4051487502		10387792	4537117661	00001	2346085	Torque tool S-BT 1/4" - 16Nm	8330	0001	            10	PC	PC	000010	680967233	58140692	HLI0550	8300	L10	9999	8330	17.09.2024	29.07.2024	0050	56325380	HLI0550	D412011003	0013412011	            0003	18.07.2024	       0
		4051487502		10387792	4537117662	00001	2346085	Torque tool S-BT 1/4" - 16Nm	8330	0001	             2	PC	PC	000010	680967234	58140683	HLI0550	8300	L10	9999	8330	17.09.2024	29.07.2024	0050	56325380	HLI0550	D412011003	0013412011	            0003	18.07.2024	       0
		4051487502		10387792	4537117663	00001	2197930	Stepped drill bit TX-BT 4.7/7-80	8330	0001	            70	PC	PC	000010	680967235	58140683	HLI0550	8300	L04	9999	8330	17.09.2024	29.07.2024	0010	56325388	HLI0550	D412014005	0013412014	            0005	18.07.2024	       0
		4051487502		10387792	4537117664	00001	2194592	Batt.-actuated tool BX 3-BTG A22 case	8330	0001	             1	PC	PC	000010	680967236	58139107	HLI0550	8300	L04	9999	8330	17.09.2024	29.07.2024	0030	56325388	HLI0550	D412014002	0013412014	            0002	18.07.2024	       0
		4051487502		10387792	4537117665	00001	2194351	Elec. connector X-BT-ER M8/7 SN 8	8330	0001	           700	PC	PC	000010	680967237	58140683	HLI0550	8300	L04	9999	8330	17.09.2024	29.07.2024	0010	56325396	HLI0550	D412016001	0013412016	            0001	18.07.2024	       0
		4051487502		10387792	4537117666	00001	2158331	Change module 62 SPX/SP-H abras	8330	0001	            12	PC	PC	000010	680967238	58140692	HLI0550	8300	L05	9999	8330	17.09.2024	29.07.2024	0010	56325532	HLI0550	D411924002	0013411924	            0002	18.07.2024	       0
		4051487502		10387792	4537117667	00001	365595	Water supply unit DWP 10	8330	0001	             2	PC	PC	000010	680967239	58140696	HLI0550	8300	L05	9999	8330	17.09.2024	29.07.2024	0020	56325532	HLI0550	D411924001	0013411924	            0001	18.07.2024	       0
		4051487502		10387792	4537117668	00001	365595	Water supply unit DWP 10	8330	0001	             1	PC	PC	000010	680967240	58141088	HLI0550	8300	L05	9999	8330	17.09.2024	29.07.2024	0020	56325532	HLI0550	D411924001	0013411924	            0001	18.07.2024	       0
		4051487502		10387792	4537117669	00001	2241983	Pointed chisel TE-YX SM 36	8330	0001	             2	PC	PC	000010	680967241	58140683	HLI0550	8300	L09	9999	8330	17.09.2024	29.07.2024	0020	56326375	HLI0550	D413601003	0013413601	            0003	19.07.2024	       0
		4051487502		10387792	4537117670	00001	409176	Hammer drill bit TE-CX 8/17	8330	0001	            10	PC	PC	000010	680967242	58140683	HLI0550	8300	L09	9999	8330	17.09.2024	29.07.2024	0050	56326375	HLI0550	D413601007	0013413601	            0007	19.07.2024	       0
		4051487502		10387792	4537117671	00001	2123166	Quick-release chuck packed	8330	0001	             2	PC	PC	000010	680967243	58140683	HLI0550	8300	L09	9999	8330	17.09.2024	29.07.2024	0060	56326375	HLI0550	D413601008	0013413601	            0008	19.07.2024	       0
		4051487502		10387792	4537117672	00001	2222125	Recip. saw blade SP 15 6 (35) w/m	8330	0001	           315	PC	PC	000010	680967244	58140692	HLI0550	8300	L09	9999	8330	17.09.2024	29.07.2024	0070	56326375	HLI0550	D413601009	0013413601	            0009	19.07.2024	       0
		4051487502		10387792	4537117673	00001	2232595	Pointed chisel TE-Y SM 40 (10)	8330	0001	            30	PC	PC	000010	680967245	58140692	HLI0550	8300	L09	9999	8330	17.09.2024	29.07.2024	0080	56326375	HLI0550	D413601010	0013413601	            0010	19.07.2024	       0
		4051487502		10387792	4537117674	00001	2241991	Flat chisel TE-YX FM 36	8330	0001	             2	PC	PC	000010	680967246	58140683	HLI0550	8300	L09	9999	8330	17.09.2024	29.07.2024	0090	56326375	HLI0550	D413601011	0013413601	            0011	19.07.2024	       0
		4051487502		10387792	4537117675	00001	2254750	Pointed chisel TE-HX SM 50 (4)	8330	0001	             4	PC	PC	000010	680967247	58140692	HLI0550	8300	L09	9999	8330	17.09.2024	29.07.2024	0100	56326375	HLI0550	D413601012	0013413601	            0012	19.07.2024	       0
		4051487502		10387792	4537117676	00001	2248345	Cordl. angle grinder AG 4S-22-4.5 box	8330	0001	             1	PC	PC	000010	680967248	58139107	HLI0550	8300	L15	9999	8330	17.09.2024	29.07.2024	0110	56326375	HLI0550	D413601013	0013413601	            0013	19.07.2024	       0
		4051487502		10387792	4537117677	00001	2232606	Flat chisel TE-Y FM 40	8330	0001	             3	PC	PC	000010	680967249	58140683	HLI0550	8300	L09	9999	8330	17.09.2024	29.07.2024	0120	56326375	HLI0550	D413601014	0013413601	            0014	19.07.2024	       0
		4051487502		10387792	4537117678	00001	2254779	Flat chisel TE-H FM 50	8330	0001	            16	PC	PC	000010	680967250	58140692	HLI0550	8300	L09	9999	8330	17.09.2024	29.07.2024	0130	56326375	HLI0550	D413601004	0013413601	            0004	19.07.2024	       0
		4051487502		10387792	4537117679	00001	2236894	Crank tripod PA 922 tripod	8330	0001	             8	PC	PC	000010	680967251	58139528	HLI0550	8300	L07	9999	8330	17.09.2024	29.07.2024	0010	56326503	HLI0550	D413136002	0013413136	            0002	20.07.2024	       0
		4051487502		10387792	4537117680	00001	2107119	Tripod PUA 25	8330	0001	            16	PC	PC	000010	680967252	58139535	HLI0550	8300	L07	9999	8330	17.09.2024	29.07.2024	0040	56326503	HLI0550	D413136006	0013413136	            0006	20.07.2024	       0
		4051487502		10387792	4537117681	00001	2199640	Core bit BI 32/320 SP-L abras	8330	0001	             5	PC	PC	000010	680967253	58140683	HLI0550	8300	L05	9999	8330	17.09.2024	29.07.2024	0070	56326503	HLI0550	D413136001	0013413136	            0001	20.07.2024	       0
		4051487502		10387792	4537117682	00001	2199635	Core bit BI 28/320 SP-L abras	8330	0001	             4	PC	PC	000010	680967254	58140683	HLI0550	8300	L05	9999	8330	17.09.2024	29.07.2024	0080	56326503	HLI0550	D413136008	0013413136	            0008	20.07.2024	       0
		4051487502		10387792	4537117683	00001	2261783	Core bit BI 20/320 SP-L abras	8330	0001	            16	PC	PC	000010	680967255	58140696	HLI0550	8300	L05	9999	8330	17.09.2024	29.07.2024	0090	56326503	HLI0550	D413136004	0013413136	            0004	20.07.2024	       0
		4051487502		10387792	4537117684	00001	2184478	Flat washer 8 8,4x16x1,6 ISO 7089 A4 200	8330	0001	         1.000	PC	PC	000010	680967256	58140683	HLI0550	8300	L06	9999	8330	17.09.2024	29.07.2024	0010	56326539	HLI0550	D413587001	0013413587	            0001	20.07.2024	       0
		4051487502		10387792	4537117685	00001	2349158	Grating disc X-FCM-R 28/33	8330	0001	           900	PC	PC	000010	680967257	58140696	HLI0550	8300	L04	9999	8330	17.09.2024	29.07.2024	0020	56326897	HLI0550	D413245002	0013413245	            0002	19.07.2024	       0
		4051487502		10387792	4537117686	00001	2261727	Core bit B 77/430+ P-U abras	8330	0001	             6	PC	PC	000010	680967258	58140692	HLI0550	8300	L05	9999	8330	17.09.2024	29.07.2024	0010	56327317	HLI0550	D414867002	0013414867	            0002	22.07.2024	       0
		4051487503		10387792	4537117687	00001	2283202	Diamond grinder DGH 130 230V	8330	0001	            16	PC	PC	000010	680967259	58139110	HLI0550	8300	L05	9999	8330	17.09.2024	29.07.2024	0020	56229557	HLI0550	D222188002	0013222188	            0002	17.04.2024	-21
		4051487503		10387792	4537117688	00001	2283202	Diamond grinder DGH 130 230V	8330	0001	            16	PC	PC	000010	680967260	58139110	HLI0550	8300	L05	9999	8330	17.09.2024	29.07.2024	0010	56230749	HLI0550	D222660001	0013222660	            0001	18.04.2024	       7
		4051487503		10387792	4537117689	00001	2224291	Hammer drill bit  TE-C 8/16 MP8	8330	0001	             8	PC	PC	000010	680967261	58140115	HLI0550	8300	L09	9999	8330	17.09.2024	29.07.2024	0340	56165669	HLI0550	D091979022	0013091979	            0022	19.02.2024	     147
		4051487503		10387792	4537117690	00001	2305659	Diamond wire DS-W 10.5-25m VB SPX-H C&S	8330	0001	            50	M	M	000010	680967263	58139531	HLI0550	8300	L12	9999	8330	17.09.2024	29.07.2024	0140	56188023	HLI0550	D138102016	0013138102	            0016	08.03.2024	      35
		4051487503		10387792	4537117691	00001	2331189	Dia blade 110/20/16 (6) P univ	8330	0001	            60	PC	PC	000010	680967264	58140114	HLI0550	8300	L05	9999	8330	17.09.2024	29.07.2024	0070	56242901	HLI0550	D246302012	0013246302	            0012	30.04.2024	      71
		4051487503		10387792	4537117692	00001	2151636	Hammer drill bit TE-CX 14/27	8330	0001	             8	PC	PC	000010	680967265	58140115	HLI0550	8300	L09	9999	8330	17.09.2024	29.07.2024	0070	56261404	HLI0550	D282806017	0013282806	            0017	17.05.2024	      21
		4051487503		10387792	4537117693	00001	2151636	Hammer drill bit TE-CX 14/27	8330	0001	             9	PC	PC	000010	680967266	58140115	HLI0550	8300	L09	9999	8330	17.09.2024	29.07.2024	0080	56262138	HLI0550	D283675009	0013283675	            0009	20.05.2024	      21
		4051487503		10387792	4537117694	00001	2151636	Hammer drill bit TE-CX 14/27	8330	0001	             7	PC	PC	000010	680967267	58140115	HLI0550	8300	L09	9999	8330	17.09.2024	29.07.2024	0100	56262138	HLI0550	D283675012	0013283675	            0012	20.05.2024	      28
		4051487504		10387792	4537117695	00001	2261745	Change module 112 P-U abras	8330	0001	            42	PC	PC	000010	680967268	58140092	HLI0550	8300	L05	9999	8330	17.09.2024	29.07.2024	0020	56273140	HLI0550	D303031002	0013303031	            0002	29.05.2024	       0
		4051487504		10387792	4537117696	00001	2124812	Diamond coring tool DD 200 220V BL	8330	0001	             4	PC	PC	000010	680967269	58138899	HLI0550	8300	L05	9999	8330	17.09.2024	29.07.2024	0240	56274048	HLI0550	D304711077	0013304711	            0077	30.05.2024	       0
		4051487504		10387792	4537117697	00001	2158330	Change module 57 SPX/SP-H abras	8330	0001	            36	PC	PC	000010	680967270	58140117	HLI0550	8300	L05	9999	8330	17.09.2024	29.07.2024	0460	56274048	HLI0550	D304711013	0013304711	            0013	30.05.2024	       0
		4051487504		10387792	4537117698	00001	2158330	Change module 57 SPX/SP-H abras	8330	0001	             4	PC	PC	000010	680967271	58140118	HLI0550	8300	L05	9999	8330	17.09.2024	29.07.2024	0460	56274048	HLI0550	D304711013	0013304711	            0013	30.05.2024	       0
		4051487504		10387792	4537117699	00001	2158330	Change module 57 SPX/SP-H abras	8330	0001	            24	PC	PC	000010	680967272	58140117	HLI0550	8300	L05	9999	8330	17.09.2024	29.07.2024	0470	56274048	HLI0550	D304711015	0013304711	            0015	30.05.2024	      14
		4051487504		10387792	4537117700	00001	2158330	Change module 57 SPX/SP-H abras	8330	0001	            18	PC	PC	000010	680967273	58140337	HLI0550	8300	L05	9999	8330	17.09.2024	29.07.2024	0470	56274048	HLI0550	D304711015	0013304711	            0015	30.05.2024	      14
		4051487504		10387792	4537117701	00001	2160049	Combihammer TE 30-AVR 220V case	8330	0001	             3	PC	PC	000010	680967274	58139109	HLI0550	8300	L08	9999	8330	17.09.2024	29.07.2024	0010	56284217	HLI0550	D328226002	0013328226	            0002	10.06.2024	       0
		4051487504		10387792	4537117702	00001	2160049	Combihammer TE 30-AVR 220V case	8330	0001	             3	PC	PC	000010	680967275	58139142	HLI0550	8300	L08	9999	8330	17.09.2024	29.07.2024	0010	56284217	HLI0550	D328226002	0013328226	            0002	10.06.2024	       0
		4051462466		10257757	4536772572	00001	2107119	Tripod PUA 25	8330	0001	            16	PC	PC	000010	680685500	58083937	HLI0550	8300	L07	9999	8330	14.08.2024	27.05.2024	0010	56261552	HLI0550	D282309005	0013282309	            0005	18.05.2024	       0
		4051462466		10257757	4536772624	00001	2097583	Rotating laser PR 300-HV2S	8330	0001	             1	PC	PC	000010	680685524	58083274	HLI0550	8300	L07	9999	8330	14.08.2024	27.05.2024	0010	56261542	HLI0550	D282817011	0013282817	            0011	18.05.2024	       0
		4051462466		10257757	4536772627	00001	2264046	Laser receiver PMA 32	8330	0001	             5	PC	PC	000010	680685525	58084347	HLI0550	8300	L07	9999	8330	14.08.2024	27.05.2024	0030	56261542	HLI0550	D282817020	0013282817	            0020	18.05.2024	       0
		4051462466		10257757	4536772632	00001	2062050	Laser range meter PD-E	8330	0001	             6	PC	PC	000010	680685526	58084343	HLI0550	8300	L07	9999	8330	14.08.2024	27.05.2024	0080	56261552	HLI0550	D282309009	0013282309	            0009	18.05.2024	       0
		4051462466		10257757	4536772636	00001	2131536	Rotating laser PR 2-HS A12	8330	0001	            16	PC	PC	000010	680685527	58084291	HLI0550	8300	L07	9999	8330	14.08.2024	27.05.2024	0060	56255537	HLI0550	D273947002	0013273947	            0002	14.05.2024	       0
		4051462466		10257757	4536772644	00001	432947	Cable tie with holder X-ECT 40 MX	8330	0001	        12.800	PC	PC	000010	680685529	58084010	HLI0550	8300	L04	9999	8330	14.08.2024	27.05.2024	0010	56253633	HLI0550	D267953001	0013267953	            0001	10.05.2024	       8
		4051462466		10257757	4536772710	00001	2153650	ON!Track tag AI L2	8330	0001	         1.200	PC	PC	000010	680685550	58085132	HLI0550	8300	L13	9999	8330	14.08.2024	27.05.2024	0010	56255537	HLI0550	D273947006	0013273947	            0006	14.05.2024	       8
		4051462466		10257757	4536772728	00001	2167744	Breaker TE 1000-AVR 230V univ cord	8330	0001	            10	PC	PC	000010	680685556	58084292	HLI0550	8300	L08	9999	8330	14.08.2024	27.05.2024	0510	56232777	HLI0550	D226779047	0013226779	            0047	19.04.2024	       0
		4051462457		10257758	4536776828	00001	2164560	Adhesive capsule HVU2 M24x210	8330	0001	            80	PC	PC	000010	680689135	58085512	HLI0550	8300	L01	9999	8330	14.08.2024	27.05.2024	0020	56260534	HLI0550	D281736002	0013281736	            0002	17.05.2024	       0
		4051462457		10257758	4536776830	00001	2164509	Adhesive capsule HVU2 M20x170	8330	0001	           200	PC	PC	000010	680689137	58085143	HLI0550	8300	L01	9999	8330	14.08.2024	27.05.2024	0010	56260534	HLI0550	D281736001	0013281736	            0001	17.05.2024	       0
		4051462457		10257758	4536776833	00001	2164508	Adhesive capsule HVU2 M16x125	8330	0001	           360	PC	PC	000010	680689140	58085637	HLI0550	8300	L01	9999	8330	14.08.2024	27.05.2024	0030	56248903	HLI0550	D260538005	0013260538	            0005	06.05.2024	       0
		4051462459		10257759	4536776835	00001	2123404	Injectable mortar HIT-RE 500 V3/500/1	8330	0001	           480	PC	PC	000010	680689142	58084012	HLI0550	8300	L01	9999	8330	14.08.2024	27.05.2024	0020	56253933	HLI0550	D256012002	0013256012	            0002	03.05.2024	       0
		4051462463		10259187	4536776855	00001	2146846	Breaker TE 500-AVR 220V	8330	0001	            20	PC	PC	000010	680689162	58083934	HLI0550	8300	L08	9999	8330	14.08.2024	27.05.2024	0140	56219015	HLI0550	D202547029	0013202547	            0029	08.04.2024	       0
		4051465069		10267740	4536807982	00001	237328	Universal nail X-U 15 P8 TH	8330	0001	         6.000	PC	PC	000010	680714312	58090458	HLI0550	8300	L04	9999	8330	02.09.2024	03.06.2024	0070	56223179	HLI0550	D209186009	0013209186	            0009	11.04.2024	       7
		4051465070		10267740	4536807983	00001	2134761	Rotating laser PR 30-HVS A12	8330	0001	            16	PC	PC	000010	680714313	58088661	HLI0550	8300	L07	9999	8330	02.09.2024	03.06.2024	0110	56255537	HLI0550	D273947009	0013273947	            0009	14.05.2024	       7
		4051465070		10267740	4536807985	00001	2283202	Diamond grinder DGH 130 230V	8330	0001	             4	PC	PC	000010	680714315	58090068	HLI0550	8300	L05	9999	8330	02.09.2024	03.06.2024	0010	56229490	HLI0550	D220279001	0013220279	            0001	17.04.2024	-49
		4051465070		10267740	4536807995	00001	2232382	Diamond grinder DGH 150 230V	8330	0001	             2	PC	PC	000010	680714325	58088684	HLI0550	8300	L05	9999	8330	02.09.2024	03.06.2024	0050	56252183	HLI0550	D266169027	0013266169	            0027	09.05.2024	       0
		4051465071		10267740	4536808037	00001	259768	Dispenser gun CF DS-1	8330	0001	            75	PC	PC	000010	680714367	58090716	HLI0550	8300	L03	9999	8330	02.09.2024	03.06.2024	0010	56267060	HLI0550	D291695004	0013291695	            0004	23.05.2024	       0
		4051465071		10267740	4536808043	00001	285718	Cable trunking fastener X-ET MX	8330	0001	       160.000	PC	PC	000010	680714380	58089959	HLI0550	8300	L04	9999	8330	02.09.2024	03.06.2024	0010	56268599	HLI0550	D294360001	0013294360	            0001	25.05.2024	       0
		4051465074		10267741	4536808048	00001	2123404	Injectable mortar HIT-RE 500 V3/500/1	8330	0001	           480	PC	PC	000010	680714389	58089961	HLI0550	8300	L01	9999	8330	02.09.2024	03.06.2024	0030	56253933	HLI0550	D256012003	0013256012	            0003	03.05.2024	       0
		4051465078		10267742	4536808050	00001	2281190	Firestop coating CP 670 17,5kg	8330	0001	            24	PC	PC	000010	680714393	58089977	HLI0550	8300	L03	9999	8330	02.09.2024	03.06.2024	0010	56252627	HLI0550	D267184001	0013267184	            0001	09.05.2024	       7
		4051465078		10267742	4536808053	00001	2101918	Injectable mortar HIT-HY 170 500/2-EU	8330	0001	           160	PC	PC	000010	680714400	58091077	HLI0550	8300	L01	9999	8330	02.09.2024	03.06.2024	0010	56261394	HLI0550	D282520002	0013282520	            0002	17.05.2024	       0
		4051465079		10267742	4536808055	00001	2101534	Firestop sealant FS-ONE MAX 10.1OZ CART	8330	0001	           228	PC	PC	000010	680714405	58091078	HLI0550	8300	L03	9999	8330	02.09.2024	03.06.2024	0010	56267356	HLI0550	D292881001	0013292881	            0001	24.05.2024	       0
		4051465079		10267742	4536808056	00001	2164560	Adhesive capsule HVU2 M24x210	8330	0001	            80	PC	PC	000010	680714407	58090464	HLI0550	8300	L01	9999	8330	02.09.2024	03.06.2024	0010	56269025	HLI0550	D295766001	0013295766	            0001	27.05.2024	       0
		4051470940		10300736	4536889240	00001	2346064	Threaded stud S-BT-MR M10/15 SN 6 HL	8302	0001	           300	PC	PC	000010	680780960	58103023	HLI0550	8300	L10	9999	8302	02.09.2024	17.06.2024	0010	56242385	HLI0550	D241213001	0013241213	            0001	26.04.2024	      42
		4051470941		10300738	4536889242	00001	2116103	Insulating foam CF-I 65  ECO	8330	0001	           336	PC	PC	000010	680780961	58104210	HLI0550	8300	L03	9999	8330	02.09.2024	17.06.2024	0040	56274123	HLI0550	D304769007	0013304769	            0007	31.05.2024	-7
		4051470942		10300738	4536889255	00001	2116103	Insulating foam CF-I 65  ECO	8330	0001	           336	PC	PC	000010	680780969	58104206	HLI0550	8300	L03	9999	8330	02.09.2024	17.06.2024	0020	56262166	HLI0550	D284145006	0013284145	            0006	20.05.2024	       7
		4051470945		10300740	4536890006	00001	2153650	ON!Track tag AI L2	8330	0001	           500	PC	PC	000010	680781745	58103024	HLI0550	8300	L13	9999	8330	02.09.2024	17.06.2024	0030	56283094	HLI0550	D325805009	0013325805	            0009	08.06.2024	       0
		4051470945		10300740	4536890018	00001	2150705	Cutting disc AC-D SPX 125x1.0	8330	0001	            25	PC	PC	000010	680781751	58103021	HLI0550	8300	L09	9999	8330	02.09.2024	17.06.2024	0030	56284217	HLI0550	D328226006	0013328226	            0006	10.06.2024	       0
		4051470945		10300740	4536890020	00001	2134761	Rotating laser PR 30-HVS A12	8330	0001	             4	PC	PC	000010	680781752	58102812	HLI0550	8300	L07	9999	8330	02.09.2024	17.06.2024	0010	56284153	HLI0550	D325870001	0013325870	            0001	07.06.2024	       0
		4051470945		10300740	4536890022	00001	2107220	Measuring rod PUA 53 CM	8330	0001	            40	PC	PC	000010	680781753	58103398	HLI0550	8300	L07	9999	8330	02.09.2024	17.06.2024	0040	56283094	HLI0550	D325805010	0013325805	            0010	08.06.2024	       0
		4051470945		10300740	4536890029	00001	2314550	Batt.-actuated tool BX 3-ME-22 case	8330	0001	             9	PC	PC	000010	680781756	58102813	HLI0550	8300	L04	9999	8330	02.09.2024	17.06.2024	0110	56265721	HLI0550	D289752020	0013289752	            0020	23.05.2024	       7
		4051470945		10300740	4536890111	00001	2299888	Diamond wire DS-W 10.5-25m SI SPX-M/H	8330	0001	            25	M	M	000010	680781797	58103397	HLI0550	8300	L12	9999	8330	02.09.2024	17.06.2024	0190	56274032	HLI0550	D304811002	0013304811	            0002	30.05.2024	       7
		4051470947		10300740	4536890205	00001	2005208	Diamond coring tool DD 160 220V	8330	0001	            14	PC	PC	000010	680781844	58102810	HLI0550	8300	L05	9999	8330	02.09.2024	17.06.2024	0050	56261542	HLI0550	D282817031	0013282817	            0031	18.05.2024	       0
		4051473456		10310997	4536929306	00001	2123404	Injectable mortar HIT-RE 500 V3/500/1	8750	0001	           480	PC	PC	000010	680814123	58110952	HLI0550	8750	L01	9999	8750	26.08.2024	24.06.2024	0050	56274135	HLI0550	D304655008	0013304655	            0008	31.05.2024	       0
		4051473456		10310997	4536929314	00001	2123384	Injectable mortar HIT-RE 100/500/1	8750	0001	           480	PC	PC	000010	680814127	58110949	HLI0550	8750	L01	9999	8750	26.08.2024	24.06.2024	0040	56292283	HLI0550	D344530004	0013344530	            0004	18.06.2024	       0
		4051473554		10310998	4536929315	00001	2164506	Adhesive capsule HVU2 M10x90	8750	0001	           180	PC	PC	000010	680814128	58085502	HLI0550	8750	L01	9999	8750	26.08.2024	24.06.2024	0010	56198778	HLI0550	D159271001	0013159271	            0001	19.03.2024	      28
		4051473554		10310998	4536929323	00001	338725	Firestop foam CP 620 US	8750	0001	            72	PC	PC	000010	680814133	58085614	HLI0550	8750	L03	9999	8750	26.08.2024	24.06.2024	0010	56212924	HLI0550	D189179002	0013189179	            0002	02.04.2024	      28
		4051473554		10310998	4536929325	00001	372097	Firestop cable coating CP 679 A 20KG	8750	0001	             1	PC	PC	000010	680814134	58109399	HLI0550	8750	L03	9999	8750	26.08.2024	24.06.2024	0020	56281618	HLI0550	D324077004	0013324077	            0004	07.06.2024	       0
		4051473554		10310998	4536929327	00001	2031400	Injectable mortar HIT-MM PLUS 500/2	8750	0001	           160	PC	PC	000010	680814135	58110168	HLI0550	8750	L01	9999	8750	26.08.2024	24.06.2024	0020	56252786	HLI0550	D266593006	0013266593	            0006	10.05.2024	      28
		4051473646		10310999	4536929334	00001	2134761	Rotating laser PR 30-HVS A12	8750	0001	             2	PC	PC	000010	680814139	58110361	HLI0550	8750	L07	9999	8750	26.08.2024	24.06.2024	0150	56270147	HLI0550	D298013021	0013298013	            0021	28.05.2024	       0
		4051473646		10310999	4536929335	00001	2153650	ON!Track tag AI L2	8750	0001	           200	PC	PC	000010	680814140	58110839	HLI0550	8750	L13	9999	8750	26.08.2024	24.06.2024	0020	56284144	HLI0550	D327858007	0013327858	            0007	10.06.2024	       0
		4051473646		10310999	4536929337	00001	2113974	Stud anchor HST3 M10x70 10/-	8750	0001	           100	PC	PC	000010	680814141	58110831	HLI0550	8750	L02	9999	8750	26.08.2024	24.06.2024	0010	56293268	HLI0550	D338130001	0013338130	            0001	17.06.2024	       0
		4051473646		10310999	4536929342	00001	2253770	Batt.-actuated tool BX 3-ME-22 case	8750	0001	             2	PC	PC	000010	680814144	58110356	HLI0550	8750	L04	9999	8750	26.08.2024	24.06.2024	0010	56257040	HLI0550	D266300029	0013266300	            0029	09.05.2024	      28
		4051473646		10310999	4536929345	00001	2322754	Line laser PM 2-LG	8750	0001	             6	PC	PC	000010	680814146	58111208	HLI0550	8750	L07	9999	8750	26.08.2024	24.06.2024	0020	56270147	HLI0550	D298013003	0013298013	            0003	28.05.2024	       0
		4051473646		10310999	4536929425	00001	2299891	Diamond wire DS-W 10.5-25m SI SP-M/H	8750	0001	            25	M	M	000010	680814218	58109400	HLI0550	8750	L12	9999	8750	26.08.2024	24.06.2024	0170	56270147	HLI0550	D298013014	0013298013	            0014	28.05.2024	       0
		4051473454		10315219	4536930076	00001	2123404	Injectable mortar HIT-RE 500 V3/500/1	8330	0001	           400	PC	PC	000010	680814892	58104213	HLI0550	8300	L01	9999	8330	10.09.2024	24.06.2024	0040	56253933	HLI0550	D256012004	0013256012	            0004	03.05.2024	       7
		4051473454		10315219	4536930081	00001	2222545	Injectable mortar HIT-RE 100-HC 580/1	8330	0001	           288	PC	PC	000010	680814895	58110866	HLI0550	8300	L01	9999	8330	10.09.2024	24.06.2024	0010	56205831	HLI0550	D166486001	0013166486	            0001	22.03.2024	      70
		4051473454		10315219	4536930122	00001	2123404	Injectable mortar HIT-RE 500 V3/500/1	8330	0001	           480	PC	PC	000010	680814917	58110957	HLI0550	8300	L01	9999	8330	10.09.2024	24.06.2024	0010	56253933	HLI0550	D256012001	0013256012	            0001	03.05.2024	       0
		4051473559		10315218	4536930126	00001	2164507	Adhesive capsule HVU2 M12x110	8330	0001	           360	PC	PC	000010	680814919	58103025	HLI0550	8300	L01	9999	8330	10.09.2024	24.06.2024	0010	56275541	HLI0550	D311655001	0013311655	            0001	03.06.2024	       7
		4051473559		10315218	4536930131	00001	2101534	Firestop sealant FS-ONE MAX 10.1OZ CART	8330	0001	            24	PC	PC	000010	680814921	58098288	HLI0550	8300	L03	9999	8330	10.09.2024	24.06.2024	0010	56272615	HLI0550	D302379001	0013302379	            0001	29.05.2024	      14
		4051473560		10315218	4536930135	00001	338725	Firestop foam CP 620 US	8330	0001	            24	PC	PC	000010	680814923	58097762	HLI0550	8300	L03	9999	8330	10.09.2024	24.06.2024	0060	56244742	HLI0550	D253035011	0013253035	            0011	02.05.2024	      14
		4051473560		10315218	4536930137	00001	2281190	Firestop coating CP 670 17,5kg	8330	0001	            24	PC	PC	000010	680814924	58109406	HLI0550	8300	L03	9999	8330	10.09.2024	24.06.2024	0010	56256617	HLI0550	D275686002	0013275686	            0002	14.05.2024	       7
		4051473561		10315218	4536930144	00001	203517	Firestop foam CP 660 INT	8330	0001	            32	PC	PC	000010	680814928	58111203	HLI0550	8300	L03	9999	8330	10.09.2024	24.06.2024	0010	56289082	HLI0550	D336387001	0013336387	            0001	14.06.2024	       0
		4051473653		10315217	4536930148	00001	2131536	Rotating laser PR 2-HS A12	8330	0001	            16	PC	PC	000010	680814930	58109996	HLI0550	8300	L07	9999	8330	10.09.2024	24.06.2024	0330	56274048	HLI0550	D304711005	0013304711	            0005	30.05.2024	       0
		4051473653		10315217	4536930149	00001	2158330	Change module 57 SPX/SP-H abras	8330	0001	            30	PC	PC	000010	680814931	58111151	HLI0550	8300	L05	9999	8330	10.09.2024	24.06.2024	0280	56274032	HLI0550	D304811023	0013304811	            0023	30.05.2024	-7
		4051473653		10315217	4536930154	00001	2134761	Rotating laser PR 30-HVS A12	8330	0001	            16	PC	PC	000010	680814935	58110075	HLI0550	8300	L07	9999	8330	10.09.2024	24.06.2024	0340	56274048	HLI0550	D304711007	0013304711	            0007	30.05.2024	       0
		4051473653		10315217	4536930165	00001	2349160	Grating disc X-FCM-R 38/43	8330	0001	         2.400	PC	PC	000010	680814947	58109739	HLI0550	8300	L04	9999	8330	10.09.2024	24.06.2024	0280	56274048	HLI0550	D304711092	0013304711	            0092	30.05.2024	-21
		4051473653		10315217	4536930190	00001	2133384	Firestop wrap strip CFS-W P	8330	0001	             2	PC	PC	000010	680814971	58111270	HLI0550	8300	L03	9999	8330	10.09.2024	24.06.2024	0010	56271167	HLI0550	D256625006	0013256625	            0006	03.05.2024	       0
		4051473654		10315217	4536930204	00001	2007686	Jack screw DD-ST-150/160-JS	8330	0001	             1	PC	PC	000010	680814983	58111152	HLI0550	8300	L05	9999	8330	10.09.2024	24.06.2024	0190	56290257	HLI0550	D337863006	0013337863	            0006	14.06.2024	       0
		4051473654		10315217	4536930207	00001	2153651	ON!Track tag AI L5	8330	0001	           600	PC	PC	000010	680814985	58111156	HLI0550	8300	L13	9999	8330	10.09.2024	24.06.2024	0010	56288716	HLI0550	D335693001	0013335693	            0001	13.06.2024	       0
		4051473654		10315217	4536930208	00001	2248345	Cordl. angle grinder AG 4S-22-4.5 box	8330	0001	             1	PC	PC	000010	680814986	58110358	HLI0550	8300	L15	9999	8330	10.09.2024	24.06.2024	0020	56291743	HLI0550	D342570006	0013342570	            0006	17.06.2024	       0
		4051473654		10315217	4536930253	00001	285718	Cable trunking fastener X-ET MX	8330	0001	       160.000	PC	PC	000010	680815020	58109740	HLI0550	8300	L04	9999	8330	10.09.2024	24.06.2024	0030	56290280	HLI0550	D337829005	0013337829	            0005	15.06.2024	       0
		4051473655		10315217	4536930256	00001	2335646	Circ. saw blade SCBW WU SPX 190 A	8330	0001	             8	PC	PC	000010	680815022	58111154	HLI0550	8300	L09	9999	8330	10.09.2024	24.06.2024	0490	56232777	HLI0550	D226779015	0013226779	            0015	19.04.2024	      56
		4051473655		10315217	4536930265	00001	2283202	Diamond grinder DGH 130 230V	8330	0001	             4	PC	PC	000010	680815031	58110388	HLI0550	8300	L05	9999	8330	10.09.2024	24.06.2024	0010	56229557	HLI0550	D222188001	0013222188	            0001	17.04.2024	-56
		4051476728		10330548	4536966986	00001	2334277	Injectable mortar HY 200-R V3 500/1/WH	8330	0001	           320	PC	PC	000010	680845868	58115832	HLI0550	8300	L01	9999	8330	04.09.2024	01.07.2024	0130	56274123	HLI0550	D304769019	0013304769	            0019	31.05.2024	       0
		4051476728		10330548	4536966987	00001	203517	Firestop foam CP 660 INT	8330	0001	            80	PC	PC	000010	680845869	58117293	HLI0550	8300	L03	9999	8330	04.09.2024	01.07.2024	0080	56274123	HLI0550	D304769011	0013304769	            0011	31.05.2024	       0
		4051476729		10330548	4536966990	00001	2281190	Firestop coating CP 670 17,5kg	8330	0001	            24	PC	PC	000010	680845872	58116471	HLI0550	8300	L03	9999	8330	04.09.2024	01.07.2024	0020	56256617	HLI0550	D275686001	0013275686	            0001	14.05.2024	       7
		4051476729		10330548	4536966993	00001	2101534	Firestop sealant FS-ONE MAX 10.1OZ CART	8330	0001	           180	PC	PC	000010	680845874	58117296	HLI0550	8300	L03	9999	8330	04.09.2024	01.07.2024	0070	56297627	HLI0550	D354482004	0013354482	            0004	22.06.2024	       0
		4051476731		10330549	4536968643	00001	2341092	Hammer drill bit TE-CX 1/2"-6"	8330	0001	             8	PC	PC	000010	680847235	58116824	HLI0550	8300	L09	9999	8330	04.09.2024	01.07.2024	0030	56283005	HLI0550	D325634003	0013325634	            0003	07.06.2024	-7
		4051476731		10330549	4536968653	00001	2134761	Rotating laser PR 30-HVS A12	8330	0001	            16	PC	PC	000010	680847241	58114453	HLI0550	8300	L07	9999	8330	04.09.2024	01.07.2024	0360	56274048	HLI0550	D304711065	0013304711	            0065	30.05.2024	       0
		4051476731		10330549	4536968654	00001	2153651	ON!Track tag AI L5	8330	0001	           100	PC	PC	000010	680847242	58117288	HLI0550	8300	L13	9999	8330	04.09.2024	01.07.2024	0030	56284136	HLI0550	D327856004	0013327856	            0004	10.06.2024	       0
		4051476731		10330549	4536968656	00001	2194554	Cutting disc EQD SPX-SL 150 (2) univ	8330	0001	             2	PC	PC	000010	680847244	58116823	HLI0550	8300	L05	9999	8330	04.09.2024	01.07.2024	0110	56270129	HLI0550	D298761007	0013298761	            0007	27.05.2024	      28
		4051476731		10330549	4536968669	00001	2232382	Diamond grinder DGH 150 230V	8330	0001	             1	PC	PC	000010	680847253	58114239	HLI0550	8300	L05	9999	8330	04.09.2024	01.07.2024	0020	56270129	HLI0550	D298761004	0013298761	            0004	27.05.2024	      14
		4051476732		10330549	4536968726	00001	2341093	Hammer drill bit TE-CX 1/2"-12"	8330	0001	            50	PC	PC	000010	680847312	58117289	HLI0550	8300	L09	9999	8330	04.09.2024	01.07.2024	0020	56263860	HLI0550	D286376002	0013286376	            0002	21.05.2024	      28
		4051479397		10345486	4537020702	00001	2116103	Insulating foam CF-I 65  ECO	8330	0001	           336	PC	PC	000010	680889284	58122546	HLI0550	8300	L03	9999	8330	16.09.2024	10.07.2024	0050	56274123	HLI0550	D304769008	0013304769	            0008	31.05.2024	       0
		4051479382		10345487	4537020752	00001	2164508	Adhesive capsule HVU2 M16x125	8330	0001	           360	PC	PC	000010	680889334	58123169	HLI0550	8300	L01	9999	8330	16.09.2024	10.07.2024	0110	56274123	HLI0550	D304769016	0013304769	            0016	31.05.2024	       0
		4051479383		10345487	4537020755	00001	2164506	Adhesive capsule HVU2 M10x90	8330	0001	           180	PC	PC	000010	680889337	58123167	HLI0550	8300	L01	9999	8330	16.09.2024	10.07.2024	0010	56302225	HLI0550	D363795001	0013363795	            0001	26.06.2024	       0
		4051482027		10359788	4537044085	00001	2334277	Injectable mortar HY 200-R V3 500/1/WH	8330	0001	           320	PC	PC	000010	680907574	58127885	HLI0550	8300	L01	9999	8330	11.09.2024	15.07.2024	0020	56274123	HLI0550	D304769002	0013304769	            0002	31.05.2024	       0
		4051482028		10359788	4537044088	00001	338725	Firestop foam CP 620 US	8330	0001	            12	PC	PC	000010	680907577	58128766	HLI0550	8300	L03	9999	8330	11.09.2024	15.07.2024	0010	56308151	HLI0550	D380206001	0013380206	            0001	02.07.2024	       0
		4051482028		10359788	4537044099	00001	2031400	Injectable mortar HIT-MM PLUS 500/2	8330	0001	           480	PC	PC	000010	680907589	58127881	HLI0550	8300	L01	9999	8330	11.09.2024	15.07.2024	0040	56312552	HLI0550	D387265004	0013387265	            0004	08.07.2024	       0
		4051482029		10359789	4537044105	00001	2123404	Injectable mortar HIT-RE 500 V3/500/1	8330	0001	           480	PC	PC	000010	680907594	58128786	HLI0550	8300	L01	9999	8330	11.09.2024	15.07.2024	0020	56312552	HLI0550	D387265002	0013387265	            0002	08.07.2024	       0
		4051483650		10367403	4537061269	00001	2153651	ON!Track tag AI L5	8750	0001	           100	PC	PC	000010	680921273	58132170	HLI0550	8750	L13	9999	8750	20.08.2024	17.07.2024	0010	56312177	HLI0550	D386423001	0013386423	            0001	05.07.2024	       0
		4051483650		10367403	4537061280	00001	2252741	Nibbler SPN 6-22 CN case	8750	0001	             1	PC	PC	000010	680921284	58131542	HLI0550	8750	L15	9999	8750	20.08.2024	17.07.2024	0020	56305088	HLI0550	D368252002	0013368252	            0002	28.06.2024	       0
		4051484775		10369019	4537081697	00001	2116103	Insulating foam CF-I 65  ECO	8750	0001	           336	PC	PC	000010	680937761	58134748	HLI0550	8750	L03	9999	8750	18.09.2024	22.07.2024	0010	56315079	HLI0550	D393686003	0013393686	            0003	09.07.2024	-6
		4051484776		10369020	4537081705	00001	2031400	Injectable mortar HIT-MM PLUS 500/2	8750	0001	           480	PC	PC	000010	680937767	58133666	HLI0550	8750	L01	9999	8750	18.09.2024	22.07.2024	0030	56321306	HLI0550	D405551003	0013405551	            0003	16.07.2024	       0
		4051484849		10369021	4537081707	00001	2134761	Rotating laser PR 30-HVS A12	8750	0001	             2	PC	PC	000010	680937769	58133663	HLI0550	8750	L07	9999	8750	18.09.2024	22.07.2024	0020	56319282	HLI0550	D398956001	0013398956	            0001	12.07.2024	       0
		4051484849		10369021	4537081710	00001	2293565	Screw anchor HUS4-H 12x70 10/-/-	8750	0001	           150	PC	PC	000010	680937772	58134940	HLI0550	8750	L02	9999	8750	18.09.2024	22.07.2024	0010	56322417	HLI0550	D407247001	0013407247	            0001	16.07.2024	       0
		4051484849		10369021	4537081714	00001	2224291	Hammer drill bit  TE-C 8/16 MP8	8750	0001	             8	PC	PC	000010	680937776	58134254	HLI0550	8750	L09	9999	8750	18.09.2024	22.07.2024	0060	56205152	HLI0550	D171698007	0013171698	            0007	25.03.2024	     107
		4051484849		10369021	4537081741	00001	2261699	Core bit B 250/430 P-U abras	8750	0001	             1	PC	PC	000010	680937803	58133985	HLI0550	8750	L05	9999	8750	18.09.2024	22.07.2024	0140	56302481	HLI0550	D364671001	0013364671	            0001	27.06.2024	-6
		4051487499		10387791	4537117541	00001	2101918	Injectable mortar HIT-HY 170 500/2-EU	8330	0001	           160	PC	PC	000010	680967121	58134733	HLI0550	8300	L01	9999	8330	17.09.2024	29.07.2024	0010	56320324	HLI0550	D401826001	0013401826	            0001	15.07.2024	       7
		4051487499		10387791	4537117545	00001	2334277	Injectable mortar HY 200-R V3 500/1/WH	8330	0001	           320	PC	PC	000010	680967124	58133603	HLI0550	8300	L01	9999	8330	17.09.2024	29.07.2024	0040	56302225	HLI0550	D363795005	0013363795	            0005	26.06.2024	       7
		4051487499		10387791	4537117547	00001	2334277	Injectable mortar HY 200-R V3 500/1/WH	8330	0001	           480	PC	PC	000010	680967126	58139845	HLI0550	8300	L01	9999	8330	17.09.2024	29.07.2024	0060	56312552	HLI0550	D387265006	0013387265	            0006	08.07.2024	       0
		4051490405		10402067	4537152838	00001	2142303	Injectable mortar HIT-RE 10 580/1-WH	8330	0001	           288	PC	PC	000010	680995994	58145293	HLI0550	8300	L01	9999	8330	24.09.2024	05.08.2024	0010	56275397	HLI0550	D304748001	0013304748	            0001	30.05.2024	      56
		4051490406		10402068	4537152848	00001	2398669	Fire protec. cab. coating CP 679A Plus	8330	0001	             1	PC	PC	000010	680996014	58144733	HLI0550	8300	L03	9999	8330	24.09.2024	05.08.2024	0140	56322500	HLI0550	D407054013	0013407054	            0013	16.07.2024	       0
		4051490407		10402069	4537152851	00001	2261455	Core bit BI 22/320 SP-L abras	8330	0001	            16	PC	PC	000010	680996021	58145442	HLI0550	8300	L05	9999	8330	24.09.2024	05.08.2024	0070	56333379	HLI0550	D426673004	0013426673	            0004	27.07.2024	       0
		4051490407		10402069	4537152852	00001	2153650	ON!Track tag AI L2	8330	0001	         1.400	PC	PC	000010	680996023	58145440	HLI0550	8300	L13	9999	8330	24.09.2024	05.08.2024	0040	56333379	HLI0550	D426673008	0013426673	            0008	27.07.2024	       0
		4051490407		10402069	4537152853	00001	2383883	Inspection card S-IC BT	8330	0001	           100	PC	PC	000010	680996025	58145419	HLI0550	8300	L10	9999	8330	24.09.2024	05.08.2024	0010	56335215	HLI0550	D412011007	0013412011	            0007	18.07.2024	       7
		4051490407		10402069	4537152855	00001	2233560	Dia blade 180/22 SPX univ	8330	0001	            12	PC	PC	000010	680996027	58145444	HLI0550	8300	L05	9999	8330	24.09.2024	05.08.2024	0060	56327933	HLI0550	D418058018	0013418058	            0018	22.07.2024	       7
		4051490407		10402069	4537152878	00001	2133384	Firestop wrap strip CFS-W P	8330	0001	           240	PC	PC	000010	680996060	58145290	HLI0550	8300	L03	9999	8330	24.09.2024	05.08.2024	0130	56322500	HLI0550	D407054012	0013407054	            0012	16.07.2024	       0
		4051490408		10402069	4537152971	00001	2149475	Breaker TE 2000-AVR 230V	8330	0001	             8	PC	PC	000010	680996101	58145569	HLI0550	8300	L08	9999	8330	24.09.2024	05.08.2024	0100	56276851	HLI0550	D315834018	0013315834	            0018	03.06.2024	       0
		4051490766		10404488	4537154297	00001	2207023	Powder-actuated tool DX 5 GR	8330	0001	             1	PC	PC	000010	680997009	58146300	HLI0550	8300	L04	9999	8330	16.08.2024	05.08.2024	0010	56260286	HLI0550	D280280001	0013280280	            0001	16.05.2024	      19
		4051490767		10404488	4537154298	00001	2233560	Dia blade 180/22 SPX univ	8330	0001	             6	PC	PC	000010	680997011	58146668	HLI0550	8300	L05	9999	8330	16.08.2024	05.08.2024	0010	56297623	HLI0550	D354426001	0013354426	            0001	21.06.2024	      35
		4051492620		10414496	4537177450	00001	2273643	Channel end cap MT-EC-40/50	8750	0001	           100	PC	PC	000010	681015863	58150288	HLI0550	8750	L14	9999	8750	15.08.2024	08.08.2024	0010	56344294	HLI0550	D454060001	0013454060	            0001	08.08.2024	       0
		4051493245		10418223	4537187355	00001	2398669	Fire protec. cab. coating CP 679A Plus	8330	0001	             5	PC	PC	000010	681023969	58151531	HLI0550	8300	L03	9999	8330	23.08.2024	12.08.2024	0010	56340116	HLI0550	D444785001	0013444785	            0001	02.08.2024	       0
		4051493245		10418223	4537187356	00001	373103	Powder-actuated tool DX 351 M+E	8330	0001	             1	PC	PC	000010	681023970	58151334	HLI0550	8300	L04	9999	8330	23.08.2024	12.08.2024	0010	56327936	HLI0550	D418058045	0013418058	            0045	22.07.2024	       0
		4051493074		10415975	4537189536	00001	2361441	Stud holder S-SH BT M8	8302	0001	            40	PC	PC	000010	681025987	58150728	HLI0550	8300	L10	9999	8302	01.10.2024	12.08.2024	0020	56336084	HLI0550	D431591003	0013431591	            0003	29.07.2024	      57
		4051493076		10415976	4537189545	00001	2222545	Injectable mortar HIT-RE 100-HC 580/1	8330	0001	           156	PC	PC	000010	681025994	58150351	HLI0550	8300	L01	9999	8330	01.10.2024	12.08.2024	0010	56247948	HLI0550	D256389001	0013256389	            0001	03.05.2024	      91
		4051493076		10415976	4537189560	00001	2142303	Injectable mortar HIT-RE 10 580/1-WH	8330	0001	           288	PC	PC	000010	681026009	58150367	HLI0550	8300	L01	9999	8330	01.10.2024	12.08.2024	0010	56208892	HLI0550	D176960001	0013176960	            0001	27.03.2024	      63
		4051493077		10415976	4537189570	00001	2142303	Injectable mortar HIT-RE 10 580/1-WH	8330	0001	           288	PC	PC	000010	681026019	58150504	HLI0550	8300	L01	9999	8330	01.10.2024	12.08.2024	0010	56340273	HLI0550	D444936001	0013444936	            0001	02.08.2024	       0
		4051493077		10415976	4537189582	00001	2222545	Injectable mortar HIT-RE 100-HC 580/1	8330	0001	           288	PC	PC	000010	681026029	58150509	HLI0550	8300	L01	9999	8330	01.10.2024	12.08.2024	0010	56340274	HLI0550	D444937001	0013444937	            0001	02.08.2024	       0
		4051493078		10415977	4537189595	00001	2031400	Injectable mortar HIT-MM PLUS 500/2	8330	0001	           480	PC	PC	000010	681026042	58150375	HLI0550	8300	L01	9999	8330	01.10.2024	12.08.2024	0010	56337720	HLI0550	D435736001	0013435736	            0001	31.07.2024	       0
		4051493078		10415977	4537189599	00001	203517	Firestop foam CP 660 INT	8330	0001	            32	PC	PC	000010	681026046	58151240	HLI0550	8300	L03	9999	8330	01.10.2024	12.08.2024	0010	56329353	HLI0550	D420757001	0013420757	            0001	23.07.2024	       0
		4051493080		10415978	4537189601	00001	2116103	Insulating foam CF-I 65  ECO	8330	0001	           336	PC	PC	000010	681026048	58150494	HLI0550	8300	L03	9999	8330	01.10.2024	12.08.2024	0020	56329353	HLI0550	D420757003	0013420757	            0003	23.07.2024	       0
		4051493064		10415979	4537189611	00001	2153650	ON!Track tag AI L2	8330	0001	           600	PC	PC	000010	681026055	58150737	HLI0550	8300	L13	9999	8330	01.10.2024	12.08.2024	0040	56340146	HLI0550	D445225005	0013445225	            0005	03.08.2024	       0
		4051493064		10415979	4537189613	00001	2158330	Change module 57 SPX/SP-H abras	8330	0001	            18	PC	PC	000010	681026056	58150732	HLI0550	8300	L05	9999	8330	01.10.2024	12.08.2024	0010	56317613	HLI0550	D391312003	0013391312	            0003	09.07.2024	      14
		4051493064		10415979	4537189622	00001	2148677	Angle grinder AG 230-24D 230V box	8330	0001	             5	PC	PC	000010	681026061	58150329	HLI0550	8300	L08	9999	8330	01.10.2024	12.08.2024	0010	56327882	HLI0550	D418330001	0013418330	            0001	22.07.2024	-85
		4051493064		10415979	4537189624	00001	2107220	Measuring rod PUA 53 CM	8330	0001	            40	PC	PC	000010	681026063	58150447	HLI0550	8300	L07	9999	8330	01.10.2024	12.08.2024	0020	56340146	HLI0550	D445225002	0013445225	            0002	03.08.2024	       0
		4051493064		10415979	4537189625	00001	2143928	Guide rail SC GR-1400 2B kit	8330	0001	             3	PC	PC	000010	681026064	58150449	HLI0550	8300	L09	9999	8330	01.10.2024	12.08.2024	0140	56326375	HLI0550	D413601001	0013413601	            0001	19.07.2024	      14
		4051493064		10415979	4537189626	00001	2151638	Hammer drill bit TE-CX 14/47	8330	0001	             8	PC	PC	000010	681026065	58150725	HLI0550	8300	L09	9999	8330	01.10.2024	12.08.2024	0030	56341476	HLI0550	D449242004	0013449242	            0004	05.08.2024	       0
		4051493064		10415979	4537189648	00001	2156391	High performance nail X-P 24 B3 MX BULK	8330	0001	       180.000	PC	PC	000010	681026087	58150358	HLI0550	8300	L04	9999	8330	01.10.2024	12.08.2024	0010	56325791	HLI0550	D409766001	0013409766	            0001	17.07.2024	      14
		4051493065		10415979	4537189715	00001	2095266	Diamond coring tool DD 350-CA BL 220V	8330	0001	             1	PC	PC	000010	681026152	58150360	HLI0550	8300	L05	9999	8330	01.10.2024	12.08.2024	0010	56255418	HLI0550	D273729001	0013273729	            0001	13.05.2024	      70
		4051494014		10421312	4537197434	00001	2105891	Stud anchor HST3 M20x170 -/30	8750	0001	            10	PC	PC	000010	681032295	58153993	HLI0550	8750	L02	9999	8750	20.08.2024	13.08.2024	0010	56348268	HLI0550	D461679001	0013461679	            0001	12.08.2024	       0
		4051494340		10422345	4537203266	00001	2333179	Cordl. mixer NMX 6-22 box	8750	0001	             3	PC	PC	000010	681037402	58153891	HLI0550	8750	L15	9999	8750	10.09.2024	14.08.2024	0010	56345454	HLI0550	D455220001	0013455220	            0001	08.08.2024	       0
		4051494340		10422345	4537203268	00001	378246	Firestop coating CP 673 17,5kg	8750	0001	             1	PC	PC	000010	681037403	58153955	HLI0550	8750	L03	9999	8750	10.09.2024	14.08.2024	0010	56348172	HLI0550	D461237001	0013461237	            0001	12.08.2024	       0
		4051494340		10422345	4537203269	00001	2241993	Flat chisel TE-YX FM 70	8750	0001	             2	PC	PC	000010	681037404	58154574	HLI0550	8750	L09	9999	8750	10.09.2024	14.08.2024	0010	56326345	HLI0550	D413542002	0013413542	            0002	19.07.2024	       0
		4051484874		10373423	4537203309	00001	2341924	Tool balancer EXO-T-22	8330	0001	             5	PC	PC	000010	681037419	58135164	HLI0550	8300	L05	9999	8330	26.08.2024	14.08.2024	0010	56279434	HLI0550	D317979001	0013317979	            0001	04.06.2024	      20
		4051462466		10257757	4536772562	00001	2168877	Flat chisel TE-SX FM 70	8330	0001	             1	PC	PC	000010	680685494	58083935	HLI0550	8300	L09	9999	8330	14.08.2024	27.05.2024	0060	56261404	HLI0550	D282806016	0013282806	            0016	17.05.2024	       0
		4051462466		10257757	4536772575	00001	2107119	Tripod PUA 25	8330	0001	            16	PC	PC	000010	680685502	58083936	HLI0550	8300	L07	9999	8330	14.08.2024	27.05.2024	0010	56261552	HLI0550	D282309005	0013282309	            0005	18.05.2024	       0
		4051462466		10257757	4536772648	00001	432947	Cable tie with holder X-ECT 40 MX	8330	0001	        12.800	PC	PC	000010	680685530	58084008	HLI0550	8300	L04	9999	8330	14.08.2024	27.05.2024	0010	56253633	HLI0550	D267953001	0013267953	            0001	10.05.2024	       8
		4051462466		10257757	4536772653	00001	432947	Cable tie with holder X-ECT 40 MX	8330	0001	        12.800	PC	PC	000010	680685531	58084009	HLI0550	8300	L04	9999	8330	14.08.2024	27.05.2024	0010	56253633	HLI0550	D267953001	0013267953	            0001	10.05.2024	       8
		4051462466		10257757	4536772712	00001	2153650	ON!Track tag AI L2	8330	0001	         1.800	PC	PC	000010	680685551	58085131	HLI0550	8300	L13	9999	8330	14.08.2024	27.05.2024	0010	56255537	HLI0550	D273947006	0013273947	            0006	14.05.2024	       8
		4051462466		10257757	4536772721	00001	2167744	Breaker TE 1000-AVR 230V univ cord	8330	0001	            10	PC	PC	000010	680685554	58084433	HLI0550	8300	L08	9999	8330	14.08.2024	27.05.2024	0210	56232777	HLI0550	D226779047	0013226779	            0047	19.04.2024	       0
		4051462466		10257757	4536772724	00001	2167744	Breaker TE 1000-AVR 230V univ cord	8330	0001	            10	PC	PC	000010	680685555	58084434	HLI0550	8300	L08	9999	8330	14.08.2024	27.05.2024	0210	56232777	HLI0550	D226779047	0013226779	            0047	19.04.2024	       0
		4051462457		10257758	4536776829	00001	2164560	Adhesive capsule HVU2 M24x210	8330	0001	           160	PC	PC	000010	680689136	58085714	HLI0550	8300	L01	9999	8330	14.08.2024	27.05.2024	0020	56260534	HLI0550	D281736002	0013281736	            0002	17.05.2024	       0
		4051462457		10257758	4536776834	00001	2164508	Adhesive capsule HVU2 M16x125	8330	0001	           360	PC	PC	000010	680689141	58085674	HLI0550	8300	L01	9999	8330	14.08.2024	27.05.2024	0030	56248903	HLI0550	D260538005	0013260538	            0005	06.05.2024	       0
		4051462459		10257759	4536776836	00001	2123404	Injectable mortar HIT-RE 500 V3/500/1	8330	0001	           480	PC	PC	000010	680689143	58084011	HLI0550	8300	L01	9999	8330	14.08.2024	27.05.2024	0020	56253933	HLI0550	D256012002	0013256012	            0002	03.05.2024	       0
		4051462463		10259187	4536776876	00001	2146846	Breaker TE 500-AVR 220V	8330	0001	            20	PC	PC	000010	680689181	58083933	HLI0550	8300	L08	9999	8330	14.08.2024	27.05.2024	0080	56226152	HLI0550	D216927011	0013216927	            0011	15.04.2024	       0
		4051462463		10259187	4536776877	00001	2146846	Breaker TE 500-AVR 220V	8330	0001	            20	PC	PC	000010	680689182	58083938	HLI0550	8300	L08	9999	8330	14.08.2024	27.05.2024	0080	56226152	HLI0550	D216927011	0013216927	            0011	15.04.2024	       0
		4051465070		10267740	4536807984	00001	2134761	Rotating laser PR 30-HVS A12	8330	0001	            16	PC	PC	000010	680714314	58088660	HLI0550	8300	L07	9999	8330	02.09.2024	03.06.2024	0120	56255537	HLI0550	D273947015	0013273947	            0015	14.05.2024	       0
		4051465070		10267740	4536807986	00001	2283202	Diamond grinder DGH 130 230V	8330	0001	             4	PC	PC	000010	680714316	58090571	HLI0550	8300	L05	9999	8330	02.09.2024	03.06.2024	0010	56229490	HLI0550	D220279001	0013220279	            0001	17.04.2024	-49
		4051465070		10267740	4536807987	00001	2283202	Diamond grinder DGH 130 230V	8330	0001	             4	PC	PC	000010	680714317	58090572	HLI0550	8300	L05	9999	8330	02.09.2024	03.06.2024	0010	56229490	HLI0550	D220279001	0013220279	            0001	17.04.2024	-49
		4051465070		10267740	4536808002	00001	2314550	Batt.-actuated tool BX 3-ME-22 case	8330	0001	             9	PC	PC	000010	680714330	58088659	HLI0550	8300	L04	9999	8330	02.09.2024	03.06.2024	0100	56255537	HLI0550	D273947010	0013273947	            0010	14.05.2024	       0
		4051465070		10267740	4536808003	00001	2314529	Batt.-actuated tool BX 3-L-22 case	8330	0001	             9	PC	PC	000010	680714331	58088662	HLI0550	8300	L04	9999	8330	02.09.2024	03.06.2024	0010	56257028	HLI0550	D239966005	0013239966	            0005	26.04.2024	      28
		4051465071		10267740	4536808031	00001	2149226	Univ. cable tie holder X-UCT-E MX	8330	0001	        48.000	PC	PC	000010	680714356	58091079	HLI0550	8300	L04	9999	8330	02.09.2024	03.06.2024	0050	56265721	HLI0550	D289752012	0013289752	            0012	23.05.2024	       0
		4051465071		10267740	4536808032	00001	2149226	Univ. cable tie holder X-UCT-E MX	8330	0001	        48.000	PC	PC	000010	680714357	58091080	HLI0550	8300	L04	9999	8330	02.09.2024	03.06.2024	0050	56265721	HLI0550	D289752012	0013289752	            0012	23.05.2024	       0
		4051465071		10267740	4536808038	00001	2156390	High performance nail X-P 20 B3 MX BULK	8330	0001	       108.000	PC	PC	000010	680714369	58089960	HLI0550	8300	L04	9999	8330	02.09.2024	03.06.2024	0180	56265721	HLI0550	D289752014	0013289752	            0014	23.05.2024	       0
		4051465071		10267740	4536808047	00001	2156393	Steel nail X-S 14 B3 MX BULK	8330	0001	        72.000	PC	PC	000010	680714387	58089960	HLI0550	8300	L04	9999	8330	02.09.2024	03.06.2024	0050	56268599	HLI0550	D294360007	0013294360	            0007	25.05.2024	       0
		4051465074		10267741	4536808049	00001	2123404	Injectable mortar HIT-RE 500 V3/500/1	8330	0001	           480	PC	PC	000010	680714391	58089962	HLI0550	8300	L01	9999	8330	02.09.2024	03.06.2024	0030	56253933	HLI0550	D256012003	0013256012	            0003	03.05.2024	       0
		4051465078		10267742	4536808051	00001	2281190	Firestop coating CP 670 17,5kg	8330	0001	            24	PC	PC	000010	680714396	58090368	HLI0550	8300	L03	9999	8330	02.09.2024	03.06.2024	0010	56252627	HLI0550	D267184001	0013267184	            0001	09.05.2024	       7
		4051465078		10267742	4536808054	00001	2101918	Injectable mortar HIT-HY 170 500/2-EU	8330	0001	           120	PC	PC	000010	680714402	58091076	HLI0550	8300	L01	9999	8330	02.09.2024	03.06.2024	0010	56261394	HLI0550	D282520002	0013282520	            0002	17.05.2024	       0
		4051470941		10300738	4536889243	00001	2116103	Insulating foam CF-I 65  ECO	8330	0001	           336	PC	PC	000010	680780962	58104207	HLI0550	8300	L03	9999	8330	02.09.2024	17.06.2024	0040	56274123	HLI0550	D304769007	0013304769	            0007	31.05.2024	-7
		4051470942		10300738	4536889256	00001	2116103	Insulating foam CF-I 65  ECO	8330	0001	           336	PC	PC	000010	680780970	58104215	HLI0550	8300	L03	9999	8330	02.09.2024	17.06.2024	0020	56262166	HLI0550	D284145006	0013284145	            0006	20.05.2024	       7
		4051470945		10300740	4536890008	00001	2314529	Batt.-actuated tool BX 3-L-22 case	8330	0001	             9	PC	PC	000010	680781746	58103300	HLI0550	8300	L04	9999	8330	02.09.2024	17.06.2024	0010	56271113	HLI0550	D296031001	0013296031	            0001	27.05.2024	       7
		4051470945		10300740	4536890010	00001	2314529	Batt.-actuated tool BX 3-L-22 case	8330	0001	             9	PC	PC	000010	680781747	58103497	HLI0550	8300	L04	9999	8330	02.09.2024	17.06.2024	0010	56271113	HLI0550	D296031001	0013296031	            0001	27.05.2024	       7
		4051470945		10300740	4536890035	00001	2203668	Diamond coring tool DD 150-U 220V	8330	0001	             1	PC	PC	000010	680781759	58103611	HLI0550	8300	L05	9999	8330	02.09.2024	17.06.2024	0030	56268599	HLI0550	D294360003	0013294360	            0003	25.05.2024	       0
		4051470945		10300740	4536890073	00001	2251367	Hand-held battery cut-off saw DSH 600-22	8330	0001	             1	PC	PC	000010	680781779	58103735	HLI0550	8300	L05	9999	8330	02.09.2024	17.06.2024	0010	56280644	HLI0550	D304811053	0013304811	            0053	30.05.2024	       7
		4051470945		10300740	4536890107	00001	2346064	Threaded stud S-BT-MR M10/15 SN 6 HL	8330	0001	           400	PC	PC	000010	680781795	58104318	HLI0550	8300	L10	9999	8330	02.09.2024	17.06.2024	0020	56265376	HLI0550	D282309003	0013282309	            0003	18.05.2024	      21
		4051470945		10300740	4536890109	00001	2346064	Threaded stud S-BT-MR M10/15 SN 6 HL	8330	0001	           400	PC	PC	000010	680781796	58104318	HLI0550	8300	L10	9999	8330	02.09.2024	17.06.2024	0190	56265721	HLI0550	D289752008	0013289752	            0008	23.05.2024	       7
		4051470947		10300740	4536890155	00001	2167744	Breaker TE 1000-AVR 230V univ cord	8330	0001	            10	PC	PC	000010	680781820	58103115	HLI0550	8300	L08	9999	8330	02.09.2024	17.06.2024	0390	56232777	HLI0550	D226779071	0013226779	            0071	19.04.2024	       7
		4051470947		10300740	4536890233	00001	2314550	Batt.-actuated tool BX 3-ME-22 case	8330	0001	             9	PC	PC	000010	680781854	58102811	HLI0550	8300	L04	9999	8330	02.09.2024	17.06.2024	0010	56264815	HLI0550	D282817029	0013282817	            0029	18.05.2024	       7
		4051473456		10310997	4536929307	00001	2123404	Injectable mortar HIT-RE 500 V3/500/1	8750	0001	           480	PC	PC	000010	680814124	58110953	HLI0550	8750	L01	9999	8750	26.08.2024	24.06.2024	0050	56274135	HLI0550	D304655008	0013304655	            0008	31.05.2024	       0
		4051473646		10310999	4536929339	00001	2335646	Circ. saw blade SCBW WU SPX 190 A	8750	0001	             3	PC	PC	000010	680814142	58110829	HLI0550	8750	L09	9999	8750	26.08.2024	24.06.2024	0040	56239543	HLI0550	D239637001	0013239637	            0001	25.04.2024	      28
		4051473646		10310999	4536929410	00001	2293556	Screw anchor HUS4-H 10x100 45/25/15	8750	0001	         4.800	PC	PC	000010	680814209	58110166	HLI0550	8750	L02	9999	8750	26.08.2024	24.06.2024	0010	56262943	HLI0550	D284919001	0013284919	            0001	21.05.2024	       0
		4051473646		10310999	4536929411	00001	2293556	Screw anchor HUS4-H 10x100 45/25/15	8750	0001	         4.800	PC	PC	000010	680814210	58110167	HLI0550	8750	L02	9999	8750	26.08.2024	24.06.2024	0010	56262943	HLI0550	D284919001	0013284919	            0001	21.05.2024	       0
		4051473454		10315219	4536930078	00001	2123404	Injectable mortar HIT-RE 500 V3/500/1	8330	0001	            80	PC	PC	000010	680814893	58104213	HLI0550	8300	L01	9999	8330	10.09.2024	24.06.2024	0040	56253933	HLI0550	D256012004	0013256012	            0004	03.05.2024	       7
		4051473454		10315219	4536930083	00001	2222545	Injectable mortar HIT-RE 100-HC 580/1	8330	0001	           288	PC	PC	000010	680814896	58110865	HLI0550	8300	L01	9999	8330	10.09.2024	24.06.2024	0010	56205831	HLI0550	D166486001	0013166486	            0001	22.03.2024	      70
		4051473454		10315219	4536930124	00001	2123404	Injectable mortar HIT-RE 500 V3/500/1	8330	0001	           480	PC	PC	000010	680814918	58110956	HLI0550	8300	L01	9999	8330	10.09.2024	24.06.2024	0010	56253933	HLI0550	D256012001	0013256012	            0001	03.05.2024	       0
		4051473559		10315218	4536930129	00001	2101534	Firestop sealant FS-ONE MAX 10.1OZ CART	8330	0001	           180	PC	PC	000010	680814920	58103025	HLI0550	8300	L03	9999	8330	10.09.2024	24.06.2024	0120	56283094	HLI0550	D325805001	0013325805	            0001	08.06.2024	       7
		4051473559		10315218	4536930133	00001	2101534	Firestop sealant FS-ONE MAX 10.1OZ CART	8330	0001	           156	PC	PC	000010	680814922	58098288	HLI0550	8300	L03	9999	8330	10.09.2024	24.06.2024	0010	56272615	HLI0550	D302379001	0013302379	            0001	29.05.2024	      14
		4051473560		10315218	4536930139	00001	2281190	Firestop coating CP 670 17,5kg	8330	0001	            24	PC	PC	000010	680814925	58109441	HLI0550	8300	L03	9999	8330	10.09.2024	24.06.2024	0010	56256617	HLI0550	D275686002	0013275686	            0002	14.05.2024	       7
		4051473561		10315218	4536930146	00001	203517	Firestop foam CP 660 INT	8330	0001	            32	PC	PC	000010	680814929	58111841	HLI0550	8300	L03	9999	8330	10.09.2024	24.06.2024	0010	56289082	HLI0550	D336387001	0013336387	            0001	14.06.2024	       0
		4051473653		10315217	4536930151	00001	2261680	Core bit B 42/430 P-U abras	8330	0001	             8	PC	PC	000010	680814933	58111264	HLI0550	8300	L05	9999	8330	10.09.2024	24.06.2024	0080	56274048	HLI0550	D304711040	0013304711	            0040	30.05.2024	-14
		4051473653		10315217	4536930152	00001	2261680	Core bit B 42/430 P-U abras	8330	0001	             8	PC	PC	000010	680814934	58111268	HLI0550	8300	L05	9999	8330	10.09.2024	24.06.2024	0080	56274048	HLI0550	D304711040	0013304711	            0040	30.05.2024	-14
		4051473653		10315217	4536930173	00001	2203668	Diamond coring tool DD 150-U 220V	8330	0001	             1	PC	PC	000010	680814955	58110390	HLI0550	8300	L05	9999	8330	10.09.2024	24.06.2024	0010	56274164	HLI0550	D305102001	0013305102	            0001	31.05.2024	       0
		4051473653		10315217	4536930174	00001	2203668	Diamond coring tool DD 150-U 220V	8330	0001	             1	PC	PC	000010	680814956	58110486	HLI0550	8300	L05	9999	8330	10.09.2024	24.06.2024	0070	56275166	HLI0550	D306005009	0013306005	            0009	01.06.2024	       0
		4051473653		10315217	4536930195	00001	2346060	Threaded stud S-BT-MF M10/15 AN 6 HL	8330	0001	           100	PC	PC	000010	680814975	58111270	HLI0550	8300	L10	9999	8330	10.09.2024	24.06.2024	0370	56274032	HLI0550	D304811019	0013304811	            0019	30.05.2024	      14
		4051473653		10315217	4536930197	00001	2346060	Threaded stud S-BT-MF M10/15 AN 6 HL	8330	0001	           200	PC	PC	000010	680814977	58111270	HLI0550	8300	L10	9999	8330	10.09.2024	24.06.2024	0380	56274032	HLI0550	D304811037	0013304811	            0037	30.05.2024	       7
		4051473654		10315217	4536930203	00001	2199635	Core bit BI 28/320 SP-L abras	8330	0001	            32	PC	PC	000010	680814982	58111153	HLI0550	8300	L05	9999	8330	10.09.2024	24.06.2024	0210	56261542	HLI0550	D282817023	0013282817	            0023	18.05.2024	      35
		4051473654		10315217	4536930206	00001	2361441	Stud holder S-SH BT M8	8330	0001	             6	PC	PC	000010	680814984	58111152	HLI0550	8300	L10	9999	8330	10.09.2024	24.06.2024	0070	56290280	HLI0550	D337829004	0013337829	            0004	15.06.2024	       0
		4051473654		10315217	4536930209	00001	2079843	Protective cover D115	8330	0001	             5	PC	PC	000010	680814987	58111161	HLI0550	8300	L09	9999	8330	10.09.2024	24.06.2024	0030	56291743	HLI0550	D342570007	0013342570	            0007	17.06.2024	       0
		4051473654		10315217	4536930210	00001	2232598	Flat chisel TE-Y FM 40 (5)	8330	0001	             5	PC	PC	000010	680814988	58111162	HLI0550	8300	L09	9999	8330	10.09.2024	24.06.2024	0040	56291743	HLI0550	D342570009	0013342570	            0009	17.06.2024	       0
		4051473654		10315217	4536930227	00001	2241985	Pointed chisel TE-YX SM 70	8330	0001	             7	PC	PC	000010	680815000	58111200	HLI0550	8300	L09	9999	8330	10.09.2024	24.06.2024	0110	56288770	HLI0550	D335878019	0013335878	            0019	13.06.2024	       0
		4051473654		10315217	4536930255	00001	2107119	Tripod PUA 25	8330	0001	            16	PC	PC	000010	680815021	58111198	HLI0550	8300	L07	9999	8330	10.09.2024	24.06.2024	0040	56290280	HLI0550	D337829006	0013337829	            0006	15.06.2024	       0
		4051473655		10315217	4536930257	00001	2335646	Circ. saw blade SCBW WU SPX 190 A	8330	0001	             8	PC	PC	000010	680815023	58111154	HLI0550	8300	L09	9999	8330	10.09.2024	24.06.2024	0200	56242623	HLI0550	D245716005	0013245716	            0005	29.04.2024	      49
		4051473655		10315217	4536930266	00001	2283202	Diamond grinder DGH 130 230V	8330	0001	             4	PC	PC	000010	680815032	58110658	HLI0550	8300	L05	9999	8330	10.09.2024	24.06.2024	0010	56229557	HLI0550	D222188001	0013222188	            0001	17.04.2024	-56
		4051473655		10315217	4536930267	00001	2283202	Diamond grinder DGH 130 230V	8330	0001	             4	PC	PC	000010	680815033	58110661	HLI0550	8300	L05	9999	8330	10.09.2024	24.06.2024	0010	56229557	HLI0550	D222188001	0013222188	            0001	17.04.2024	-56
		4051476729		10330548	4536966988	00001	2281190	Firestop coating CP 670 17,5kg	8330	0001	            24	PC	PC	000010	680845870	58116609	HLI0550	8300	L03	9999	8330	04.09.2024	01.07.2024	0020	56256617	HLI0550	D275686001	0013275686	            0001	14.05.2024	       7
		4051476731		10330549	4536968645	00001	2341092	Hammer drill bit TE-CX 1/2"-6"	8330	0001	             8	PC	PC	000010	680847236	58116824	HLI0550	8300	L09	9999	8330	04.09.2024	01.07.2024	0040	56283005	HLI0550	D325634004	0013325634	            0004	07.06.2024	-14
		4051476731		10330549	4536968647	00001	2341092	Hammer drill bit TE-CX 1/2"-6"	8330	0001	             8	PC	PC	000010	680847238	58116824	HLI0550	8300	L09	9999	8330	04.09.2024	01.07.2024	0070	56283005	HLI0550	D325634015	0013325634	            0015	07.06.2024	-21
		4051476731		10330549	4536968658	00001	2149226	Univ. cable tie holder X-UCT-E MX	8330	0001	         3.000	PC	PC	000010	680847245	58116823	HLI0550	8300	L04	9999	8330	04.09.2024	01.07.2024	0370	56274048	HLI0550	D304711080	0013304711	            0080	30.05.2024	-7
		4051476731		10330549	4536968661	00001	2149226	Univ. cable tie holder X-UCT-E MX	8330	0001	        24.000	PC	PC	000010	680847247	58116828	HLI0550	8300	L04	9999	8330	04.09.2024	01.07.2024	0370	56274048	HLI0550	D304711080	0013304711	            0080	30.05.2024	-7
		4051476731		10330549	4536968672	00001	2314529	Batt.-actuated tool BX 3-L-22 case	8330	0001	             9	PC	PC	000010	680847255	58114476	HLI0550	8300	L04	9999	8330	04.09.2024	01.07.2024	0010	56271114	HLI0550	D296032001	0013296032	            0001	27.05.2024	      21
		4051476731		10330549	4536968674	00001	2314529	Batt.-actuated tool BX 3-L-22 case	8330	0001	             9	PC	PC	000010	680847256	58114490	HLI0550	8300	L04	9999	8330	04.09.2024	01.07.2024	0010	56271114	HLI0550	D296032001	0013296032	            0001	27.05.2024	      21
		4051479397		10345486	4537020703	00001	2116103	Insulating foam CF-I 65  ECO	8330	0001	           336	PC	PC	000010	680889285	58122545	HLI0550	8300	L03	9999	8330	16.09.2024	10.07.2024	0050	56274123	HLI0550	D304769008	0013304769	            0008	31.05.2024	       0
		4051479383		10345487	4537020756	00001	2101534	Firestop sealant FS-ONE MAX 10.1OZ CART	8330	0001	           624	PC	PC	000010	680889338	58123209	HLI0550	8300	L03	9999	8330	16.09.2024	10.07.2024	0020	56302225	HLI0550	D363795003	0013363795	            0003	26.06.2024	       0
		4051482027		10359788	4537044086	00001	2164506	Adhesive capsule HVU2 M10x90	8330	0001	           240	PC	PC	000010	680907575	58128708	HLI0550	8300	L01	9999	8330	11.09.2024	15.07.2024	0060	56274123	HLI0550	D304769009	0013304769	            0009	31.05.2024	       0
		4051482028		10359788	4537044089	00001	203517	Firestop foam CP 660 INT	8330	0001	            64	PC	PC	000010	680907579	58128766	HLI0550	8300	L03	9999	8330	11.09.2024	15.07.2024	0010	56311343	HLI0550	D385380001	0013385380	            0001	05.07.2024	       0
		4051482028		10359788	4537044096	00001	2398669	Fire protec. cab. coating CP 679A Plus	8330	0001	            14	PC	PC	000010	680907585	58127631	HLI0550	8300	L03	9999	8330	11.09.2024	15.07.2024	0010	56311714	HLI0550	D384684001	0013384684	            0001	04.07.2024	       0
		4051482029		10359789	4537044106	00001	2123404	Injectable mortar HIT-RE 500 V3/500/1	8330	0001	           480	PC	PC	000010	680907595	58128780	HLI0550	8300	L01	9999	8330	11.09.2024	15.07.2024	0020	56312552	HLI0550	D387265002	0013387265	            0002	08.07.2024	       0
		4051483650		10367403	4537061284	00001	2305643	Diamond wire DS-W 10.2-100m EP SP-L C&S	8750	0001	           100	M	M	000010	680921288	58131690	HLI0550	8750	L12	9999	8750	20.08.2024	17.07.2024	0010	56319590	HLI0550	D398958001	0013398958	            0001	12.07.2024	       0
		4051484775		10369019	4537081698	00001	2116103	Insulating foam CF-I 65  ECO	8750	0001	            60	PC	PC	000010	680937762	58134747	HLI0550	8750	L03	9999	8750	18.09.2024	22.07.2024	0010	56315079	HLI0550	D393686003	0013393686	            0003	09.07.2024	-6
		4051484776		10369020	4537081702	00001	2334277	Injectable mortar HY 200-R V3 500/1/WH	8750	0001	           480	PC	PC	000010	680937765	58133665	HLI0550	8750	L01	9999	8750	18.09.2024	22.07.2024	0010	56321306	HLI0550	D405551001	0013405551	            0001	16.07.2024	       0
		4051484849		10369021	4537081708	00001	2134761	Rotating laser PR 30-HVS A12	8750	0001	             1	PC	PC	000010	680937770	58134450	HLI0550	8750	L07	9999	8750	18.09.2024	22.07.2024	0020	56319282	HLI0550	D398956001	0013398956	            0001	12.07.2024	       0
		4051484849		10369021	4537081711	00001	338720	Dispenser DSC box	8750	0001	             9	PC	PC	000010	680937773	58135137	HLI0550	8750	L03	9999	8750	18.09.2024	22.07.2024	0010	56322497	HLI0550	D407055001	0013407055	            0001	16.07.2024	       0
		4051484849		10369021	4537081742	00001	2261699	Core bit B 250/430 P-U abras	8750	0001	             1	PC	PC	000010	680937804	58134129	HLI0550	8750	L05	9999	8750	18.09.2024	22.07.2024	0140	56302481	HLI0550	D364671001	0013364671	            0001	27.06.2024	-6
		4051487499		10387791	4537117543	00001	2101918	Injectable mortar HIT-HY 170 500/2-EU	8330	0001	            20	PC	PC	000010	680967122	58134734	HLI0550	8300	L01	9999	8330	17.09.2024	29.07.2024	0010	56320324	HLI0550	D401826001	0013401826	            0001	15.07.2024	       7
		4051487499		10387791	4537117546	00001	2334277	Injectable mortar HY 200-R V3 500/1/WH	8330	0001	           160	PC	PC	000010	680967125	58133603	HLI0550	8300	L01	9999	8330	17.09.2024	29.07.2024	0040	56302225	HLI0550	D363795005	0013363795	            0005	26.06.2024	       7
		4051487499		10387791	4537117548	00001	2334277	Injectable mortar HY 200-R V3 500/1/WH	8330	0001	           480	PC	PC	000010	680967127	58139844	HLI0550	8300	L01	9999	8330	17.09.2024	29.07.2024	0060	56312552	HLI0550	D387265006	0013387265	            0006	08.07.2024	       0
		4051490405		10402067	4537152839	00001	2142303	Injectable mortar HIT-RE 10 580/1-WH	8330	0001	           288	PC	PC	000010	680995997	58145294	HLI0550	8300	L01	9999	8330	24.09.2024	05.08.2024	0010	56275397	HLI0550	D304748001	0013304748	            0001	30.05.2024	      56
		4051490406		10402068	4537152849	00001	209625	FS joint filler CP 606 310ml white	8330	0001	            40	PC	PC	000010	680996016	58146143	HLI0550	8300	L03	9999	8330	24.09.2024	05.08.2024	0010	56333959	HLI0550	D428924001	0013428924	            0001	29.07.2024	       0
		4051490407		10402069	4537152856	00001	2233560	Dia blade 180/22 SPX univ	8330	0001	            10	PC	PC	000010	680996030	58145445	HLI0550	8300	L05	9999	8330	24.09.2024	05.08.2024	0060	56327933	HLI0550	D418058018	0013418058	            0018	22.07.2024	       7
		4051490407		10402069	4537152857	00001	2151633	Hammer drill bit TE-CX 12.5/22	8330	0001	             5	PC	PC	000010	680996032	58145445	HLI0550	8300	L09	9999	8330	24.09.2024	05.08.2024	0010	56335575	HLI0550	D431231001	0013431231	            0001	29.07.2024	       0
		4051490407		10402069	4537152880	00001	2133384	Firestop wrap strip CFS-W P	8330	0001	           240	PC	PC	000010	680996061	58145289	HLI0550	8300	L03	9999	8330	24.09.2024	05.08.2024	0130	56322500	HLI0550	D407054012	0013407054	            0012	16.07.2024	       0
		4051490407		10402069	4537152895	00001	2133384	Firestop wrap strip CFS-W P	8330	0001	           240	PC	PC	000010	680996067	58145291	HLI0550	8300	L03	9999	8330	24.09.2024	05.08.2024	0010	56325743	HLI0550	D411416001	0013411416	            0001	18.07.2024	       0
		4051490408		10402069	4537152973	00001	2149475	Breaker TE 2000-AVR 230V	8330	0001	             8	PC	PC	000010	680996102	58145581	HLI0550	8300	L08	9999	8330	24.09.2024	05.08.2024	0100	56276851	HLI0550	D315834018	0013315834	            0018	03.06.2024	       0
		4051490408		10402069	4537152976	00001	2229065	Breaker TE 3000-AVR 230V	8330	0001	             3	PC	PC	000010	680996103	58145572	HLI0550	8300	L08	9999	8330	24.09.2024	05.08.2024	0150	56276851	HLI0550	D315834004	0013315834	            0004	03.06.2024	       0
		4051490767		10404488	4537154302	00001	2341099	Hammer drill bit TE-CX 5/8"-8"	8330	0001	            55	PC	PC	000010	680997016	58146668	HLI0550	8300	L09	9999	8330	16.08.2024	05.08.2024	0010	56337758	HLI0550	D435439001	0013435439	            0001	31.07.2024	       0
		4051493245		10418223	4537187359	00001	2156391	High performance nail X-P 24 B3 MX BULK	8330	0001	       180.000	PC	PC	000010	681023972	58151916	HLI0550	8300	L04	9999	8330	23.08.2024	12.08.2024	0020	56329798	HLI0550	D420526002	0013420526	            0002	23.07.2024	      14
		4051493074		10415975	4537189538	00001	2349158	Grating disc X-FCM-R 28/33	8302	0001	         2.400	PC	PC	000010	681025988	58151235	HLI0550	8300	L04	9999	8302	01.10.2024	12.08.2024	0050	56336084	HLI0550	D431591002	0013431591	            0002	29.07.2024	      99
		4051493076		10415976	4537189547	00001	2222545	Injectable mortar HIT-RE 100-HC 580/1	8330	0001	           132	PC	PC	000010	681025996	58150351	HLI0550	8300	L01	9999	8330	01.10.2024	12.08.2024	0010	56247948	HLI0550	D256389001	0013256389	            0001	03.05.2024	      91
		4051493076		10415976	4537189548	00001	2222545	Injectable mortar HIT-RE 100-HC 580/1	8330	0001	           288	PC	PC	000010	681025997	58150357	HLI0550	8300	L01	9999	8330	01.10.2024	12.08.2024	0010	56247948	HLI0550	D256389001	0013256389	            0001	03.05.2024	      91
		4051493076		10415976	4537189554	00001	2142303	Injectable mortar HIT-RE 10 580/1-WH	8330	0001	           288	PC	PC	000010	681026003	58150361	HLI0550	8300	L01	9999	8330	01.10.2024	12.08.2024	0010	56208892	HLI0550	D176960001	0013176960	            0001	27.03.2024	      63
		4051493076		10415976	4537189561	00001	2142303	Injectable mortar HIT-RE 10 580/1-WH	8330	0001	           288	PC	PC	000010	681026010	58150368	HLI0550	8300	L01	9999	8330	01.10.2024	12.08.2024	0010	56208892	HLI0550	D176960001	0013176960	            0001	27.03.2024	      63
		4051493077		10415976	4537189571	00001	2142303	Injectable mortar HIT-RE 10 580/1-WH	8330	0001	           288	PC	PC	000010	681026020	58150506	HLI0550	8300	L01	9999	8330	01.10.2024	12.08.2024	0010	56340273	HLI0550	D444936001	0013444936	            0001	02.08.2024	       0
		4051493077		10415976	4537189573	00001	2142303	Injectable mortar HIT-RE 10 580/1-WH	8330	0001	           288	PC	PC	000010	681026021	58150508	HLI0550	8300	L01	9999	8330	01.10.2024	12.08.2024	0010	56340273	HLI0550	D444936001	0013444936	            0001	02.08.2024	       0
		4051493077		10415976	4537189583	00001	2222545	Injectable mortar HIT-RE 100-HC 580/1	8330	0001	           288	PC	PC	000010	681026030	58150489	HLI0550	8300	L01	9999	8330	01.10.2024	12.08.2024	0010	56340274	HLI0550	D444937001	0013444937	            0001	02.08.2024	       0
		4051493077		10415976	4537189584	00001	2222545	Injectable mortar HIT-RE 100-HC 580/1	8330	0001	           288	PC	PC	000010	681026031	58150510	HLI0550	8300	L01	9999	8330	01.10.2024	12.08.2024	0010	56340274	HLI0550	D444937001	0013444937	            0001	02.08.2024	       0
		4051493078		10415977	4537189594	00001	2398669	Fire protec. cab. coating CP 679A Plus	8330	0001	             5	PC	PC	000010	681026041	58150451	HLI0550	8300	L03	9999	8330	01.10.2024	12.08.2024	0050	56329353	HLI0550	D420757005	0013420757	            0005	23.07.2024	       0
		4051493078		10415977	4537189600	00001	203517	Firestop foam CP 660 INT	8330	0001	            32	PC	PC	000010	681026047	58152046	HLI0550	8300	L03	9999	8330	01.10.2024	12.08.2024	0010	56329353	HLI0550	D420757001	0013420757	            0001	23.07.2024	       0
		4051493080		10415978	4537189602	00001	2116103	Insulating foam CF-I 65  ECO	8330	0001	           336	PC	PC	000010	681026049	58150493	HLI0550	8300	L03	9999	8330	01.10.2024	12.08.2024	0020	56329353	HLI0550	D420757003	0013420757	            0003	23.07.2024	       0
		4051493064		10415979	4537189617	00001	2158330	Change module 57 SPX/SP-H abras	8330	0001	            24	PC	PC	000010	681026058	58150732	HLI0550	8300	L05	9999	8330	01.10.2024	12.08.2024	0010	56323125	HLI0550	D407362001	0013407362	            0001	17.07.2024	       7
		4051493064		10415979	4537189620	00001	2158331	Change module 62 SPX/SP-H abras	8330	0001	            12	PC	PC	000010	681026060	58150732	HLI0550	8300	L05	9999	8330	01.10.2024	12.08.2024	0080	56333379	HLI0550	D426673007	0013426673	            0007	27.07.2024	       7
		4051493064		10415979	4537189623	00001	2148677	Angle grinder AG 230-24D 230V box	8330	0001	             5	PC	PC	000010	681026062	58150329	HLI0550	8300	L08	9999	8330	01.10.2024	12.08.2024	0010	56340978	HLI0550	D446543001	0013446543	            0001	05.08.2024	       0
		4051493064		10415979	4537189627	00001	2341237	Pointed chisel TE-SX SM 36	8330	0001	            15	PC	PC	000010	681026066	58150727	HLI0550	8300	L09	9999	8330	01.10.2024	12.08.2024	0010	56342354	HLI0550	D450301001	0013450301	            0001	06.08.2024	       0
		4051493064		10415979	4537189629	00001	2167744	Breaker TE 1000-AVR 230V univ cord	8330	0001	            10	PC	PC	000010	681026068	58150412	HLI0550	8300	L08	9999	8330	01.10.2024	12.08.2024	0010	56291815	HLI0550	D341658001	0013341658	            0001	17.06.2024	       0
		4051493064		10415979	4537189636	00001	2333179	Cordl. mixer NMX 6-22 box	8330	0001	             1	PC	PC	000010	681026075	58150891	HLI0550	8300	L15	9999	8330	01.10.2024	12.08.2024	0130	56296328	HLI0550	D352701022	0013352701	            0022	20.06.2024	       0
		4051493065		10415979	4537189714	00001	2095266	Diamond coring tool DD 350-CA BL 220V	8330	0001	             1	PC	PC	000010	681026151	58150845	HLI0550	8300	L05	9999	8330	01.10.2024	12.08.2024	0100	56252183	HLI0550	D266169048	0013266169	            0048	09.05.2024	      70
		4051494341		10422345	4537203285	00001	2197931	Stepped drill bit TX-BT 4.7/7-110	8750	0001	            40	PC	PC	000010	681037415	58154757	HLI0550	8750	L04	9999	8750	10.09.2024	14.08.2024	0010	56322676	HLI0550	D407118001	0013407118	            0001	16.07.2024	       0
		4051462466		10257757	4536772565	00001	2333179	Cordl. mixer NMX 6-22 box	8330	0001	             6	PC	PC	000010	680685496	58084555	HLI0550	8300	L15	9999	8330	14.08.2024	27.05.2024	0090	56261404	HLI0550	D282806019	0013282806	            0019	17.05.2024	       0
		4051462466		10257757	4536772657	00001	432947	Cable tie with holder X-ECT 40 MX	8330	0001	        12.800	PC	PC	000010	680685532	58083993	HLI0550	8300	L04	9999	8330	14.08.2024	27.05.2024	0010	56253633	HLI0550	D267953001	0013267953	            0001	10.05.2024	       8
		4051462466		10257757	4536772715	00001	2261727	Core bit B 77/430+ P-U abras	8330	0001	             1	PC	PC	000010	680685552	58085505	HLI0550	8300	L05	9999	8330	14.08.2024	27.05.2024	0140	56231481	HLI0550	D224992007	0013224992	            0007	19.04.2024	      28
		4051462457		10257758	4536776831	00001	2101534	Firestop sealant FS-ONE MAX 10.1OZ CART	8330	0001	           216	PC	PC	000010	680689138	58085675	HLI0550	8300	L03	9999	8330	14.08.2024	27.05.2024	0030	56199171	HLI0550	D159569006	0013159569	            0006	20.03.2024	       0
		4051462463		10259187	4536776879	00001	2229065	Breaker TE 3000-AVR 230V	8330	0001	             5	PC	PC	000010	680689184	58083940	HLI0550	8300	L08	9999	8330	14.08.2024	27.05.2024	0100	56226152	HLI0550	D216927005	0013216927	            0005	15.04.2024	       0
		4051465070		10267740	4536807988	00001	2283202	Diamond grinder DGH 130 230V	8330	0001	             4	PC	PC	000010	680714318	58090573	HLI0550	8300	L05	9999	8330	02.09.2024	03.06.2024	0010	56229490	HLI0550	D220279001	0013220279	            0001	17.04.2024	-49
		4051465070		10267740	4536807994	00001	2203668	Diamond coring tool DD 150-U 220V	8330	0001	             6	PC	PC	000010	680714324	58090065	HLI0550	8300	L05	9999	8330	02.09.2024	03.06.2024	0010	56250900	HLI0550	D264364002	0013264364	            0002	08.05.2024	       0
		4051465071		10267740	4536808027	00001	2217525	Threaded stud X-BT-MR0 M10/15 SN 8	8330	0001	           500	PC	PC	000010	680714352	58091071	HLI0550	8300	L04	9999	8330	02.09.2024	03.06.2024	0010	56265377	HLI0550	D284298001	0013284298	            0001	20.05.2024	       7
		4051465071		10267740	4536808042	00001	304006	Bracket MQK-41/450-R	8330	0001	            20	PC	PC	000010	680714378	58090457	HLI0550	8300	L06	9999	8330	02.09.2024	03.06.2024	0030	56268519	HLI0550	D294355008	0013294355	            0008	24.05.2024	       0
		4051465078		10267742	4536808052	00001	2281190	Firestop coating CP 670 17,5kg	8330	0001	            24	PC	PC	000010	680714398	58090406	HLI0550	8300	L03	9999	8330	02.09.2024	03.06.2024	0010	56252627	HLI0550	D267184001	0013267184	            0001	09.05.2024	       7
		4051470941		10300738	4536889246	00001	2116103	Insulating foam CF-I 65  ECO	8330	0001	           336	PC	PC	000010	680780963	58104204	HLI0550	8300	L03	9999	8330	02.09.2024	17.06.2024	0040	56274123	HLI0550	D304769007	0013304769	            0007	31.05.2024	-7
		4051470942		10300738	4536889258	00001	2116103	Insulating foam CF-I 65  ECO	8330	0001	           336	PC	PC	000010	680780971	58104220	HLI0550	8300	L03	9999	8330	02.09.2024	17.06.2024	0020	56262166	HLI0550	D284145006	0013284145	            0006	20.05.2024	       7
		4051470945		10300740	4536890012	00001	2314529	Batt.-actuated tool BX 3-L-22 case	8330	0001	             9	PC	PC	000010	680781748	58103301	HLI0550	8300	L04	9999	8330	02.09.2024	17.06.2024	0010	56271113	HLI0550	D296031001	0013296031	            0001	27.05.2024	       7
		4051470945		10300740	4536890027	00001	2194592	Batt.-actuated tool BX 3-BTG A22 case	8330	0001	             1	PC	PC	000010	680781755	58103768	HLI0550	8300	L04	9999	8330	02.09.2024	17.06.2024	0100	56265721	HLI0550	D289752013	0013289752	            0013	23.05.2024	      14
		4051470945		10300740	4536890119	00001	2197930	Stepped drill bit TX-BT 4.7/7-80	8330	0001	            70	PC	PC	000010	680781801	58104318	HLI0550	8300	L04	9999	8330	02.09.2024	17.06.2024	0070	56283094	HLI0550	D325805013	0013325805	            0013	08.06.2024	       0
		4051470947		10300740	4536890157	00001	2167744	Breaker TE 1000-AVR 230V univ cord	8330	0001	            10	PC	PC	000010	680781821	58103116	HLI0550	8300	L08	9999	8330	02.09.2024	17.06.2024	0390	56232777	HLI0550	D226779071	0013226779	            0071	19.04.2024	       7
		4051473456		10310997	4536929308	00001	2123404	Injectable mortar HIT-RE 500 V3/500/1	8750	0001	           480	PC	PC	000010	680814125	58110950	HLI0550	8750	L01	9999	8750	26.08.2024	24.06.2024	0050	56274135	HLI0550	D304655008	0013304655	            0008	31.05.2024	       0
		4051473554		10310998	4536929328	00001	2164560	Adhesive capsule HVU2 M24x210	8750	0001	            15	PC	PC	000010	680814136	58111167	HLI0550	8750	L01	9999	8750	26.08.2024	24.06.2024	0010	56274135	HLI0550	D304655002	0013304655	            0002	31.05.2024	       0
		4051473646		10310999	4536929344	00001	2018415	Anchor rod HIT-Z M12x196	8750	0001	            20	PC	PC	000010	680814145	58110829	HLI0550	8750	L01	9999	8750	26.08.2024	24.06.2024	0010	56291825	HLI0550	D343529001	0013343529	            0001	17.06.2024	       0
		4051473646		10310999	4536929440	00001	2287620	Anchor rod HIT-Z M10x115	8750	0001	         5.120	PC	PC	000010	680814229	58110165	HLI0550	8750	L01	9999	8750	26.08.2024	24.06.2024	0010	56290266	HLI0550	D337180001	0013337180	            0001	14.06.2024	       0
		4051473454		10315219	4536930079	00001	2123404	Injectable mortar HIT-RE 500 V3/500/1	8330	0001	           480	PC	PC	000010	680814894	58104212	HLI0550	8300	L01	9999	8330	10.09.2024	24.06.2024	0040	56253933	HLI0550	D256012004	0013256012	            0004	03.05.2024	       7
		4051473454		10315219	4536930085	00001	2222545	Injectable mortar HIT-RE 100-HC 580/1	8330	0001	           288	PC	PC	000010	680814897	58110864	HLI0550	8300	L01	9999	8330	10.09.2024	24.06.2024	0010	56205831	HLI0550	D166486001	0013166486	            0001	22.03.2024	      70
		4051473560		10315218	4536930140	00001	2281190	Firestop coating CP 670 17,5kg	8330	0001	            24	PC	PC	000010	680814926	58109442	HLI0550	8300	L03	9999	8330	10.09.2024	24.06.2024	0010	56256617	HLI0550	D275686002	0013275686	            0002	14.05.2024	       7
		4051473653		10315217	4536930150	00001	2158330	Change module 57 SPX/SP-H abras	8330	0001	            12	PC	PC	000010	680814932	58111279	HLI0550	8300	L05	9999	8330	10.09.2024	24.06.2024	0280	56274032	HLI0550	D304811023	0013304811	            0023	30.05.2024	-7
		4051473653		10315217	4536930159	00001	2216317	Diamond coring tool DD 120 220V	8330	0001	             1	PC	PC	000010	680814941	58110488	HLI0550	8300	L05	9999	8330	10.09.2024	24.06.2024	0130	56274032	HLI0550	D304811045	0013304811	            0045	30.05.2024	       0
		4051473653		10315217	4536930198	00001	2346060	Threaded stud S-BT-MF M10/15 AN 6 HL	8330	0001	           100	PC	PC	000010	680814978	58111270	HLI0550	8300	L10	9999	8330	10.09.2024	24.06.2024	0590	56274048	HLI0550	D304711002	0013304711	            0002	30.05.2024	-21
		4051473654		10315217	4536930211	00001	2346064	Threaded stud S-BT-MR M10/15 SN 6 HL	8330	0001	           600	PC	PC	000010	680814989	58111259	HLI0550	8300	L10	9999	8330	10.09.2024	24.06.2024	0010	56287103	HLI0550	D328149002	0013328149	            0002	10.06.2024	       7
		4051473655		10315217	4536930268	00001	2283202	Diamond grinder DGH 130 230V	8330	0001	             4	PC	PC	000010	680815034	58110691	HLI0550	8300	L05	9999	8330	10.09.2024	24.06.2024	0010	56229557	HLI0550	D222188001	0013222188	            0001	17.04.2024	-56
		4051476729		10330548	4536966989	00001	2281190	Firestop coating CP 670 17,5kg	8330	0001	            24	PC	PC	000010	680845871	58116610	HLI0550	8300	L03	9999	8330	04.09.2024	01.07.2024	0020	56256617	HLI0550	D275686001	0013275686	            0001	14.05.2024	       7
		4051476731		10330549	4536968650	00001	2341092	Hammer drill bit TE-CX 1/2"-6"	8330	0001	             8	PC	PC	000010	680847239	58116824	HLI0550	8300	L09	9999	8330	04.09.2024	01.07.2024	0040	56284217	HLI0550	D328226007	0013328226	            0007	10.06.2024	-28
		4051476731		10330549	4536968663	00001	2149226	Univ. cable tie holder X-UCT-E MX	8330	0001	        48.000	PC	PC	000010	680847248	58116829	HLI0550	8300	L04	9999	8330	04.09.2024	01.07.2024	0370	56274048	HLI0550	D304711080	0013304711	            0080	30.05.2024	-7
		4051476731		10330549	4536968677	00001	2314529	Batt.-actuated tool BX 3-L-22 case	8330	0001	             9	PC	PC	000010	680847258	58114477	HLI0550	8300	L04	9999	8330	04.09.2024	01.07.2024	0010	56271114	HLI0550	D296032001	0013296032	            0001	27.05.2024	      21
		4051479397		10345486	4537020704	00001	2116103	Insulating foam CF-I 65  ECO	8330	0001	           336	PC	PC	000010	680889286	58122543	HLI0550	8300	L03	9999	8330	16.09.2024	10.07.2024	0050	56274123	HLI0550	D304769008	0013304769	            0008	31.05.2024	       0
		4051479383		10345487	4537020753	00001	2101534	Firestop sealant FS-ONE MAX 10.1OZ CART	8330	0001	            96	PC	PC	000010	680889335	58123210	HLI0550	8300	L03	9999	8330	16.09.2024	10.07.2024	0020	56302225	HLI0550	D363795003	0013363795	            0003	26.06.2024	       0
		4051482027		10359788	4537044087	00001	2164509	Adhesive capsule HVU2 M20x170	8330	0001	           200	PC	PC	000010	680907576	58128707	HLI0550	8300	L01	9999	8330	11.09.2024	15.07.2024	0120	56274123	HLI0550	D304769017	0013304769	            0017	31.05.2024	       0
		4051482028		10359788	4537044090	00001	338725	Firestop foam CP 620 US	8330	0001	            12	PC	PC	000010	680907580	58128766	HLI0550	8300	L03	9999	8330	11.09.2024	15.07.2024	0010	56308151	HLI0550	D380206001	0013380206	            0001	02.07.2024	       0
		4051482028		10359788	4537044095	00001	2101918	Injectable mortar HIT-HY 170 500/2-EU	8330	0001	           320	PC	PC	000010	680907584	58128758	HLI0550	8300	L01	9999	8330	11.09.2024	15.07.2024	0010	56305389	HLI0550	D373293001	0013373293	            0001	01.07.2024	       0
		4051482029		10359789	4537044107	00001	2123404	Injectable mortar HIT-RE 500 V3/500/1	8330	0001	           480	PC	PC	000010	680907596	58128767	HLI0550	8300	L01	9999	8330	11.09.2024	15.07.2024	0020	56312552	HLI0550	D387265002	0013387265	            0002	08.07.2024	       0
		4051483650		10367403	4537061283	00001	2305650	Diamond wire DS-W 10.8-100m EP SP-M/H ST	8750	0001	           100	M	M	000010	680921287	58131508	HLI0550	8750	L12	9999	8750	20.08.2024	17.07.2024	0010	56318482	HLI0550	D398033001	0013398033	            0001	11.07.2024	       0
		4051484776		10369020	4537081699	00001	430811	Firestop joint spray CFS-SP WB red	8750	0001	             2	PC	PC	000010	680937763	58133664	HLI0550	8750	L03	9999	8750	18.09.2024	22.07.2024	0010	56240899	HLI0550	D241717001	0013241717	            0001	26.04.2024	-69
		4051484849		10369021	4537081709	00001	2179045	Hammer drill bit TE-YX 12/52	8750	0001	             4	PC	PC	000010	680937771	58134941	HLI0550	8750	L09	9999	8750	18.09.2024	22.07.2024	0030	56276852	HLI0550	D315835006	0013315835	            0006	03.06.2024	-6
		4051484849		10369021	4537081723	00001	2334179	Hand-held battery cut-off saw DSH 700-22	8750	0001	             1	PC	PC	000010	680937785	58133645	HLI0550	8750	L05	9999	8750	18.09.2024	22.07.2024	0010	56252161	HLI0550	D265880006	0013265880	            0006	09.05.2024	      22
		4051487499		10387791	4537117544	00001	2101918	Injectable mortar HIT-HY 170 500/2-EU	8330	0001	            20	PC	PC	000010	680967123	58135447	HLI0550	8300	L01	9999	8330	17.09.2024	29.07.2024	0010	56320324	HLI0550	D401826001	0013401826	            0001	15.07.2024	       7
		4051487499		10387791	4537117554	00001	2334277	Injectable mortar HY 200-R V3 500/1/WH	8330	0001	           480	PC	PC	000010	680967134	58139848	HLI0550	8300	L01	9999	8330	17.09.2024	29.07.2024	0060	56312552	HLI0550	D387265006	0013387265	            0006	08.07.2024	       0
		4051490405		10402067	4537152840	00001	2142303	Injectable mortar HIT-RE 10 580/1-WH	8330	0001	           288	PC	PC	000010	680996000	58145295	HLI0550	8300	L01	9999	8330	24.09.2024	05.08.2024	0010	56275397	HLI0550	D304748001	0013304748	            0001	30.05.2024	      56
		4051490406		10402068	4537152850	00001	209625	FS joint filler CP 606 310ml white	8330	0001	            40	PC	PC	000010	680996019	58146642	HLI0550	8300	L03	9999	8330	24.09.2024	05.08.2024	0010	56333959	HLI0550	D428924001	0013428924	            0001	29.07.2024	       0
		4051490407		10402069	4537152858	00001	438579	Breaker TE 700-AVR 220V	8330	0001	            20	PC	PC	000010	680996034	58145582	HLI0550	8300	L08	9999	8330	24.09.2024	05.08.2024	0160	56288770	HLI0550	D335878027	0013335878	            0027	13.06.2024	       0
		4051490408		10402069	4537152979	00001	2229065	Breaker TE 3000-AVR 230V	8330	0001	             1	PC	PC	000010	680996104	58145931	HLI0550	8300	L08	9999	8330	24.09.2024	05.08.2024	0150	56276851	HLI0550	D315834004	0013315834	            0004	03.06.2024	       0
		4051490767		10404488	4537154303	00001	2151626	Hammer drill bit TE-CX 12/17	8330	0001	            30	PC	PC	000010	680997017	58146668	HLI0550	8300	L09	9999	8330	16.08.2024	05.08.2024	0020	56337758	HLI0550	D435439003	0013435439	            0003	31.07.2024	       0
		4051493245		10418223	4537187358	00001	432078	Girder end cap MIA-EC120	8330	0001	           200	PC	PC	000010	681023971	58151908	HLI0550	8300	L06	9999	8330	23.08.2024	12.08.2024	0010	56329493	HLI0550	D420866001	0013420866	            0001	23.07.2024	-37
		4051493074		10415975	4537189539	00001	2349158	Grating disc X-FCM-R 28/33	8302	0001	         1.800	PC	PC	000010	681025989	58151233	HLI0550	8300	L04	9999	8302	01.10.2024	12.08.2024	0050	56336084	HLI0550	D431591002	0013431591	            0002	29.07.2024	      99
		4051493078		10415977	4537189596	00001	2398669	Fire protec. cab. coating CP 679A Plus	8330	0001	             5	PC	PC	000010	681026043	58150451	HLI0550	8300	L03	9999	8330	01.10.2024	12.08.2024	0010	56340117	HLI0550	D444786001	0013444786	            0001	02.08.2024	       0
		4051493080		10415978	4537189604	00001	2116103	Insulating foam CF-I 65  ECO	8330	0001	           336	PC	PC	000010	681026050	58150492	HLI0550	8300	L03	9999	8330	01.10.2024	12.08.2024	0020	56329353	HLI0550	D420757003	0013420757	            0003	23.07.2024	       0
		4051493064		10415979	4537189615	00001	2158330	Change module 57 SPX/SP-H abras	8330	0001	            24	PC	PC	000010	681026057	58150755	HLI0550	8300	L05	9999	8330	01.10.2024	12.08.2024	0010	56317613	HLI0550	D391312003	0013391312	            0003	09.07.2024	      14
		4051493064		10415979	4537189703	00001	2248345	Cordl. angle grinder AG 4S-22-4.5 box	8330	0001	             4	PC	PC	000010	681026139	58150891	HLI0550	8300	L15	9999	8330	01.10.2024	12.08.2024	0040	56340005	HLI0550	D444898007	0013444898	            0007	02.08.2024	       0
		4051494341		10422345	4537203288	00001	2076284	Core bit C+ 12/150 SPX-T	8750	0001	             2	PC	PC	000010	681037417	58154757	HLI0550	8750	L05	9999	8750	10.09.2024	14.08.2024	0010	56322851	HLI0550	D407119001	0013407119	            0001	16.07.2024	       0
		4051462466		10257757	4536772536	00001	2149226	Univ. cable tie holder X-UCT-E MX	8330	0001	        48.000	PC	PC	000010	680685477	58085580	HLI0550	8300	L04	9999	8330	14.08.2024	27.05.2024	0030	56255537	HLI0550	D273947011	0013273947	            0011	14.05.2024	-7
		4051462466		10257757	4536772661	00001	432947	Cable tie with holder X-ECT 40 MX	8330	0001	        12.800	PC	PC	000010	680685533	58083992	HLI0550	8300	L04	9999	8330	14.08.2024	27.05.2024	0010	56253633	HLI0550	D267953001	0013267953	            0001	10.05.2024	       8
		4051462466		10257757	4536772731	00001	2261727	Core bit B 77/430+ P-U abras	8330	0001	             1	PC	PC	000010	680685557	58085505	HLI0550	8300	L05	9999	8330	14.08.2024	27.05.2024	0010	56243383	HLI0550	D245414001	0013245414	            0001	29.04.2024	      14
		4051462457		10257758	4536776832	00001	2101534	Firestop sealant FS-ONE MAX 10.1OZ CART	8330	0001	           936	PC	PC	000010	680689139	58085640	HLI0550	8300	L03	9999	8330	14.08.2024	27.05.2024	0030	56199171	HLI0550	D159569006	0013159569	            0006	20.03.2024	       0
		4051462463		10259187	4536776880	00001	2229065	Breaker TE 3000-AVR 230V	8330	0001	             5	PC	PC	000010	680689185	58083939	HLI0550	8300	L08	9999	8330	14.08.2024	27.05.2024	0100	56226152	HLI0550	D216927005	0013216927	            0005	15.04.2024	       0
		4051465070		10267740	4536807989	00001	2345767	Threaded stud S-BT-GR M8/7 SN 6 HL	8330	0001	         1.300	PC	PC	000010	680714319	58090456	HLI0550	8300	L10	9999	8330	02.09.2024	03.06.2024	0080	56247384	HLI0550	D255917006	0013255917	            0006	04.05.2024	      21
		4051465070		10267740	4536807996	00001	2216317	Diamond coring tool DD 120 220V	8330	0001	             1	PC	PC	000010	680714326	58090474	HLI0550	8300	L05	9999	8330	02.09.2024	03.06.2024	0120	56252183	HLI0550	D266169051	0013266169	            0051	09.05.2024	       0
		4051465071		10267740	4536808029	00001	2121387	Filter VC 20/40/150 univ	8330	0001	             1	PC	PC	000010	680714354	58091071	HLI0550	8300	L05	9999	8330	02.09.2024	03.06.2024	0010	56265721	HLI0550	D289752004	0013289752	            0004	23.05.2024	-7
		4051465071		10267740	4536808039	00001	2165913	Hammer drill bit TE-YX 1 1/8"-21"	8330	0001	             1	PC	PC	000010	680714371	58090461	HLI0550	8300	L09	9999	8330	02.09.2024	03.06.2024	0050	56268476	HLI0550	D293637007	0013293637	            0007	24.05.2024	       0
		4051470942		10300738	4536889259	00001	2116103	Insulating foam CF-I 65  ECO	8330	0001	           336	PC	PC	000010	680780972	58104209	HLI0550	8300	L03	9999	8330	02.09.2024	17.06.2024	0020	56262166	HLI0550	D284145006	0013284145	            0006	20.05.2024	       7
		4051470945		10300740	4536890014	00001	2314529	Batt.-actuated tool BX 3-L-22 case	8330	0001	             9	PC	PC	000010	680781749	58103501	HLI0550	8300	L04	9999	8330	02.09.2024	17.06.2024	0010	56271113	HLI0550	D296031001	0013296031	            0001	27.05.2024	       7
		4051470945		10300740	4536890045	00001	2194592	Batt.-actuated tool BX 3-BTG A22 case	8330	0001	             2	PC	PC	000010	680781764	58103859	HLI0550	8300	L04	9999	8330	02.09.2024	17.06.2024	0390	56274032	HLI0550	D304811024	0013304811	            0024	30.05.2024	       7
		4051470945		10300740	4536890121	00001	2346064	Threaded stud S-BT-MR M10/15 SN 6 HL	8330	0001	           100	PC	PC	000010	680781803	58104318	HLI0550	8300	L10	9999	8330	02.09.2024	17.06.2024	0140	56283094	HLI0550	D325805008	0013325805	            0008	08.06.2024	       0
		4051470947		10300740	4536890159	00001	2167744	Breaker TE 1000-AVR 230V univ cord	8330	0001	            10	PC	PC	000010	680781822	58103117	HLI0550	8300	L08	9999	8330	02.09.2024	17.06.2024	0390	56232777	HLI0550	D226779071	0013226779	            0071	19.04.2024	       7
		4051473456		10310997	4536929311	00001	2123404	Injectable mortar HIT-RE 500 V3/500/1	8750	0001	           480	PC	PC	000010	680814126	58110951	HLI0550	8750	L01	9999	8750	26.08.2024	24.06.2024	0050	56274135	HLI0550	D304655008	0013304655	            0008	31.05.2024	       0
		4051473646		10310999	4536929340	00001	2006977	Vacuum pump DD VP-U 220V	8750	0001	             2	PC	PC	000010	680814143	58110828	HLI0550	8750	L05	9999	8750	26.08.2024	24.06.2024	0060	56252161	HLI0550	D265880015	0013265880	            0015	09.05.2024	      28
		4051473646		10310999	4536929405	00001	2204572	Diamond coring tool DD 150-U 220V	8750	0001	             2	PC	PC	000010	680814206	58110350	HLI0550	8750	L05	9999	8750	26.08.2024	24.06.2024	0030	56261538	HLI0550	D282818003	0013282818	            0003	18.05.2024	       0
		4051473454		10315219	4536930087	00001	2222545	Injectable mortar HIT-RE 100-HC 580/1	8330	0001	           288	PC	PC	000010	680814898	58110869	HLI0550	8300	L01	9999	8330	10.09.2024	24.06.2024	0010	56205831	HLI0550	D166486001	0013166486	            0001	22.03.2024	      70
		4051473560		10315218	4536930142	00001	2281190	Firestop coating CP 670 17,5kg	8330	0001	            24	PC	PC	000010	680814927	58109443	HLI0550	8300	L03	9999	8330	10.09.2024	24.06.2024	0010	56256617	HLI0550	D275686002	0013275686	            0002	14.05.2024	       7
		4051473653		10315217	4536930170	00001	2194592	Batt.-actuated tool BX 3-BTG A22 case	8330	0001	             2	PC	PC	000010	680814952	58110489	HLI0550	8300	L04	9999	8330	10.09.2024	24.06.2024	0670	56274048	HLI0550	D304711028	0013304711	            0028	30.05.2024	-21
		4051473653		10315217	4536930199	00001	2346060	Threaded stud S-BT-MF M10/15 AN 6 HL	8330	0001	           200	PC	PC	000010	680814979	58111270	HLI0550	8300	L10	9999	8330	10.09.2024	24.06.2024	0610	56274048	HLI0550	D304711023	0013304711	            0023	30.05.2024	-7
		4051473654		10315217	4536930215	00001	2112764	Setting tool HDI(-L)+ 3/8"	8330	0001	             1	PC	PC	000010	680814991	58111259	HLI0550	8300	L09	9999	8330	10.09.2024	24.06.2024	0020	56288770	HLI0550	D335878002	0013335878	            0002	13.06.2024	       0
		4051473655		10315217	4536930280	00001	2064703	Breaker TE 800-AVR 220V	8330	0001	            11	PC	PC	000010	680815045	58110078	HLI0550	8300	L08	9999	8330	10.09.2024	24.06.2024	0020	56248889	HLI0550	D260623005	0013260623	            0005	06.05.2024	       0
		4051476729		10330548	4536966992	00001	2281190	Firestop coating CP 670 17,5kg	8330	0001	            24	PC	PC	000010	680845873	58116611	HLI0550	8300	L03	9999	8330	04.09.2024	01.07.2024	0020	56256617	HLI0550	D275686001	0013275686	            0001	14.05.2024	       7
		4051476731		10330549	4536968665	00001	2149226	Univ. cable tie holder X-UCT-E MX	8330	0001	        18.000	PC	PC	000010	680847250	58116835	HLI0550	8300	L04	9999	8330	04.09.2024	01.07.2024	0370	56274048	HLI0550	D304711080	0013304711	            0080	30.05.2024	-7
		4051476731		10330549	4536968679	00001	2314529	Batt.-actuated tool BX 3-L-22 case	8330	0001	             9	PC	PC	000010	680847259	58114491	HLI0550	8300	L04	9999	8330	04.09.2024	01.07.2024	0010	56271114	HLI0550	D296032001	0013296032	            0001	27.05.2024	      21
		4051479397		10345486	4537020705	00001	2116103	Insulating foam CF-I 65  ECO	8330	0001	           336	PC	PC	000010	680889287	58122544	HLI0550	8300	L03	9999	8330	16.09.2024	10.07.2024	0050	56274123	HLI0550	D304769008	0013304769	            0008	31.05.2024	       0
		4051479383		10345487	4537020754	00001	209625	FS joint filler CP 606 310ml white	8330	0001	           120	PC	PC	000010	680889336	58123210	HLI0550	8300	L03	9999	8330	16.09.2024	10.07.2024	0030	56305126	HLI0550	D368371004	0013368371	            0004	29.06.2024	       0
		4051482028		10359788	4537044100	00001	2164506	Adhesive capsule HVU2 M10x90	8330	0001	           180	PC	PC	000010	680907590	58128714	HLI0550	8300	L01	9999	8330	11.09.2024	15.07.2024	0050	56312552	HLI0550	D387265005	0013387265	            0005	08.07.2024	       0
		4051482029		10359789	4537044109	00001	2123404	Injectable mortar HIT-RE 500 V3/500/1	8330	0001	           480	PC	PC	000010	680907598	58128773	HLI0550	8300	L01	9999	8330	11.09.2024	15.07.2024	0020	56312552	HLI0550	D387265002	0013387265	            0002	08.07.2024	       0
		4051484849		10369021	4537081718	00001	2128231	Combihammer TE 50-AVR 220 V	8750	0001	             4	PC	PC	000010	680937780	58134746	HLI0550	8750	L08	9999	8750	18.09.2024	22.07.2024	0030	56322319	HLI0550	D407069009	0013407069	            0009	16.07.2024	       0
		4051484849		10369021	4537081724	00001	2334179	Hand-held battery cut-off saw DSH 700-22	8750	0001	             1	PC	PC	000010	680937786	58134398	HLI0550	8750	L05	9999	8750	18.09.2024	22.07.2024	0070	56252693	HLI0550	D266300027	0013266300	            0027	09.05.2024	      22
		4051484849		10369021	4537081725	00001	2334179	Hand-held battery cut-off saw DSH 700-22	8750	0001	             1	PC	PC	000010	680937787	58134400	HLI0550	8750	L05	9999	8750	18.09.2024	22.07.2024	0070	56252693	HLI0550	D266300027	0013266300	            0027	09.05.2024	      22
		4051484850		10369021	4537081755	00001	2179712	Recip. saw blade SP 15 14 (50) metal	8750	0001	            50	PC	PC	000010	680937811	58134261	HLI0550	8750	L09	9999	8750	18.09.2024	22.07.2024	0020	56322319	HLI0550	D407069004	0013407069	            0004	16.07.2024	       0
		4051487499		10387791	4537117549	00001	209625	FS joint filler CP 606 310ml white	8330	0001	           120	PC	PC	000010	680967128	58140091	HLI0550	8300	L03	9999	8330	17.09.2024	29.07.2024	0030	56322500	HLI0550	D407054011	0013407054	            0011	16.07.2024	       0
		4051487499		10387791	4537117555	00001	2334277	Injectable mortar HY 200-R V3 500/1/WH	8330	0001	           480	PC	PC	000010	680967135	58139847	HLI0550	8300	L01	9999	8330	17.09.2024	29.07.2024	0060	56312552	HLI0550	D387265006	0013387265	            0006	08.07.2024	       0
		4051490405		10402067	4537152841	00001	2142303	Injectable mortar HIT-RE 10 580/1-WH	8330	0001	           288	PC	PC	000010	680996001	58145292	HLI0550	8300	L01	9999	8330	24.09.2024	05.08.2024	0010	56275397	HLI0550	D304748001	0013304748	            0001	30.05.2024	      56
		4051490407		10402069	4537152859	00001	2146846	Breaker TE 500-AVR 220V	8330	0001	            20	PC	PC	000010	680996038	58145574	HLI0550	8300	L08	9999	8330	24.09.2024	05.08.2024	0040	56291815	HLI0550	D341658008	0013341658	            0008	17.06.2024	       0
		4051490408		10402069	4537152982	00001	2261819	Change module 162 P-U abras	8330	0001	            15	PC	PC	000010	680996105	58146142	HLI0550	8300	L05	9999	8330	24.09.2024	05.08.2024	0010	56280857	HLI0550	D322855001	0013322855	            0001	06.06.2024	       0
		4051490767		10404488	4537154306	00001	2261737	Core bit B 172/430+ P-U abras	8330	0001	             1	PC	PC	000010	680997022	58146668	HLI0550	8300	L05	9999	8330	16.08.2024	05.08.2024	0010	56337875	HLI0550	D436842001	0013436842	            0001	31.07.2024	       7
		4051493245		10418223	4537187364	00001	2156391	High performance nail X-P 24 B3 MX BULK	8330	0001	        36.000	PC	PC	000010	681023973	58151917	HLI0550	8300	L04	9999	8330	23.08.2024	12.08.2024	0020	56329798	HLI0550	D420526002	0013420526	            0002	23.07.2024	      14
		4051493076		10415976	4537189549	00001	2222545	Injectable mortar HIT-RE 100-HC 580/1	8330	0001	           288	PC	PC	000010	681025998	58150356	HLI0550	8300	L01	9999	8330	01.10.2024	12.08.2024	0010	56247948	HLI0550	D256389001	0013256389	            0001	03.05.2024	      91
		4051493076		10415976	4537189550	00001	2222545	Injectable mortar HIT-RE 100-HC 580/1	8330	0001	           288	PC	PC	000010	681025999	58150353	HLI0550	8300	L01	9999	8330	01.10.2024	12.08.2024	0010	56247948	HLI0550	D256389001	0013256389	            0001	03.05.2024	      91
		4051493076		10415976	4537189555	00001	2142303	Injectable mortar HIT-RE 10 580/1-WH	8330	0001	           132	PC	PC	000010	681026004	58150365	HLI0550	8300	L01	9999	8330	01.10.2024	12.08.2024	0010	56208892	HLI0550	D176960001	0013176960	            0001	27.03.2024	      63
		4051493076		10415976	4537189562	00001	2142303	Injectable mortar HIT-RE 10 580/1-WH	8330	0001	           156	PC	PC	000010	681026011	58150365	HLI0550	8300	L01	9999	8330	01.10.2024	12.08.2024	0010	56208892	HLI0550	D176960001	0013176960	            0001	27.03.2024	      63
		4051493077		10415976	4537189575	00001	2142303	Injectable mortar HIT-RE 10 580/1-WH	8330	0001	           288	PC	PC	000010	681026022	58150507	HLI0550	8300	L01	9999	8330	01.10.2024	12.08.2024	0010	56340273	HLI0550	D444936001	0013444936	            0001	02.08.2024	       0
		4051493077		10415976	4537189576	00001	2142303	Injectable mortar HIT-RE 10 580/1-WH	8330	0001	           288	PC	PC	000010	681026023	58150500	HLI0550	8300	L01	9999	8330	01.10.2024	12.08.2024	0010	56340273	HLI0550	D444936001	0013444936	            0001	02.08.2024	       0
		4051493077		10415976	4537189585	00001	2222545	Injectable mortar HIT-RE 100-HC 580/1	8330	0001	           288	PC	PC	000010	681026032	58150511	HLI0550	8300	L01	9999	8330	01.10.2024	12.08.2024	0010	56340274	HLI0550	D444937001	0013444937	            0001	02.08.2024	       0
		4051493077		10415976	4537189586	00001	2222545	Injectable mortar HIT-RE 100-HC 580/1	8330	0001	           288	PC	PC	000010	681026033	58150516	HLI0550	8300	L01	9999	8330	01.10.2024	12.08.2024	0010	56340274	HLI0550	D444937001	0013444937	            0001	02.08.2024	       0
		4051493078		10415977	4537189597	00001	2398669	Fire protec. cab. coating CP 679A Plus	8330	0001	             5	PC	PC	000010	681026044	58150451	HLI0550	8300	L03	9999	8330	01.10.2024	12.08.2024	0010	56340118	HLI0550	D444787001	0013444787	            0001	02.08.2024	       0
		4051493080		10415978	4537189605	00001	2116103	Insulating foam CF-I 65  ECO	8330	0001	           336	PC	PC	000010	681026051	58150491	HLI0550	8300	L03	9999	8330	01.10.2024	12.08.2024	0020	56329353	HLI0550	D420757003	0013420757	            0003	23.07.2024	       0
		4051493064		10415979	4537189618	00001	2158330	Change module 57 SPX/SP-H abras	8330	0001	            18	PC	PC	000010	681026059	58150755	HLI0550	8300	L05	9999	8330	01.10.2024	12.08.2024	0010	56323125	HLI0550	D407362001	0013407362	            0001	17.07.2024	       7
		4051493064		10415979	4537189628	00001	2095266	Diamond coring tool DD 350-CA BL 220V	8330	0001	             1	PC	PC	000010	681026067	58150897	HLI0550	8300	L05	9999	8330	01.10.2024	12.08.2024	0070	56290257	HLI0550	D337863019	0013337863	            0019	14.06.2024	      35
		4051494340		10422345	4537203271	00001	2151635	Hammer drill bit TE-CX 14/22	8750	0001	             5	PC	PC	000010	681037405	58154757	HLI0550	8750	L09	9999	8750	10.09.2024	14.08.2024	0010	56328045	HLI0550	D418351001	0013418351	            0001	22.07.2024	       0
		4051462466		10257757	4536772538	00001	2149226	Univ. cable tie holder X-UCT-E MX	8330	0001	        24.000	PC	PC	000010	680685479	58085579	HLI0550	8300	L04	9999	8330	14.08.2024	27.05.2024	0030	56255537	HLI0550	D273947011	0013273947	            0011	14.05.2024	-7
		4051462466		10257757	4536772664	00001	432947	Cable tie with holder X-ECT 40 MX	8330	0001	        12.800	PC	PC	000010	680685534	58084007	HLI0550	8300	L04	9999	8330	14.08.2024	27.05.2024	0010	56253633	HLI0550	D267953001	0013267953	            0001	10.05.2024	       8
		4051462466		10257757	4536772738	00001	386012	Fastener guide X-5-460 F8GR	8330	0001	             3	PC	PC	000010	680685559	58085505	HLI0550	8300	L04	9999	8330	14.08.2024	27.05.2024	0060	56261542	HLI0550	D282817002	0013282817	            0002	18.05.2024	       0
		4051462463		10259187	4536776861	00001	2352087	Concrete vibrator backpack NCV 10-22 box	8330	0001	             1	PC	PC	000010	680689167	58083941	HLI0550	8300	L15	9999	8330	14.08.2024	27.05.2024	0010	56221994	HLI0550	D202547025	0013202547	            0025	08.04.2024	       0
		4051462463		10259187	4536776878	00001	2146846	Breaker TE 500-AVR 220V	8330	0001	            10	PC	PC	000010	680689183	58083932	HLI0550	8300	L08	9999	8330	14.08.2024	27.05.2024	0080	56226152	HLI0550	D216927011	0013216927	            0011	15.04.2024	       0
		4051465070		10267740	4536808008	00001	2156390	High performance nail X-P 20 B3 MX BULK	8330	0001	        36.000	PC	PC	000010	680714336	58089963	HLI0550	8300	L04	9999	8330	02.09.2024	03.06.2024	0090	56261552	HLI0550	D282309011	0013282309	            0011	18.05.2024	       7
		4051465071		10267740	4536808030	00001	2121387	Filter VC 20/40/150 univ	8330	0001	             5	PC	PC	000010	680714355	58091071	HLI0550	8300	L05	9999	8330	02.09.2024	03.06.2024	0020	56265721	HLI0550	D289752016	0013289752	            0016	23.05.2024	       0
		4051465071		10267740	4536808041	00001	2184474	Hexagon nut M10 DIN 934 A4-70	8330	0001	           100	PC	PC	000010	680714375	58090461	HLI0550	8300	L06	9999	8330	02.09.2024	03.06.2024	0020	56268519	HLI0550	D294355006	0013294355	            0006	24.05.2024	       0
		4051470942		10300738	4536889262	00001	2116103	Insulating foam CF-I 65  ECO	8330	0001	           336	PC	PC	000010	680780973	58104211	HLI0550	8300	L03	9999	8330	02.09.2024	17.06.2024	0020	56262166	HLI0550	D284145006	0013284145	            0006	20.05.2024	       7
		4051470942		10300738	4536889264	00001	2116103	Insulating foam CF-I 65  ECO	8330	0001	           336	PC	PC	000010	680780974	58104208	HLI0550	8300	L03	9999	8330	02.09.2024	17.06.2024	0020	56262166	HLI0550	D284145006	0013284145	            0006	20.05.2024	       7
		4051470945		10300740	4536890016	00001	2314529	Batt.-actuated tool BX 3-L-22 case	8330	0001	             9	PC	PC	000010	680781750	58103302	HLI0550	8300	L04	9999	8330	02.09.2024	17.06.2024	0010	56271113	HLI0550	D296031001	0013296031	            0001	27.05.2024	       7
		4051470945		10300740	4536890024	00001	2194592	Batt.-actuated tool BX 3-BTG A22 case	8330	0001	             2	PC	PC	000010	680781754	58103865	HLI0550	8300	L04	9999	8330	02.09.2024	17.06.2024	0080	56265721	HLI0550	D289752006	0013289752	            0006	23.05.2024	       7
		4051470945		10300740	4536890125	00001	2341092	Hammer drill bit TE-CX 1/2"-6"	8330	0001	            10	PC	PC	000010	680781805	58104318	HLI0550	8300	L09	9999	8330	02.09.2024	17.06.2024	0010	56284913	HLI0550	D329731001	0013329731	            0001	11.06.2024	       0
		4051470947		10300740	4536890163	00001	2167744	Breaker TE 1000-AVR 230V univ cord	8330	0001	            10	PC	PC	000010	680781824	58103125	HLI0550	8300	L08	9999	8330	02.09.2024	17.06.2024	0010	56239482	HLI0550	D239416002	0013239416	            0002	25.04.2024	       0
		4051473554		10310998	4536929319	00001	2164508	Adhesive capsule HVU2 M16x125	8750	0001	           360	PC	PC	000010	680814130	58085524	HLI0550	8750	L01	9999	8750	26.08.2024	24.06.2024	0010	56262651	HLI0550	D284317001	0013284317	            0001	21.05.2024	      28
		4051473554		10310998	4536929320	00001	2164509	Adhesive capsule HVU2 M20x170	8750	0001	           200	PC	PC	000010	680814131	58085868	HLI0550	8750	L01	9999	8750	26.08.2024	24.06.2024	0020	56262651	HLI0550	D284317002	0013284317	            0002	21.05.2024	      28
		4051473646		10310999	4536929394	00001	2167735	Breaker TE 1000-AVR 220V univ cord	8750	0001	             6	PC	PC	000010	680814195	58109993	HLI0550	8750	L08	9999	8750	26.08.2024	24.06.2024	0020	56255404	HLI0550	D273743006	0013273743	            0006	13.05.2024	       0
		4051473454		10315219	4536930089	00001	2222545	Injectable mortar HIT-RE 100-HC 580/1	8330	0001	           288	PC	PC	000010	680814899	58110863	HLI0550	8300	L01	9999	8330	10.09.2024	24.06.2024	0010	56205831	HLI0550	D166486001	0013166486	            0001	22.03.2024	      70
		4051473454		10315219	4536930091	00001	2222545	Injectable mortar HIT-RE 100-HC 580/1	8330	0001	           288	PC	PC	000010	680814900	58110861	HLI0550	8300	L01	9999	8330	10.09.2024	24.06.2024	0010	56205831	HLI0550	D166486001	0013166486	            0001	22.03.2024	      70
		4051473653		10315217	4536930171	00001	2194592	Batt.-actuated tool BX 3-BTG A22 case	8330	0001	             1	PC	PC	000010	680814953	58110519	HLI0550	8300	L04	9999	8330	10.09.2024	24.06.2024	0680	56274048	HLI0550	D304711035	0013304711	            0035	30.05.2024	-14
		4051473653		10315217	4536930172	00001	2194592	Batt.-actuated tool BX 3-BTG A22 case	8330	0001	             1	PC	PC	000010	680814954	58110519	HLI0550	8300	L04	9999	8330	10.09.2024	24.06.2024	0690	56274048	HLI0550	D304711036	0013304711	            0036	30.05.2024	       0
		4051473653		10315217	4536930200	00001	2346060	Threaded stud S-BT-MF M10/15 AN 6 HL	8330	0001	           100	PC	PC	000010	680814980	58111270	HLI0550	8300	L10	9999	8330	10.09.2024	24.06.2024	0640	56274048	HLI0550	D304711089	0013304711	            0089	30.05.2024	       0
		4051473653		10315217	4536930202	00001	2346060	Threaded stud S-BT-MF M10/15 AN 6 HL	8330	0001	           200	PC	PC	000010	680814981	58111270	HLI0550	8300	L10	9999	8330	10.09.2024	24.06.2024	0650	56274048	HLI0550	D304711090	0013304711	            0090	30.05.2024	-14
		4051473654		10315217	4536930216	00001	2270747	Bimetal hole saw 27mm-1 1/16" MetalCut	8330	0001	             1	PC	PC	000010	680814992	58111259	HLI0550	8300	L09	9999	8330	10.09.2024	24.06.2024	0030	56288770	HLI0550	D335878004	0013335878	            0004	13.06.2024	       0
		4051473654		10315217	4536930218	00001	2165916	Hammer drill bit TE-YX 1 1/4"-23"	8330	0001	             7	PC	PC	000010	680814994	58111259	HLI0550	8300	L09	9999	8330	10.09.2024	24.06.2024	0070	56288770	HLI0550	D335878014	0013335878	            0014	13.06.2024	       0
		4051473655		10315217	4536930281	00001	2064703	Breaker TE 800-AVR 220V	8330	0001	            11	PC	PC	000010	680815046	58110073	HLI0550	8300	L08	9999	8330	10.09.2024	24.06.2024	0020	56248889	HLI0550	D260623005	0013260623	            0005	06.05.2024	       0
		4051473655		10315217	4536930282	00001	2064703	Breaker TE 800-AVR 220V	8330	0001	            11	PC	PC	000010	680815047	58110074	HLI0550	8300	L08	9999	8330	10.09.2024	24.06.2024	0020	56248889	HLI0550	D260623005	0013260623	            0005	06.05.2024	       0
		4051476731		10330549	4536968681	00001	2314529	Batt.-actuated tool BX 3-L-22 case	8330	0001	             9	PC	PC	000010	680847260	58114478	HLI0550	8300	L04	9999	8330	04.09.2024	01.07.2024	0010	56271114	HLI0550	D296032001	0013296032	            0001	27.05.2024	      21
		4051482028		10359788	4537044091	00001	2101534	Firestop sealant FS-ONE MAX 10.1OZ CART	8330	0001	            96	PC	PC	000010	680907581	58128908	HLI0550	8300	L03	9999	8330	11.09.2024	15.07.2024	0030	56302225	HLI0550	D363795004	0013363795	            0004	26.06.2024	       0
		4051482028		10359788	4537044103	00001	2101534	Firestop sealant FS-ONE MAX 10.1OZ CART	8330	0001	           492	PC	PC	000010	680907592	58128908	HLI0550	8300	L03	9999	8330	11.09.2024	15.07.2024	0030	56302225	HLI0550	D363795004	0013363795	            0004	26.06.2024	       0
		4051482029		10359789	4537044110	00001	2123404	Injectable mortar HIT-RE 500 V3/500/1	8330	0001	           480	PC	PC	000010	680907600	58128775	HLI0550	8300	L01	9999	8330	11.09.2024	15.07.2024	0020	56312552	HLI0550	D387265002	0013387265	            0002	08.07.2024	       0
		4051482029		10359789	4537044111	00001	2123404	Injectable mortar HIT-RE 500 V3/500/1	8330	0001	           480	PC	PC	000010	680907601	58128771	HLI0550	8300	L01	9999	8330	11.09.2024	15.07.2024	0020	56312552	HLI0550	D387265002	0013387265	            0002	08.07.2024	       0
		4051484849		10369021	4537081715	00001	2224208	Hammer drill bit  TE-C 8/16 MP50	8750	0001	           150	PC	PC	000010	680937777	58134745	HLI0550	8750	L09	9999	8750	18.09.2024	22.07.2024	0030	56211128	HLI0550	D186875005	0013186875	            0005	01.04.2024	      78
		4051484849		10369021	4537081734	00001	2156153	Powder-actuated tool DX 6 MX	8750	0001	             3	PC	PC	000010	680937796	58134403	HLI0550	8750	L04	9999	8750	18.09.2024	22.07.2024	0040	56284144	HLI0550	D327858014	0013327858	            0014	10.06.2024	      22
		4051487499		10387791	4537117550	00001	209625	FS joint filler CP 606 310ml white	8330	0001	           100	PC	PC	000010	680967129	58140091	HLI0550	8300	L03	9999	8330	17.09.2024	29.07.2024	0010	56325604	HLI0550	D412652001	0013412652	            0001	19.07.2024	       0
		4051490405		10402067	4537152842	00001	2142303	Injectable mortar HIT-RE 10 580/1-WH	8330	0001	           288	PC	PC	000010	680996003	58145296	HLI0550	8300	L01	9999	8330	24.09.2024	05.08.2024	0010	56275397	HLI0550	D304748001	0013304748	            0001	30.05.2024	      56
		4051490405		10402067	4537152843	00001	2142303	Injectable mortar HIT-RE 10 580/1-WH	8330	0001	           288	PC	PC	000010	680996005	58145297	HLI0550	8300	L01	9999	8330	24.09.2024	05.08.2024	0010	56275397	HLI0550	D304748001	0013304748	            0001	30.05.2024	      56
		4051490407		10402069	4537152860	00001	2253115	Cordl. combihammer TE 30-22 case	8330	0001	             4	PC	PC	000010	680996040	58145577	HLI0550	8300	L15	9999	8330	24.09.2024	05.08.2024	0010	56296328	HLI0550	D352701001	0013352701	            0001	20.06.2024	       0
		4051490408		10402069	4537152984	00001	2261819	Change module 162 P-U abras	8330	0001	            12	PC	PC	000010	680996106	58146770	HLI0550	8300	L05	9999	8330	24.09.2024	05.08.2024	0010	56280857	HLI0550	D322855001	0013322855	            0001	06.06.2024	       0
		4051490767		10404488	4537154299	00001	2233560	Dia blade 180/22 SPX univ	8330	0001	            24	PC	PC	000010	680997012	58146669	HLI0550	8300	L05	9999	8330	16.08.2024	05.08.2024	0010	56297623	HLI0550	D354426001	0013354426	            0001	21.06.2024	      35
		4051490767		10404488	4537154305	00001	2151626	Hammer drill bit TE-CX 12/17	8330	0001	            50	PC	PC	000010	680997019	58146669	HLI0550	8300	L09	9999	8330	16.08.2024	05.08.2024	0020	56337758	HLI0550	D435439003	0013435439	            0003	31.07.2024	       0
		4051493245		10418223	4537187365	00001	2261737	Core bit B 172/430+ P-U abras	8330	0001	             1	PC	PC	000010	681023974	58151907	HLI0550	8300	L05	9999	8330	23.08.2024	12.08.2024	0010	56337875	HLI0550	D436842001	0013436842	            0001	31.07.2024	       7
		4051493076		10415976	4537189540	00001	2222545	Injectable mortar HIT-RE 100-HC 580/1	8330	0001	           288	PC	PC	000010	681025990	58150347	HLI0550	8300	L01	9999	8330	01.10.2024	12.08.2024	0010	56207292	HLI0550	D175068001	0013175068	            0001	26.03.2024	      49
		4051493076		10415976	4537189563	00001	2142303	Injectable mortar HIT-RE 10 580/1-WH	8330	0001	           288	PC	PC	000010	681026012	58150366	HLI0550	8300	L01	9999	8330	01.10.2024	12.08.2024	0010	56208892	HLI0550	D176960001	0013176960	            0001	27.03.2024	      63
		4051493077		10415976	4537189577	00001	2142303	Injectable mortar HIT-RE 10 580/1-WH	8330	0001	           288	PC	PC	000010	681026024	58150499	HLI0550	8300	L01	9999	8330	01.10.2024	12.08.2024	0010	56340273	HLI0550	D444936001	0013444936	            0001	02.08.2024	       0
		4051493077		10415976	4537189587	00001	2222545	Injectable mortar HIT-RE 100-HC 580/1	8330	0001	           288	PC	PC	000010	681026034	58150513	HLI0550	8300	L01	9999	8330	01.10.2024	12.08.2024	0010	56340274	HLI0550	D444937001	0013444937	            0001	02.08.2024	       0
		4051493078		10415977	4537189598	00001	2164507	Adhesive capsule HVU2 M12x110	8330	0001	           360	PC	PC	000010	681026045	58150736	HLI0550	8300	L01	9999	8330	01.10.2024	12.08.2024	0060	56340146	HLI0550	D445225007	0013445225	            0007	03.08.2024	       0
		4051493080		10415978	4537189608	00001	2116103	Insulating foam CF-I 65  ECO	8330	0001	            48	PC	PC	000010	681026053	58150490	HLI0550	8300	L03	9999	8330	01.10.2024	12.08.2024	0020	56329353	HLI0550	D420757003	0013420757	            0003	23.07.2024	       0
		4051493080		10415978	4537189609	00001	2116103	Insulating foam CF-I 65  ECO	8330	0001	           288	PC	PC	000010	681026054	58150490	HLI0550	8300	L03	9999	8330	01.10.2024	12.08.2024	0020	56329353	HLI0550	D420757003	0013420757	            0003	23.07.2024	       0
		4051493064		10415979	4537189651	00001	2216317	Diamond coring tool DD 120 220V	8330	0001	             1	PC	PC	000010	681026090	58150898	HLI0550	8300	L05	9999	8330	01.10.2024	12.08.2024	0130	56327933	HLI0550	D418058034	0013418058	            0034	22.07.2024	       0
		4051494340		10422345	4537203272	00001	237335	Universal nail X-U 37 P8	8750	0001	           600	PC	PC	000010	681037406	58154757	HLI0550	8750	L04	9999	8750	10.09.2024	14.08.2024	0010	56332036	HLI0550	D425095001	0013425095	            0001	25.07.2024	       0
		4051462466		10257757	4536772584	00001	2156393	Steel nail X-S 14 B3 MX BULK	8330	0001	        36.000	PC	PC	000010	680685508	58085579	HLI0550	8300	L04	9999	8330	14.08.2024	27.05.2024	0040	56261552	HLI0550	D282309010	0013282309	            0010	18.05.2024	       0
		4051462466		10257757	4536772619	00001	2077893	Dispenser CFS-DISP 29oz CART	8330	0001	            10	PC	PC	000010	680685523	58085639	HLI0550	8300	L03	9999	8330	14.08.2024	27.05.2024	0010	56262166	HLI0550	D284145005	0013284145	            0005	20.05.2024	       0
		4051462466		10257757	4536772668	00001	432947	Cable tie with holder X-ECT 40 MX	8330	0001	        12.800	PC	PC	000010	680685535	58084006	HLI0550	8300	L04	9999	8330	14.08.2024	27.05.2024	0010	56253633	HLI0550	D267953001	0013267953	            0001	10.05.2024	       8
		4051462466		10257757	4536772673	00001	432947	Cable tie with holder X-ECT 40 MX	8330	0001	        12.800	PC	PC	000010	680685536	58084001	HLI0550	8300	L04	9999	8330	14.08.2024	27.05.2024	0010	56253633	HLI0550	D267953001	0013267953	            0001	10.05.2024	       8
		4051462466		10257757	4536772741	00001	2208485	Screw magazine SD-M 2	8330	0001	             1	PC	PC	000010	680685560	58085505	HLI0550	8300	L10	9999	8330	14.08.2024	27.05.2024	0070	56261542	HLI0550	D282817004	0013282817	            0004	18.05.2024	       0
		4051462466		10257757	4536772748	00001	2346085	Torque tool S-BT 1/4" - 16Nm	8330	0001	             3	PC	PC	000010	680685562	58085505	HLI0550	8300	L10	9999	8330	14.08.2024	27.05.2024	0100	56261542	HLI0550	D282817019	0013282817	            0019	18.05.2024	       0
		4051462463		10259187	4536776862	00001	2352087	Concrete vibrator backpack NCV 10-22 box	8330	0001	             1	PC	PC	000010	680689168	58084074	HLI0550	8300	L15	9999	8330	14.08.2024	27.05.2024	0010	56221994	HLI0550	D202547025	0013202547	            0025	08.04.2024	       0
		4051465070		10267740	4536808001	00001	2194592	Batt.-actuated tool BX 3-BTG A22 case	8330	0001	             1	PC	PC	000010	680714329	58090480	HLI0550	8300	L04	9999	8330	02.09.2024	03.06.2024	0080	56255537	HLI0550	D273947012	0013273947	            0012	14.05.2024	       0
		4051465070		10267740	4536808014	00001	2248345	Cordl. angle grinder AG 4S-22-4.5 box	8330	0001	             4	PC	PC	000010	680714342	58090475	HLI0550	8300	L15	9999	8330	02.09.2024	03.06.2024	0010	56264078	HLI0550	D287198001	0013287198	            0001	21.05.2024	       0
		4051465071		10267740	4536808020	00001	2345767	Threaded stud S-BT-GR M8/7 SN 6 HL	8330	0001	         1.600	PC	PC	000010	680714347	58091624	HLI0550	8300	L10	9999	8330	02.09.2024	03.06.2024	0020	56262311	HLI0550	D284295001	0013284295	            0001	20.05.2024	       7
		4051465071		10267740	4536808033	00001	2149226	Univ. cable tie holder X-UCT-E MX	8330	0001	           750	PC	PC	000010	680714358	58091071	HLI0550	8300	L04	9999	8330	02.09.2024	03.06.2024	0050	56265721	HLI0550	D289752012	0013289752	            0012	23.05.2024	       0
		4051465071		10267740	4536808040	00001	2241993	Flat chisel TE-YX FM 70	8330	0001	             1	PC	PC	000010	680714373	58091072	HLI0550	8300	L09	9999	8330	02.09.2024	03.06.2024	0060	56268476	HLI0550	D293637012	0013293637	            0012	24.05.2024	       0
		4051465071		10267740	4536808046	00001	2127164	Supply cord 220V 4m BRCLIL univ	8330	0001	            60	PC	PC	000010	680714384	58091317	HLI0550	8300	L08	9999	8330	02.09.2024	03.06.2024	0040	56268599	HLI0550	D294360005	0013294360	            0005	25.05.2024	       0
		4051470942		10300738	4536889265	00001	2116103	Insulating foam CF-I 65  ECO	8330	0001	           336	PC	PC	000010	680780975	58104205	HLI0550	8300	L03	9999	8330	02.09.2024	17.06.2024	0020	56262166	HLI0550	D284145006	0013284145	            0006	20.05.2024	       7
		4051470945		10300740	4536890088	00001	2236894	Crank tripod PA 922 tripod	8330	0001	             8	PC	PC	000010	680781786	58104433	HLI0550	8300	L07	9999	8330	02.09.2024	17.06.2024	0010	56283094	HLI0550	D325805006	0013325805	            0006	08.06.2024	       0
		4051470945		10300740	4536890117	00001	2346064	Threaded stud S-BT-MR M10/15 SN 6 HL	8330	0001	           400	PC	PC	000010	680781800	58104443	HLI0550	8300	L10	9999	8330	02.09.2024	17.06.2024	0090	56275166	HLI0550	D306005007	0013306005	            0007	01.06.2024	       7
		4051470945		10300740	4536890123	00001	2346064	Threaded stud S-BT-MR M10/15 SN 6 HL	8330	0001	           400	PC	PC	000010	680781804	58104444	HLI0550	8300	L10	9999	8330	02.09.2024	17.06.2024	0140	56283094	HLI0550	D325805008	0013325805	            0008	08.06.2024	       0
		4051470946		10300740	4536890127	00001	2360929	Band saw blade SP 44-7/8" 14/18	8330	0001	             6	PC	PC	000010	680781806	58104449	HLI0550	8300	L09	9999	8330	02.09.2024	17.06.2024	0050	56278558	HLI0550	D319098010	0013319098	            0010	04.06.2024	       0
		4051470947		10300740	4536890165	00001	2167744	Breaker TE 1000-AVR 230V univ cord	8330	0001	            10	PC	PC	000010	680781825	58103124	HLI0550	8300	L08	9999	8330	02.09.2024	17.06.2024	0010	56239482	HLI0550	D239416002	0013239416	            0002	25.04.2024	       0
		4051470947		10300740	4536890167	00001	2167744	Breaker TE 1000-AVR 230V univ cord	8330	0001	            10	PC	PC	000010	680781826	58103127	HLI0550	8300	L08	9999	8330	02.09.2024	17.06.2024	0010	56239482	HLI0550	D239416002	0013239416	            0002	25.04.2024	       0
		4051473554		10310998	4536929322	00001	2164509	Adhesive capsule HVU2 M20x170	8750	0001	           200	PC	PC	000010	680814132	58085869	HLI0550	8750	L01	9999	8750	26.08.2024	24.06.2024	0020	56262651	HLI0550	D284317002	0013284317	            0002	21.05.2024	      28
		4051473646		10310999	4536929348	00001	2167735	Breaker TE 1000-AVR 220V univ cord	8750	0001	             6	PC	PC	000010	680814148	58109994	HLI0550	8750	L08	9999	8750	26.08.2024	24.06.2024	0030	56206897	HLI0550	D175483005	0013175483	            0005	26.03.2024	      28
		4051473646		10310999	4536929435	00001	2248345	Cordl. angle grinder AG 4S-22-4.5 box	8750	0001	             2	PC	PC	000010	680814226	58110387	HLI0550	8750	L15	9999	8750	26.08.2024	24.06.2024	0010	56285698	HLI0550	D331056001	0013331056	            0001	11.06.2024	       0
		4051473454		10315219	4536930093	00001	2222545	Injectable mortar HIT-RE 100-HC 580/1	8330	0001	           288	PC	PC	000010	680814902	58110868	HLI0550	8300	L01	9999	8330	10.09.2024	24.06.2024	0010	56205831	HLI0550	D166486001	0013166486	            0001	22.03.2024	      70
		4051473653		10315217	4536930160	00001	2194592	Batt.-actuated tool BX 3-BTG A22 case	8330	0001	             1	PC	PC	000010	680814942	58110726	HLI0550	8300	L04	9999	8330	10.09.2024	24.06.2024	0400	56274032	HLI0550	D304811025	0013304811	            0025	30.05.2024	       7
		4051473653		10315217	4536930191	00001	2133384	Firestop wrap strip CFS-W P	8330	0001	           240	PC	PC	000010	680814972	58111273	HLI0550	8300	L03	9999	8330	10.09.2024	24.06.2024	0010	56271167	HLI0550	D256625006	0013256625	            0006	03.05.2024	       0
		4051473654		10315217	4536930221	00001	2165905	Hammer drill bit TE-YX 7/8"-13"	8330	0001	            16	PC	PC	000010	680814996	58111259	HLI0550	8300	L09	9999	8330	10.09.2024	24.06.2024	0080	56288770	HLI0550	D335878015	0013335878	            0015	13.06.2024	       0
		4051473655		10315217	4536930269	00001	2283202	Diamond grinder DGH 130 230V	8330	0001	            23	PC	PC	000010	680815035	58110692	HLI0550	8300	L05	9999	8330	10.09.2024	24.06.2024	0010	56229557	HLI0550	D222188001	0013222188	            0001	17.04.2024	-56
		4051476731		10330549	4536968683	00001	2314529	Batt.-actuated tool BX 3-L-22 case	8330	0001	             9	PC	PC	000010	680847262	58114492	HLI0550	8300	L04	9999	8330	04.09.2024	01.07.2024	0010	56271114	HLI0550	D296032001	0013296032	            0001	27.05.2024	      21
		4051476731		10330549	4536968707	00001	2314550	Batt.-actuated tool BX 3-ME-22 case	8330	0001	             9	PC	PC	000010	680847288	58114471	HLI0550	8300	L04	9999	8330	04.09.2024	01.07.2024	0010	56277333	HLI0550	D304711032	0013304711	            0032	30.05.2024	-7
		4051482028		10359788	4537044092	00001	2101534	Firestop sealant FS-ONE MAX 10.1OZ CART	8330	0001	           936	PC	PC	000010	680907582	58128909	HLI0550	8300	L03	9999	8330	11.09.2024	15.07.2024	0030	56302225	HLI0550	D363795004	0013363795	            0004	26.06.2024	       0
		4051482029		10359789	4537044112	00001	2123404	Injectable mortar HIT-RE 500 V3/500/1	8330	0001	           480	PC	PC	000010	680907602	58128777	HLI0550	8300	L01	9999	8330	11.09.2024	15.07.2024	0020	56312552	HLI0550	D387265002	0013387265	            0002	08.07.2024	       0
		4051483650		10367403	4537061278	00001	2251600	Band saw SB 4-22 case	8750	0001	             1	PC	PC	000010	680921282	58131811	HLI0550	8750	L15	9999	8750	20.08.2024	17.07.2024	0010	56305088	HLI0550	D368252001	0013368252	            0001	28.06.2024	       0
		4051484776		10369020	4537081700	00001	430811	Firestop joint spray CFS-SP WB red	8750	0001	             6	PC	PC	000010	680937764	58134171	HLI0550	8750	L03	9999	8750	18.09.2024	22.07.2024	0010	56303828	HLI0550	D366701002	0013366701	            0002	28.06.2024	-62
		4051484849		10369021	4537081716	00001	2261680	Core bit B 42/430 P-U abras	8750	0001	            16	PC	PC	000010	680937778	58134745	HLI0550	8750	L05	9999	8750	18.09.2024	22.07.2024	0070	56302458	HLI0550	D364784012	0013364784	            0012	27.06.2024	-6
		4051484849		10369021	4537081731	00001	293410	Hammer drill bit TE-YX 32/92	8750	0001	             1	PC	PC	000010	680937793	58134787	HLI0550	8750	L09	9999	8750	18.09.2024	22.07.2024	0030	56278540	HLI0550	D319290002	0013319290	            0002	04.06.2024	      22
		4051484849		10369021	4537081750	00001	378663	Crank tripod PA 921	8750	0001	             3	PC	PC	000010	680937808	58134738	HLI0550	8750	L07	9999	8750	18.09.2024	22.07.2024	0010	56319282	HLI0550	D398956002	0013398956	            0002	12.07.2024	       0
		4051487499		10387791	4537117551	00001	2164507	Adhesive capsule HVU2 M12x110	8330	0001	           360	PC	PC	000010	680967130	58140091	HLI0550	8300	L01	9999	8330	17.09.2024	29.07.2024	0020	56326503	HLI0550	D413136003	0013413136	            0003	20.07.2024	       0
		4051487499		10387791	4537117552	00001	2101918	Injectable mortar HIT-HY 170 500/2-EU	8330	0001	           100	PC	PC	000010	680967131	58140091	HLI0550	8300	L01	9999	8330	17.09.2024	29.07.2024	0010	56326842	HLI0550	D413971001	0013413971	            0001	22.07.2024	       0
		4051490405		10402067	4537152844	00001	2142303	Injectable mortar HIT-RE 10 580/1-WH	8330	0001	           288	PC	PC	000010	680996006	58145301	HLI0550	8300	L01	9999	8330	24.09.2024	05.08.2024	0010	56275397	HLI0550	D304748001	0013304748	            0001	30.05.2024	      56
		4051490407		10402069	4537152919	00001	2005843	Dispenser CFS-DISP	8330	0001	             4	PC	PC	000010	680996077	58145752	HLI0550	8300	L03	9999	8330	24.09.2024	05.08.2024	0010	56329488	HLI0550	D421027008	0013421027	            0008	23.07.2024	       0
		4051490407		10402069	4537152958	00001	2107119	Tripod PUA 25	8330	0001	            16	PC	PC	000010	680996096	58145573	HLI0550	8300	L07	9999	8330	24.09.2024	05.08.2024	0030	56333379	HLI0550	D426673006	0013426673	            0006	27.07.2024	       0
		4051490767		10404488	4537154308	00001	2261814	Change module 122 P-U abras	8330	0001	            12	PC	PC	000010	680997026	58146669	HLI0550	8300	L05	9999	8330	16.08.2024	05.08.2024	0020	56337875	HLI0550	D436842002	0013436842	            0002	31.07.2024	       0
		4051493076		10415976	4537189541	00001	2222545	Injectable mortar HIT-RE 100-HC 580/1	8330	0001	           288	PC	PC	000010	681025991	58150348	HLI0550	8300	L01	9999	8330	01.10.2024	12.08.2024	0010	56207292	HLI0550	D175068001	0013175068	            0001	26.03.2024	      49
		4051493076		10415976	4537189551	00001	2222545	Injectable mortar HIT-RE 100-HC 580/1	8330	0001	           288	PC	PC	000010	681026000	58150354	HLI0550	8300	L01	9999	8330	01.10.2024	12.08.2024	0010	56247948	HLI0550	D256389001	0013256389	            0001	03.05.2024	      91
		4051493076		10415976	4537189556	00001	2142303	Injectable mortar HIT-RE 10 580/1-WH	8330	0001	           288	PC	PC	000010	681026005	58150362	HLI0550	8300	L01	9999	8330	01.10.2024	12.08.2024	0010	56208892	HLI0550	D176960001	0013176960	            0001	27.03.2024	      63
		4051493076		10415976	4537189564	00001	2142303	Injectable mortar HIT-RE 10 580/1-WH	8330	0001	           288	PC	PC	000010	681026013	58150370	HLI0550	8300	L01	9999	8330	01.10.2024	12.08.2024	0010	56208892	HLI0550	D176960001	0013176960	            0001	27.03.2024	      63
		4051493077		10415976	4537189578	00001	2142303	Injectable mortar HIT-RE 10 580/1-WH	8330	0001	           288	PC	PC	000010	681026025	58150501	HLI0550	8300	L01	9999	8330	01.10.2024	12.08.2024	0010	56340273	HLI0550	D444936001	0013444936	            0001	02.08.2024	       0
		4051493077		10415976	4537189579	00001	2142303	Injectable mortar HIT-RE 10 580/1-WH	8330	0001	           288	PC	PC	000010	681026026	58150503	HLI0550	8300	L01	9999	8330	01.10.2024	12.08.2024	0010	56340273	HLI0550	D444936001	0013444936	            0001	02.08.2024	       0
		4051493077		10415976	4537189588	00001	2222545	Injectable mortar HIT-RE 100-HC 580/1	8330	0001	           288	PC	PC	000010	681026035	58150514	HLI0550	8300	L01	9999	8330	01.10.2024	12.08.2024	0010	56340274	HLI0550	D444937001	0013444937	            0001	02.08.2024	       0
		4051493077		10415976	4537189589	00001	2222545	Injectable mortar HIT-RE 100-HC 580/1	8330	0001	           288	PC	PC	000010	681026036	58150512	HLI0550	8300	L01	9999	8330	01.10.2024	12.08.2024	0010	56340274	HLI0550	D444937001	0013444937	            0001	02.08.2024	       0
		4051493080		10415978	4537189607	00001	2116103	Insulating foam CF-I 65  ECO	8330	0001	           336	PC	PC	000010	681026052	58150495	HLI0550	8300	L03	9999	8330	01.10.2024	12.08.2024	0020	56329353	HLI0550	D420757003	0013420757	            0003	23.07.2024	       0
		4051493064		10415979	4537189630	00001	2146846	Breaker TE 500-AVR 220V	8330	0001	            20	PC	PC	000010	681026069	58150993	HLI0550	8300	L08	9999	8330	01.10.2024	12.08.2024	0020	56291815	HLI0550	D341658002	0013341658	            0002	17.06.2024	       0
		4051493064		10415979	4537189638	00001	2333179	Cordl. mixer NMX 6-22 box	8330	0001	             1	PC	PC	000010	681026077	58150899	HLI0550	8300	L15	9999	8330	01.10.2024	12.08.2024	0050	56308210	HLI0550	D380372008	0013380372	            0008	02.07.2024	       0
		4051462466		10257757	4536772578	00001	2254751	Pointed chisel TE-H SM 40	8330	0001	            56	PC	PC	000010	680685504	58085511	HLI0550	8300	L09	9999	8330	14.08.2024	27.05.2024	0020	56261552	HLI0550	D282309006	0013282309	            0006	18.05.2024	       0
		4051462466		10257757	4536772677	00001	432947	Cable tie with holder X-ECT 40 MX	8330	0001	        12.800	PC	PC	000010	680685537	58083999	HLI0550	8300	L04	9999	8330	14.08.2024	27.05.2024	0010	56253633	HLI0550	D267953001	0013267953	            0001	10.05.2024	       8
		4051462466		10257757	4536772681	00001	432947	Cable tie with holder X-ECT 40 MX	8330	0001	        12.800	PC	PC	000010	680685538	58084005	HLI0550	8300	L04	9999	8330	14.08.2024	27.05.2024	0010	56253633	HLI0550	D267953001	0013267953	            0001	10.05.2024	       8
		4051462466		10257757	4536772751	00001	2007686	Jack screw DD-ST-150/160-JS	8330	0001	             1	PC	PC	000010	680685563	58085505	HLI0550	8300	L05	9999	8330	14.08.2024	27.05.2024	0130	56261542	HLI0550	D282817005	0013282817	            0005	18.05.2024	       0
		4051462466		10257757	4536772755	00001	2261683	Core bit B 72/430 P-U abras	8330	0001	             1	PC	PC	000010	680685564	58085505	HLI0550	8300	L05	9999	8330	14.08.2024	27.05.2024	0140	56261542	HLI0550	D282817016	0013282817	            0016	18.05.2024	       0
		4051462467		10257757	4536772761	00001	2077893	Dispenser CFS-DISP 29oz CART	8330	0001	            10	PC	PC	000010	680685566	58085638	HLI0550	8300	L03	9999	8330	14.08.2024	27.05.2024	0010	56262166	HLI0550	D284145005	0013284145	            0005	20.05.2024	       0
		4051462463		10259187	4536776843	00001	2253099	Cordl. combihammer TE 60-22 case	8330	0001	             1	PC	PC	000010	680689150	58084077	HLI0550	8300	L15	9999	8330	14.08.2024	27.05.2024	0010	56206919	HLI0550	D175542001	0013175542	            0001	26.03.2024	       0
		4051462463		10259187	4536776909	00001	2156390	High performance nail X-P 20 B3 MX BULK	8330	0001	        36.000	PC	PC	000010	680689211	58084126	HLI0550	8300	L04	9999	8330	14.08.2024	27.05.2024	0060	56240998	HLI0550	D241782001	0013241782	            0001	27.04.2024	      21
		4051465070		10267740	4536807991	00001	293027	Hammer drill bit TE-YX 1 1/4"-36"	8330	0001	             8	PC	PC	000010	680714321	58091074	HLI0550	8300	L09	9999	8330	02.09.2024	03.06.2024	0020	56240869	HLI0550	D241507007	0013241507	            0007	26.04.2024	       0
		4051465070		10267740	4536807992	00001	2157748	Change module 47 SPX/SP-H abras	8330	0001	             5	PC	PC	000010	680714322	58091069	HLI0550	8300	L05	9999	8330	02.09.2024	03.06.2024	0080	56242901	HLI0550	D246302008	0013246302	            0008	30.04.2024	-14
		4051465071		10267740	4536808024	00001	2194339	Threaded stud X-BT-MR M8/14 SN 8	8330	0001	           200	PC	PC	000010	680714350	58091624	HLI0550	8300	L04	9999	8330	02.09.2024	03.06.2024	0040	56264815	HLI0550	D282817014	0013282817	            0014	18.05.2024	       7
		4051465071		10267740	4536808026	00001	2345767	Threaded stud S-BT-GR M8/7 SN 6 HL	8330	0001	         1.200	PC	PC	000010	680714351	58091624	HLI0550	8300	L10	9999	8330	02.09.2024	03.06.2024	0010	56265376	HLI0550	D282309001	0013282309	            0001	18.05.2024	       7
		4051465071		10267740	4536808044	00001	2168891	Flat chisel TE-SX FM 43 (4)	8330	0001	           112	PC	PC	000010	680714382	58091721	HLI0550	8300	L09	9999	8330	02.09.2024	03.06.2024	0020	56268599	HLI0550	D294360002	0013294360	            0002	25.05.2024	       0
		4051470942		10300738	4536889248	00001	2116103	Insulating foam CF-I 65  ECO	8330	0001	           336	PC	PC	000010	680780964	58104218	HLI0550	8300	L03	9999	8330	02.09.2024	17.06.2024	0020	56262166	HLI0550	D284145006	0013284145	            0006	20.05.2024	       7
		4051470942		10300738	4536889267	00001	2116103	Insulating foam CF-I 65  ECO	8330	0001	           336	PC	PC	000010	680780976	58104219	HLI0550	8300	L03	9999	8330	02.09.2024	17.06.2024	0020	56262166	HLI0550	D284145006	0013284145	            0006	20.05.2024	       7
		4051470945		10300740	4536890033	00001	2184478	Flat washer 8 8,4x16x1,6 ISO 7089 A4 200	8330	0001	         1.000	PC	PC	000010	680781758	58104441	HLI0550	8300	L06	9999	8330	02.09.2024	17.06.2024	0010	56268519	HLI0550	D294355002	0013294355	            0002	24.05.2024	       0
		4051470945		10300740	4536890039	00001	3739	Spring clip	8330	0001	            90	PC	PC	000010	680781761	58104441	HLI0550	8300	L04	9999	8330	02.09.2024	17.06.2024	0050	56274032	HLI0550	D304811020	0013304811	            0020	30.05.2024	       0
		4051470945		10300740	4536890113	00001	2156391	High performance nail X-P 24 B3 MX BULK	8330	0001	       108.000	PC	PC	000010	680781798	58103267	HLI0550	8300	L04	9999	8330	02.09.2024	17.06.2024	0380	56274048	HLI0550	D304711011	0013304711	            0011	30.05.2024	-28
		4051470945		10300740	4536890115	00001	2156391	High performance nail X-P 24 B3 MX BULK	8330	0001	       108.000	PC	PC	000010	680781799	58103266	HLI0550	8300	L04	9999	8330	02.09.2024	17.06.2024	0390	56274048	HLI0550	D304711024	0013304711	            0024	30.05.2024	-14
		4051470947		10300740	4536890169	00001	2167744	Breaker TE 1000-AVR 230V univ cord	8330	0001	            10	PC	PC	000010	680781827	58103126	HLI0550	8300	L08	9999	8330	02.09.2024	17.06.2024	0010	56239482	HLI0550	D239416002	0013239416	            0002	25.04.2024	       0
		4051470947		10300740	4536890203	00001	2203668	Diamond coring tool DD 150-U 220V	8330	0001	             1	PC	PC	000010	680781843	58103610	HLI0550	8300	L05	9999	8330	02.09.2024	17.06.2024	0010	56260289	HLI0550	D281029001	0013281029	            0001	17.05.2024	       7
		4051473554		10310998	4536929317	00001	209625	FS joint filler CP 606 310ml white	8750	0001	            20	PC	PC	000010	680814129	58085870	HLI0550	8750	L03	9999	8750	26.08.2024	24.06.2024	0040	56240885	HLI0550	D241547010	0013241547	            0010	26.04.2024	      28
		4051473554		10310998	4536929330	00001	2164509	Adhesive capsule HVU2 M20x170	8750	0001	            20	PC	PC	000010	680814137	58111713	HLI0550	8750	L01	9999	8750	26.08.2024	24.06.2024	0030	56274135	HLI0550	D304655005	0013304655	            0005	31.05.2024	       0
		4051473646		10310999	4536929354	00001	428942	Breaker TE 700-AVR 220V	8750	0001	             1	PC	PC	000010	680814151	58110425	HLI0550	8750	L08	9999	8750	26.08.2024	24.06.2024	0090	56232771	HLI0550	D226780015	0013226780	            0015	19.04.2024	       0
		4051473646		10310999	4536929356	00001	428942	Breaker TE 700-AVR 220V	8750	0001	             1	PC	PC	000010	680814152	58110426	HLI0550	8750	L08	9999	8750	26.08.2024	24.06.2024	0090	56232771	HLI0550	D226780015	0013226780	            0015	19.04.2024	       0
		4051473454		10315219	4536930095	00001	2222545	Injectable mortar HIT-RE 100-HC 580/1	8330	0001	           288	PC	PC	000010	680814903	58110862	HLI0550	8300	L01	9999	8330	10.09.2024	24.06.2024	0010	56205831	HLI0550	D166486001	0013166486	            0001	22.03.2024	      70
		4051473454		10315219	4536930097	00001	2222545	Injectable mortar HIT-RE 100-HC 580/1	8330	0001	           288	PC	PC	000010	680814904	58110867	HLI0550	8300	L01	9999	8330	10.09.2024	24.06.2024	0010	56205831	HLI0550	D166486001	0013166486	            0001	22.03.2024	      70
		4051473653		10315217	4536930169	00001	2194592	Batt.-actuated tool BX 3-BTG A22 case	8330	0001	             1	PC	PC	000010	680814951	58110726	HLI0550	8300	L04	9999	8330	10.09.2024	24.06.2024	0660	56274048	HLI0550	D304711017	0013304711	            0017	30.05.2024	-7
		4051473653		10315217	4536930175	00001	2156390	High performance nail X-P 20 B3 MX BULK	8330	0001	        36.000	PC	PC	000010	680814957	58109909	HLI0550	8300	L04	9999	8330	10.09.2024	24.06.2024	0080	56275166	HLI0550	D306005004	0013306005	            0004	01.06.2024	      14
		4051473653		10315217	4536930192	00001	2133384	Firestop wrap strip CFS-W P	8330	0001	            80	PC	PC	000010	680814973	58111272	HLI0550	8300	L03	9999	8330	10.09.2024	24.06.2024	0010	56271167	HLI0550	D256625006	0013256625	            0006	03.05.2024	       0
		4051473653		10315217	4536930193	00001	2133384	Firestop wrap strip CFS-W P	8330	0001	            48	PC	PC	000010	680814974	58111271	HLI0550	8300	L03	9999	8330	10.09.2024	24.06.2024	0010	56271167	HLI0550	D256625006	0013256625	            0006	03.05.2024	       0
		4051473654		10315217	4536930222	00001	304920	Twist drill bit HSS 5,5x93mm "MP10	8330	0001	           120	PC	PC	000010	680814997	58111259	HLI0550	8300	L09	9999	8330	10.09.2024	24.06.2024	0090	56288770	HLI0550	D335878016	0013335878	            0016	13.06.2024	       0
		4051473654		10315217	4536930225	00001	2270752	Bimetal hole saw 35mm-1 3/8" MetalCut	8330	0001	             1	PC	PC	000010	680814999	58111259	HLI0550	8300	L09	9999	8330	10.09.2024	24.06.2024	0100	56288770	HLI0550	D335878018	0013335878	            0018	13.06.2024	       0
		4051473655		10315217	4536930262	00001	2283202	Diamond grinder DGH 130 230V	8330	0001	             4	PC	PC	000010	680815028	58110754	HLI0550	8300	L05	9999	8330	10.09.2024	24.06.2024	0130	56228107	HLI0550	D219960012	0013219960	            0012	17.04.2024	-28
		4051473655		10315217	4536930263	00001	2283202	Diamond grinder DGH 130 230V	8330	0001	             5	PC	PC	000010	680815029	58110818	HLI0550	8300	L05	9999	8330	10.09.2024	24.06.2024	0130	56228107	HLI0550	D219960012	0013219960	            0012	17.04.2024	-28
		4051476731		10330549	4536968708	00001	2314550	Batt.-actuated tool BX 3-ME-22 case	8330	0001	             9	PC	PC	000010	680847289	58114479	HLI0550	8300	L04	9999	8330	04.09.2024	01.07.2024	0020	56277333	HLI0550	D304711041	0013304711	            0041	30.05.2024	-14
		4051476731		10330549	4536968709	00001	2314550	Batt.-actuated tool BX 3-ME-22 case	8330	0001	             9	PC	PC	000010	680847291	58114487	HLI0550	8300	L04	9999	8330	04.09.2024	01.07.2024	0030	56277333	HLI0550	D304711087	0013304711	            0087	30.05.2024	       7
		4051482028		10359788	4537044093	00001	2101534	Firestop sealant FS-ONE MAX 10.1OZ CART	8330	0001	            60	PC	PC	000010	680907583	58128910	HLI0550	8300	L03	9999	8330	11.09.2024	15.07.2024	0030	56302225	HLI0550	D363795004	0013363795	            0004	26.06.2024	       0
		4051482028		10359788	4537044104	00001	2101534	Firestop sealant FS-ONE MAX 10.1OZ CART	8330	0001	            36	PC	PC	000010	680907593	58128997	HLI0550	8300	L03	9999	8330	11.09.2024	15.07.2024	0030	56302225	HLI0550	D363795004	0013363795	            0004	26.06.2024	       0
		4051482029		10359789	4537044113	00001	2123404	Injectable mortar HIT-RE 500 V3/500/1	8330	0001	           480	PC	PC	000010	680907603	58128770	HLI0550	8300	L01	9999	8330	11.09.2024	15.07.2024	0020	56312552	HLI0550	D387265002	0013387265	            0002	08.07.2024	       0
		4051482029		10359789	4537044114	00001	2123404	Injectable mortar HIT-RE 500 V3/500/1	8330	0001	           480	PC	PC	000010	680907604	58128774	HLI0550	8300	L01	9999	8330	11.09.2024	15.07.2024	0020	56312552	HLI0550	D387265002	0013387265	            0002	08.07.2024	       0
		4051483650		10367403	4537061270	00001	2341101	Hammer drill bit TE-CX 5/8"-18"	8750	0001	             5	PC	PC	000010	680921274	58132216	HLI0550	8750	L09	9999	8750	20.08.2024	17.07.2024	0010	56246607	HLI0550	D247771001	0013247771	            0001	30.04.2024	      52
		4051483650		10367403	4537061279	00001	2251600	Band saw SB 4-22 case	8750	0001	             1	PC	PC	000010	680921283	58131854	HLI0550	8750	L15	9999	8750	20.08.2024	17.07.2024	0010	56305088	HLI0550	D368252001	0013368252	            0001	28.06.2024	       0
		4051484776		10369020	4537081704	00001	2164509	Adhesive capsule HVU2 M20x170	8750	0001	            70	PC	PC	000010	680937766	58134212	HLI0550	8750	L01	9999	8750	18.09.2024	22.07.2024	0020	56321306	HLI0550	D405551002	0013405551	            0002	16.07.2024	       0
		4051484776		10369020	4537081706	00001	2164509	Adhesive capsule HVU2 M20x170	8750	0001	           200	PC	PC	000010	680937768	58134211	HLI0550	8750	L01	9999	8750	18.09.2024	22.07.2024	0020	56321306	HLI0550	D405551002	0013405551	            0002	16.07.2024	       0
		4051484849		10369021	4537081717	00001	2105713	Stud anchor HST3 M10x100 40/20	8750	0001	           600	PC	PC	000010	680937779	58134745	HLI0550	8750	L02	9999	8750	18.09.2024	22.07.2024	0010	56322131	HLI0550	D406745001	0013406745	            0001	16.07.2024	       0
		4051484849		10369021	4537081730	00001	2117978	Cutting disc EQD SPX 400/25 univ	8750	0001	             1	PC	PC	000010	680937792	58134788	HLI0550	8750	L05	9999	8750	18.09.2024	22.07.2024	0160	56270147	HLI0550	D298013009	0013298013	            0009	28.05.2024	      22
		4051487499		10387791	4537117553	00001	2334277	Injectable mortar HY 200-R V3 500/1/WH	8330	0001	           160	PC	PC	000010	680967133	58139846	HLI0550	8300	L01	9999	8330	17.09.2024	29.07.2024	0060	56312552	HLI0550	D387265006	0013387265	            0006	08.07.2024	       0
		4051487499		10387791	4537117556	00001	2334277	Injectable mortar HY 200-R V3 500/1/WH	8330	0001	           320	PC	PC	000010	680967136	58139846	HLI0550	8300	L01	9999	8330	17.09.2024	29.07.2024	0060	56312552	HLI0550	D387265006	0013387265	            0006	08.07.2024	       0
		4051490405		10402067	4537152845	00001	2142303	Injectable mortar HIT-RE 10 580/1-WH	8330	0001	           288	PC	PC	000010	680996008	58145300	HLI0550	8300	L01	9999	8330	24.09.2024	05.08.2024	0010	56275397	HLI0550	D304748001	0013304748	            0001	30.05.2024	      56
		4051490405		10402067	4537152846	00001	2142303	Injectable mortar HIT-RE 10 580/1-WH	8330	0001	           288	PC	PC	000010	680996010	58145299	HLI0550	8300	L01	9999	8330	24.09.2024	05.08.2024	0010	56275397	HLI0550	D304748001	0013304748	            0001	30.05.2024	      56
		4051490407		10402069	4537152861	00001	2160049	Combihammer TE 30-AVR 220V case	8330	0001	             1	PC	PC	000010	680996043	58145275	HLI0550	8300	L08	9999	8330	24.09.2024	05.08.2024	0090	56296328	HLI0550	D352701014	0013352701	            0014	20.06.2024	       0
		4051490407		10402069	4537152866	00001	2121123	Angle grinder AG 125-13S 230V	8330	0001	             1	PC	PC	000010	680996054	58145973	HLI0550	8300	L08	9999	8330	24.09.2024	05.08.2024	0020	56308210	HLI0550	D380372002	0013380372	            0002	02.07.2024	-63
		4051490767		10404488	4537154301	00001	2156390	High performance nail X-P 20 B3 MX BULK	8330	0001	       180.000	PC	PC	000010	680997014	58146785	HLI0550	8300	L04	9999	8330	16.08.2024	05.08.2024	0010	56329798	HLI0550	D420526001	0013420526	            0001	23.07.2024	       7
		4051490767		10404488	4537154307	00001	2261737	Core bit B 172/430+ P-U abras	8330	0001	             5	PC	PC	000010	680997024	58146649	HLI0550	8300	L05	9999	8330	16.08.2024	05.08.2024	0010	56337875	HLI0550	D436842001	0013436842	            0001	31.07.2024	       7
		4051493076		10415976	4537189552	00001	2222545	Injectable mortar HIT-RE 100-HC 580/1	8330	0001	           288	PC	PC	000010	681026001	58150352	HLI0550	8300	L01	9999	8330	01.10.2024	12.08.2024	0010	56247948	HLI0550	D256389001	0013256389	            0001	03.05.2024	      91
		4051493076		10415976	4537189553	00001	2222545	Injectable mortar HIT-RE 100-HC 580/1	8330	0001	           288	PC	PC	000010	681026002	58150355	HLI0550	8300	L01	9999	8330	01.10.2024	12.08.2024	0010	56247948	HLI0550	D256389001	0013256389	            0001	03.05.2024	      91
		4051493076		10415976	4537189557	00001	2142303	Injectable mortar HIT-RE 10 580/1-WH	8330	0001	           288	PC	PC	000010	681026006	58150363	HLI0550	8300	L01	9999	8330	01.10.2024	12.08.2024	0010	56208892	HLI0550	D176960001	0013176960	            0001	27.03.2024	      63
		4051493076		10415976	4537189565	00001	2142303	Injectable mortar HIT-RE 10 580/1-WH	8330	0001	           288	PC	PC	000010	681026014	58150369	HLI0550	8300	L01	9999	8330	01.10.2024	12.08.2024	0010	56208892	HLI0550	D176960001	0013176960	            0001	27.03.2024	      63
		4051493077		10415976	4537189580	00001	2142303	Injectable mortar HIT-RE 10 580/1-WH	8330	0001	           288	PC	PC	000010	681026027	58150502	HLI0550	8300	L01	9999	8330	01.10.2024	12.08.2024	0010	56340273	HLI0550	D444936001	0013444936	            0001	02.08.2024	       0
		4051493077		10415976	4537189581	00001	2142303	Injectable mortar HIT-RE 10 580/1-WH	8330	0001	           288	PC	PC	000010	681026028	58150505	HLI0550	8300	L01	9999	8330	01.10.2024	12.08.2024	0010	56340273	HLI0550	D444936001	0013444936	            0001	02.08.2024	       0
		4051493077		10415976	4537189590	00001	2222545	Injectable mortar HIT-RE 100-HC 580/1	8330	0001	           288	PC	PC	000010	681026037	58150515	HLI0550	8300	L01	9999	8330	01.10.2024	12.08.2024	0010	56340274	HLI0550	D444937001	0013444937	            0001	02.08.2024	       0
		4051493077		10415976	4537189591	00001	2222545	Injectable mortar HIT-RE 100-HC 580/1	8330	0001	           288	PC	PC	000010	681026038	58150498	HLI0550	8300	L01	9999	8330	01.10.2024	12.08.2024	0010	56340274	HLI0550	D444937001	0013444937	            0001	02.08.2024	       0
		4051493064		10415979	4537189705	00001	2146846	Breaker TE 500-AVR 220V	8330	0001	            20	PC	PC	000010	681026141	58150992	HLI0550	8300	L08	9999	8330	01.10.2024	12.08.2024	0010	56340008	HLI0550	D445043001	0013445043	            0001	02.08.2024	       0
		4051493064		10415979	4537189706	00001	2146846	Breaker TE 500-AVR 220V	8330	0001	            10	PC	PC	000010	681026143	58150990	HLI0550	8300	L08	9999	8330	01.10.2024	12.08.2024	0010	56340008	HLI0550	D445043001	0013445043	            0001	02.08.2024	       0
		4051494341		10422345	4537203279	00001	2323248	Threaded stud X-M6-8-87 DP7 SCT B3	8750	0001	           300	PC	PC	000010	681037411	58154869	HLI0550	8750	L04	9999	8750	10.09.2024	14.08.2024	0020	56284876	HLI0550	D329248003	0013329248	            0003	11.06.2024	      56
		4051462466		10257757	4536772541	00001	2149226	Univ. cable tie holder X-UCT-E MX	8330	0001	        18.000	PC	PC	000010	680685481	58085578	HLI0550	8300	L04	9999	8330	14.08.2024	27.05.2024	0030	56255537	HLI0550	D273947011	0013273947	            0011	14.05.2024	-7
		4051462466		10257757	4536772684	00001	432947	Cable tie with holder X-ECT 40 MX	8330	0001	        12.800	PC	PC	000010	680685539	58084002	HLI0550	8300	L04	9999	8330	14.08.2024	27.05.2024	0010	56253633	HLI0550	D267953001	0013267953	            0001	10.05.2024	       8
		4051462466		10257757	4536772688	00001	432947	Cable tie with holder X-ECT 40 MX	8330	0001	        12.800	PC	PC	000010	680685540	58083997	HLI0550	8300	L04	9999	8330	14.08.2024	27.05.2024	0010	56253633	HLI0550	D267953001	0013267953	            0001	10.05.2024	       8
		4051462466		10257757	4536772718	00001	2261727	Core bit B 77/430+ P-U abras	8330	0001	             6	PC	PC	000010	680685553	58085780	HLI0550	8300	L05	9999	8330	14.08.2024	27.05.2024	0140	56231481	HLI0550	D224992007	0013224992	            0007	19.04.2024	      28
		4051462466		10257757	4536772734	00001	2261727	Core bit B 77/430+ P-U abras	8330	0001	             6	PC	PC	000010	680685558	58085509	HLI0550	8300	L05	9999	8330	14.08.2024	27.05.2024	0010	56243383	HLI0550	D245414001	0013245414	            0001	29.04.2024	      14
		4051462467		10257757	4536772765	00001	2077893	Dispenser CFS-DISP 29oz CART	8330	0001	            10	PC	PC	000010	680685567	58085707	HLI0550	8300	L03	9999	8330	14.08.2024	27.05.2024	0010	56262166	HLI0550	D284145005	0013284145	            0005	20.05.2024	       0
		4051462463		10259187	4536776875	00001	2309293	Cordless breaker TE 500-22 case	8330	0001	             5	PC	PC	000010	680689180	58084289	HLI0550	8300	L15	9999	8330	14.08.2024	27.05.2024	0070	56226152	HLI0550	D216927009	0013216927	            0009	15.04.2024	       0
		4051462463		10259187	4536776915	00001	2314550	Batt.-actuated tool BX 3-ME-22 case	8330	0001	             9	PC	PC	000010	680689217	58084290	HLI0550	8300	L04	9999	8330	14.08.2024	27.05.2024	0100	56250900	HLI0550	D264364003	0013264364	            0003	08.05.2024	       0
		4051462463		10259187	4536776924	00001	2156390	High performance nail X-P 20 B3 MX BULK	8330	0001	        36.000	PC	PC	000010	680689226	58084126	HLI0550	8300	L04	9999	8330	14.08.2024	27.05.2024	0110	56252831	HLI0550	D267052009	0013267052	            0009	10.05.2024	       8
		4051465070		10267740	4536808004	00001	2076510	Core bit C+ 25/300 SPX-T	8330	0001	             2	PC	PC	000010	680714332	58091069	HLI0550	8300	L05	9999	8330	02.09.2024	03.06.2024	0160	56261542	HLI0550	D282817001	0013282817	            0001	18.05.2024	       7
		4051465070		10267740	4536808006	00001	2076509	Core bit C+ 24/300 SPX-T	8330	0001	             2	PC	PC	000010	680714334	58091069	HLI0550	8300	L05	9999	8330	02.09.2024	03.06.2024	0170	56261542	HLI0550	D282817012	0013282817	            0012	18.05.2024	       7
		4051465070		10267740	4536808007	00001	2199668	Core bit B 42/430 SP-H abras	8330	0001	             1	PC	PC	000010	680714335	58091069	HLI0550	8300	L05	9999	8330	02.09.2024	03.06.2024	0180	56261542	HLI0550	D282817009	0013282817	            0009	18.05.2024	-21
		4051465071		10267740	4536808022	00001	2345767	Threaded stud S-BT-GR M8/7 SN 6 HL	8330	0001	        19.200	PC	PC	000010	680714348	58091081	HLI0550	8300	L10	9999	8330	02.09.2024	03.06.2024	0020	56262311	HLI0550	D284295001	0013284295	            0001	20.05.2024	       7
		4051465071		10267740	4536808023	00001	2345767	Threaded stud S-BT-GR M8/7 SN 6 HL	8330	0001	         7.200	PC	PC	000010	680714349	58091082	HLI0550	8300	L10	9999	8330	02.09.2024	03.06.2024	0020	56262311	HLI0550	D284295001	0013284295	            0001	20.05.2024	       7
		4051465071		10267740	4536808035	00001	215196	Starting aid DD 110-D DD-SA-RK M27	8330	0001	            10	PC	PC	000010	680714362	58091624	HLI0550	8300	L05	9999	8330	02.09.2024	03.06.2024	0070	56265721	HLI0550	D289752021	0013289752	            0021	23.05.2024	       0
		4051470942		10300738	4536889249	00001	2116103	Insulating foam CF-I 65  ECO	8330	0001	           336	PC	PC	000010	680780965	58104216	HLI0550	8300	L03	9999	8330	02.09.2024	17.06.2024	0020	56262166	HLI0550	D284145006	0013284145	            0006	20.05.2024	       7
		4051470942		10300738	4536889251	00001	2116103	Insulating foam CF-I 65  ECO	8330	0001	            48	PC	PC	000010	680780967	58104203	HLI0550	8300	L03	9999	8330	02.09.2024	17.06.2024	0020	56262166	HLI0550	D284145006	0013284145	            0006	20.05.2024	       7
		4051470942		10300738	4536889269	00001	2116103	Insulating foam CF-I 65  ECO	8330	0001	           288	PC	PC	000010	680780977	58104203	HLI0550	8300	L03	9999	8330	02.09.2024	17.06.2024	0020	56262166	HLI0550	D284145006	0013284145	            0006	20.05.2024	       7
		4051470945		10300740	4536890043	00001	2194340	Threaded stud X-BT-MR M10/15 SN 8	8330	0001	           500	PC	PC	000010	680781763	58104441	HLI0550	8300	L04	9999	8330	02.09.2024	17.06.2024	0350	56274032	HLI0550	D304811011	0013304811	            0011	30.05.2024	       0
		4051470945		10300740	4536890047	00001	2278640	Filter VC 20/40/150-X dry	8330	0001	             1	PC	PC	000010	680781765	58104441	HLI0550	8300	L05	9999	8330	02.09.2024	17.06.2024	0070	56274048	HLI0550	D304711022	0013304711	            0022	30.05.2024	-21
		4051470945		10300740	4536890048	00001	2121387	Filter VC 20/40/150 univ	8330	0001	             1	PC	PC	000010	680781766	58104441	HLI0550	8300	L05	9999	8330	02.09.2024	17.06.2024	0140	56274048	HLI0550	D304711052	0013304711	            0052	30.05.2024	-28
		4051470947		10300740	4536890151	00001	2156391	High performance nail X-P 24 B3 MX BULK	8330	0001	        72.000	PC	PC	000010	680781818	58103281	HLI0550	8300	L04	9999	8330	02.09.2024	17.06.2024	0040	56231481	HLI0550	D224992003	0013224992	            0003	19.04.2024	      49
		4051470947		10300740	4536890209	00001	2194592	Batt.-actuated tool BX 3-BTG A22 case	8330	0001	             1	PC	PC	000010	680781846	58103716	HLI0550	8300	L04	9999	8330	02.09.2024	17.06.2024	0110	56261542	HLI0550	D282817030	0013282817	            0030	18.05.2024	       7
		4051470947		10300740	4536890216	00001	2203668	Diamond coring tool DD 150-U 220V	8330	0001	             1	PC	PC	000010	680781848	58103610	HLI0550	8300	L05	9999	8330	02.09.2024	17.06.2024	0060	56261552	HLI0550	D282309013	0013282309	            0013	18.05.2024	       7
		4051473554		10310998	4536929332	00001	2164509	Adhesive capsule HVU2 M20x170	8750	0001	           200	PC	PC	000010	680814138	58111209	HLI0550	8750	L01	9999	8750	26.08.2024	24.06.2024	0030	56274135	HLI0550	D304655005	0013304655	            0005	31.05.2024	       0
		4051473646		10310999	4536929358	00001	428942	Breaker TE 700-AVR 220V	8750	0001	             1	PC	PC	000010	680814153	58110427	HLI0550	8750	L08	9999	8750	26.08.2024	24.06.2024	0090	56232771	HLI0550	D226780015	0013226780	            0015	19.04.2024	       0
		4051473646		10310999	4536929382	00001	2064821	Breaker TE 800-AVR 230V	8750	0001	             6	PC	PC	000010	680814180	58109992	HLI0550	8750	L08	9999	8750	26.08.2024	24.06.2024	0050	56248891	HLI0550	D260624008	0013260624	            0008	06.05.2024	       0
		4051473454		10315219	4536930099	00001	2222545	Injectable mortar HIT-RE 100-HC 580/1	8330	0001	           288	PC	PC	000010	680814905	58110870	HLI0550	8300	L01	9999	8330	10.09.2024	24.06.2024	0010	56205831	HLI0550	D166486001	0013166486	            0001	22.03.2024	      70
		4051473454		10315219	4536930100	00001	2222545	Injectable mortar HIT-RE 100-HC 580/1	8330	0001	           288	PC	PC	000010	680814906	58110860	HLI0550	8300	L01	9999	8330	10.09.2024	24.06.2024	0010	56205831	HLI0550	D166486001	0013166486	            0001	22.03.2024	      70
		4051473454		10315219	4536930102	00001	2222545	Injectable mortar HIT-RE 100-HC 580/1	8330	0001	           288	PC	PC	000010	680814907	58110881	HLI0550	8300	L01	9999	8330	10.09.2024	24.06.2024	0010	56205831	HLI0550	D166486001	0013166486	            0001	22.03.2024	      70
		4051473653		10315217	4536930155	00001	2346074	Elec. connector S-BT-ER M10/15 SN 6 HL	8330	0001	           300	PC	PC	000010	680814936	58111158	HLI0550	8300	L10	9999	8330	10.09.2024	24.06.2024	0070	56264815	HLI0550	D282817003	0013282817	            0003	18.05.2024	      28
		4051473653		10315217	4536930156	00001	2151637	Hammer drill bit TE-CX 14/37	8330	0001	             3	PC	PC	000010	680814937	58111158	HLI0550	8300	L09	9999	8330	10.09.2024	24.06.2024	0130	56270007	HLI0550	D298389007	0013298389	            0007	27.05.2024	      21
		4051473653		10315217	4536930187	00001	2156390	High performance nail X-P 20 B3 MX BULK	8330	0001	        36.000	PC	PC	000010	680814968	58109909	HLI0550	8300	L04	9999	8330	10.09.2024	24.06.2024	0110	56283094	HLI0550	D325805004	0013325805	            0004	08.06.2024	       7
		4051473653		10315217	4536930196	00001	2346060	Threaded stud S-BT-MF M10/15 AN 6 HL	8330	0001	           900	PC	PC	000010	680814976	58111271	HLI0550	8300	L10	9999	8330	10.09.2024	24.06.2024	0370	56274032	HLI0550	D304811019	0013304811	            0019	30.05.2024	      14
		4051473654		10315217	4536930228	00001	2025908	Hammer drill bit TE-CX 5/16"-6" MP8	8330	0001	           104	PC	PC	000010	680815001	58111259	HLI0550	8300	L09	9999	8330	10.09.2024	24.06.2024	0130	56288770	HLI0550	D335878022	0013335878	            0022	13.06.2024	       0
		4051473654		10315217	4536930232	00001	2076482	Core bit C+ 35/300 SPX-T abras	8330	0001	             2	PC	PC	000010	680815004	58111259	HLI0550	8300	L05	9999	8330	10.09.2024	24.06.2024	0030	56289016	HLI0550	D335928001	0013335928	            0001	14.06.2024	       0
		4051473654		10315217	4536930234	00001	2217525	Threaded stud X-BT-MR0 M10/15 SN 8	8330	0001	         1.200	PC	PC	000010	680815006	58111259	HLI0550	8300	L04	9999	8330	10.09.2024	24.06.2024	0010	56289473	HLI0550	D328149001	0013328149	            0001	10.06.2024	       7
		4051473655		10315217	4536930258	00001	418080	Screw anchor KH-EZ 5/8"x5 1/2"	8330	0001	            30	PC	PC	000010	680815024	58111157	HLI0550	8300	L02	9999	8330	10.09.2024	24.06.2024	0010	56217289	HLI0550	D196507001	0013196507	            0001	05.04.2024	       0
		4051473655		10315217	4536930264	00001	2283202	Diamond grinder DGH 130 230V	8330	0001	            32	PC	PC	000010	680815030	58110846	HLI0550	8300	L05	9999	8330	10.09.2024	24.06.2024	0130	56228107	HLI0550	D219960012	0013219960	            0012	17.04.2024	-28
		4051473655		10315217	4536930276	00001	2261727	Core bit B 77/430+ P-U abras	8330	0001	             2	PC	PC	000010	680815041	58111157	HLI0550	8300	L05	9999	8330	10.09.2024	24.06.2024	0020	56243383	HLI0550	D245414001	0013245414	            0001	29.04.2024	      14
		4051476731		10330549	4536968687	00001	432947	Cable tie with holder X-ECT 40 MX	8330	0001	        12.800	PC	PC	000010	680847266	58115821	HLI0550	8300	L04	9999	8330	04.09.2024	01.07.2024	0120	56274048	HLI0550	D304711047	0013304711	            0047	30.05.2024	       0
		4051476731		10330549	4536968688	00001	432947	Cable tie with holder X-ECT 40 MX	8330	0001	        12.800	PC	PC	000010	680847267	58115822	HLI0550	8300	L04	9999	8330	04.09.2024	01.07.2024	0120	56274048	HLI0550	D304711047	0013304711	            0047	30.05.2024	       0
		4051482028		10359788	4537044097	00001	2101918	Injectable mortar HIT-HY 170 500/2-EU	8330	0001	           120	PC	PC	000010	680907587	58128910	HLI0550	8300	L01	9999	8330	11.09.2024	15.07.2024	0010	56312552	HLI0550	D387265001	0013387265	            0001	08.07.2024	       0
		4051482028		10359788	4537044098	00001	2164508	Adhesive capsule HVU2 M16x125	8330	0001	         1.440	PC	PC	000010	680907588	58128910	HLI0550	8300	L01	9999	8330	11.09.2024	15.07.2024	0030	56312552	HLI0550	D387265003	0013387265	            0003	08.07.2024	       0
		4051482028		10359788	4537044101	00001	2101918	Injectable mortar HIT-HY 170 500/2-EU	8330	0001	           100	PC	PC	000010	680907591	58128910	HLI0550	8300	L01	9999	8330	11.09.2024	15.07.2024	0010	56305389	HLI0550	D373293001	0013373293	            0001	01.07.2024	       0
		4051482029		10359789	4537044115	00001	2123404	Injectable mortar HIT-RE 500 V3/500/1	8330	0001	           480	PC	PC	000010	680907605	58128778	HLI0550	8300	L01	9999	8330	11.09.2024	15.07.2024	0020	56312552	HLI0550	D387265002	0013387265	            0002	08.07.2024	       0
		4051482029		10359789	4537044116	00001	2123404	Injectable mortar HIT-RE 500 V3/500/1	8330	0001	           480	PC	PC	000010	680907606	58128779	HLI0550	8300	L01	9999	8330	11.09.2024	15.07.2024	0020	56312552	HLI0550	D387265002	0013387265	            0002	08.07.2024	       0
		4051482029		10359789	4537044117	00001	2123404	Injectable mortar HIT-RE 500 V3/500/1	8330	0001	           480	PC	PC	000010	680907607	58128769	HLI0550	8300	L01	9999	8330	11.09.2024	15.07.2024	0020	56312552	HLI0550	D387265002	0013387265	            0002	08.07.2024	       0
		4051483650		10367403	4537061271	00001	2105895	Stud anchor HST3 M24x230 -/60	8750	0001	            10	PC	PC	000010	680921275	58132216	HLI0550	8750	L02	9999	8750	20.08.2024	17.07.2024	0030	56266147	HLI0550	D289657003	0013289657	            0003	22.05.2024	      28
		4051483650		10367403	4537061273	00001	2323246	Threaded stud X-M6-8-62 DP7 SCT B3	8750	0001	           300	PC	PC	000010	680921277	58132216	HLI0550	8750	L04	9999	8750	20.08.2024	17.07.2024	0010	56284876	HLI0550	D329248002	0013329248	            0002	11.06.2024	      28
		4051483650		10367403	4537061274	00001	2346060	Threaded stud S-BT-MF M10/15 AN 6 HL	8750	0001	           600	PC	PC	000010	680921278	58132216	HLI0550	8750	L10	9999	8750	20.08.2024	17.07.2024	0010	56299155	HLI0550	D354427001	0013354427	            0001	21.06.2024	       0
		4051484849		10369021	4537081732	00001	2105894	Stud anchor HST3 M24x200 -/30	8750	0001	           320	PC	PC	000010	680937794	58134737	HLI0550	8750	L02	9999	8750	18.09.2024	22.07.2024	0010	56283479	HLI0550	D325668001	0013325668	            0001	07.06.2024	      22
		4051484849		10369021	4537081746	00001	2349153	Grating disc X-FCM-F 28/33	8750	0001	         2.400	PC	PC	000010	680937806	58134737	HLI0550	8750	L04	9999	8750	18.09.2024	22.07.2024	0050	56318108	HLI0550	D398034005	0013398034	            0005	11.07.2024	-6
		4051490405		10402067	4537152847	00001	2142303	Injectable mortar HIT-RE 10 580/1-WH	8330	0001	           288	PC	PC	000010	680996012	58145298	HLI0550	8300	L01	9999	8330	24.09.2024	05.08.2024	0010	56275397	HLI0550	D304748001	0013304748	            0001	30.05.2024	      56
		4051490407		10402069	4537152897	00001	2121123	Angle grinder AG 125-13S 230V	8330	0001	             4	PC	PC	000010	680996068	58145974	HLI0550	8300	L08	9999	8330	24.09.2024	05.08.2024	0010	56326375	HLI0550	D413601002	0013413601	            0002	19.07.2024	-77
		4051490407		10402069	4537152900	00001	2121123	Angle grinder AG 125-13S 230V	8330	0001	             3	PC	PC	000010	680996069	58145976	HLI0550	8300	L08	9999	8330	24.09.2024	05.08.2024	0010	56326375	HLI0550	D413601002	0013413601	            0002	19.07.2024	-77
		4051493076		10415976	4537189542	00001	2222545	Injectable mortar HIT-RE 100-HC 580/1	8330	0001	           288	PC	PC	000010	681025992	58150346	HLI0550	8300	L01	9999	8330	01.10.2024	12.08.2024	0010	56207292	HLI0550	D175068001	0013175068	            0001	26.03.2024	      49
		4051493076		10415976	4537189546	00001	2222545	Injectable mortar HIT-RE 100-HC 580/1	8330	0001	           288	PC	PC	000010	681025995	58150350	HLI0550	8300	L01	9999	8330	01.10.2024	12.08.2024	0010	56247948	HLI0550	D256389001	0013256389	            0001	03.05.2024	      91
		4051493076		10415976	4537189558	00001	2142303	Injectable mortar HIT-RE 10 580/1-WH	8330	0001	           288	PC	PC	000010	681026007	58150359	HLI0550	8300	L01	9999	8330	01.10.2024	12.08.2024	0010	56208892	HLI0550	D176960001	0013176960	            0001	27.03.2024	      63
		4051493076		10415976	4537189566	00001	2142303	Injectable mortar HIT-RE 10 580/1-WH	8330	0001	           288	PC	PC	000010	681026015	58150371	HLI0550	8300	L01	9999	8330	01.10.2024	12.08.2024	0010	56208892	HLI0550	D176960001	0013176960	            0001	27.03.2024	      63
		4051493077		10415976	4537189592	00001	2222545	Injectable mortar HIT-RE 100-HC 580/1	8330	0001	           288	PC	PC	000010	681026039	58150496	HLI0550	8300	L01	9999	8330	01.10.2024	12.08.2024	0010	56340274	HLI0550	D444937001	0013444937	            0001	02.08.2024	       0
		4051493077		10415976	4537189593	00001	2222545	Injectable mortar HIT-RE 100-HC 580/1	8330	0001	           288	PC	PC	000010	681026040	58150497	HLI0550	8300	L01	9999	8330	01.10.2024	12.08.2024	0010	56340274	HLI0550	D444937001	0013444937	            0001	02.08.2024	       0
		4051493064		10415979	4537189649	00001	2253115	Cordl. combihammer TE 30-22 case	8330	0001	             4	PC	PC	000010	681026088	58150989	HLI0550	8300	L15	9999	8330	01.10.2024	12.08.2024	0050	56327882	HLI0550	D418330005	0013418330	            0005	22.07.2024	       0
		4051493064		10415979	4537189697	00001	2236894	Crank tripod PA 922 tripod	8330	0001	             8	PC	PC	000010	681026133	58150988	HLI0550	8300	L07	9999	8330	01.10.2024	12.08.2024	0010	56338918	HLI0550	D442790001	0013442790	            0001	01.08.2024	       0
		4051493064		10415979	4537189708	00001	2107119	Tripod PUA 25	8330	0001	            16	PC	PC	000010	681026145	58150991	HLI0550	8300	L07	9999	8330	01.10.2024	12.08.2024	0030	56340146	HLI0550	D445225004	0013445225	            0004	03.08.2024	       0
		4051494340		10422345	4537203274	00001	237335	Universal nail X-U 37 P8	8750	0001	           900	PC	PC	000010	681037407	58154869	HLI0550	8750	L04	9999	8750	10.09.2024	14.08.2024	0010	56332036	HLI0550	D425095001	0013425095	            0001	25.07.2024	       0
		4051494341		10422345	4537203281	00001	2161916	Carbon brush AG 125-13S (05) 220-240V	8750	0001	            20	PC	PC	000010	681037412	58154869	HLI0550	8750	L08	9999	8750	10.09.2024	14.08.2024	0010	56293560	HLI0550	D345840001	0013345840	            0001	18.06.2024	       8
		4051494341		10422345	4537203282	00001	2346060	Threaded stud S-BT-MF M10/15 AN 6 HL	8750	0001	           200	PC	PC	000010	681037413	58154869	HLI0550	8750	L10	9999	8750	10.09.2024	14.08.2024	0010	56320569	HLI0550	D399075001	0013399075	            0001	12.07.2024	      28
		4051462466		10257757	4536772544	00001	2149226	Univ. cable tie holder X-UCT-E MX	8330	0001	         1.250	PC	PC	000010	680685483	58085577	HLI0550	8300	L04	9999	8330	14.08.2024	27.05.2024	0030	56255537	HLI0550	D273947011	0013273947	            0011	14.05.2024	-7
		4051462466		10257757	4536772581	00001	2349158	Grating disc X-FCM-R 28/33	8330	0001	           900	PC	PC	000010	680685506	58085578	HLI0550	8300	L04	9999	8330	14.08.2024	27.05.2024	0030	56261552	HLI0550	D282309008	0013282309	            0008	18.05.2024	       0
		4051462466		10257757	4536772590	00001	2150701	Cutting disc AC-D SP 115x1.0	8330	0001	         2.700	PC	PC	000010	680685510	58085510	HLI0550	8300	L09	9999	8330	14.08.2024	27.05.2024	0050	56261552	HLI0550	D282309012	0013282309	            0012	18.05.2024	       0
		4051462466		10257757	4536772691	00001	432947	Cable tie with holder X-ECT 40 MX	8330	0001	        12.800	PC	PC	000010	680685541	58084003	HLI0550	8300	L04	9999	8330	14.08.2024	27.05.2024	0010	56253633	HLI0550	D267953001	0013267953	            0001	10.05.2024	       8
		4051462466		10257757	4536772694	00001	432947	Cable tie with holder X-ECT 40 MX	8330	0001	        12.800	PC	PC	000010	680685542	58084000	HLI0550	8300	L04	9999	8330	14.08.2024	27.05.2024	0010	56253633	HLI0550	D267953001	0013267953	            0001	10.05.2024	       8
		4051462466		10257757	4536772697	00001	432947	Cable tie with holder X-ECT 40 MX	8330	0001	        12.800	PC	PC	000010	680685543	58083994	HLI0550	8300	L04	9999	8330	14.08.2024	27.05.2024	0010	56253633	HLI0550	D267953001	0013267953	            0001	10.05.2024	       8
		4051462466		10257757	4536772744	00001	282987	Chuck DD-CS-BL	8330	0001	             3	PC	PC	000010	680685561	58085847	HLI0550	8300	L05	9999	8330	14.08.2024	27.05.2024	0090	56261542	HLI0550	D282817007	0013282817	            0007	18.05.2024	       0
		4051462466		10257757	4536772758	00001	2232598	Flat chisel TE-Y FM 40 (5)	8330	0001	            10	PC	PC	000010	680685565	58085847	HLI0550	8300	L09	9999	8330	14.08.2024	27.05.2024	0030	56262138	HLI0550	D283675004	0013283675	            0004	20.05.2024	       0
		4051462463		10259187	4536776866	00001	2128232	Combihammer TE 50-AVR 220 V	8330	0001	             1	PC	PC	000010	680689171	58084769	HLI0550	8300	L08	9999	8330	14.08.2024	27.05.2024	0020	56226152	HLI0550	D216927003	0013216927	            0003	15.04.2024	       0
		4051462463		10259187	4536776867	00001	2128232	Combihammer TE 50-AVR 220 V	8330	0001	             1	PC	PC	000010	680689172	58084774	HLI0550	8300	L08	9999	8330	14.08.2024	27.05.2024	0020	56226152	HLI0550	D216927003	0013216927	            0003	15.04.2024	       0
		4051465070		10267740	4536808009	00001	2199635	Core bit BI 28/320 SP-L abras	8330	0001	             1	PC	PC	000010	680714337	58091069	HLI0550	8300	L05	9999	8330	02.09.2024	03.06.2024	0120	56261552	HLI0550	D282309014	0013282309	            0014	18.05.2024	       7
		4051465070		10267740	4536808011	00001	2140721	Recip. saw blade SPX 30 68 (10) univ	8330	0001	            10	PC	PC	000010	680714339	58091069	HLI0550	8300	L09	9999	8330	02.09.2024	03.06.2024	0060	56262138	HLI0550	D283675007	0013283675	            0007	20.05.2024	       0
		4051465071		10267740	4536808028	00001	2217525	Threaded stud X-BT-MR0 M10/15 SN 8	8330	0001	         1.500	PC	PC	000010	680714353	58091082	HLI0550	8300	L04	9999	8330	02.09.2024	03.06.2024	0010	56265377	HLI0550	D284298001	0013284298	            0001	20.05.2024	       7
		4051465071		10267740	4536808034	00001	2149226	Univ. cable tie holder X-UCT-E MX	8330	0001	        18.000	PC	PC	000010	680714360	58091082	HLI0550	8300	L04	9999	8330	02.09.2024	03.06.2024	0050	56265721	HLI0550	D289752012	0013289752	            0012	23.05.2024	       0
		4051470942		10300738	4536889253	00001	2116103	Insulating foam CF-I 65  ECO	8330	0001	           336	PC	PC	000010	680780968	58104217	HLI0550	8300	L03	9999	8330	02.09.2024	17.06.2024	0020	56262166	HLI0550	D284145006	0013284145	            0006	20.05.2024	       7
		4051470945		10300740	4536890050	00001	2158229	Core bit B 57/450 SP-H abras	8330	0001	             1	PC	PC	000010	680781767	58104441	HLI0550	8300	L05	9999	8330	02.09.2024	17.06.2024	0450	56274048	HLI0550	D304711025	0013304711	            0025	30.05.2024	-28
		4051470945		10300740	4536890054	00001	373419	Adapter BI/BR/BS	8330	0001	             7	PC	PC	000010	680781769	58104441	HLI0550	8300	L05	9999	8330	02.09.2024	17.06.2024	0490	56274048	HLI0550	D304711070	0013304711	            0070	30.05.2024	-7
		4051470947		10300740	4536890136	00001	2149475	Breaker TE 2000-AVR 230V	8330	0001	             8	PC	PC	000010	680781811	58104436	HLI0550	8300	L08	9999	8330	02.09.2024	17.06.2024	0030	56226152	HLI0550	D216927004	0013216927	            0004	15.04.2024	       7
		4051470947		10300740	4536890213	00001	2156391	High performance nail X-P 24 B3 MX BULK	8330	0001	       108.000	PC	PC	000010	680781847	58103281	HLI0550	8300	L04	9999	8330	02.09.2024	17.06.2024	0150	56261542	HLI0550	D282817024	0013282817	            0024	18.05.2024	       7
		4051473646		10310999	4536929359	00001	428942	Breaker TE 700-AVR 220V	8750	0001	             1	PC	PC	000010	680814154	58110428	HLI0550	8750	L08	9999	8750	26.08.2024	24.06.2024	0090	56232771	HLI0550	D226780015	0013226780	            0015	19.04.2024	       0
		4051473646		10310999	4536929365	00001	428942	Breaker TE 700-AVR 220V	8750	0001	             1	PC	PC	000010	680814159	58110429	HLI0550	8750	L08	9999	8750	26.08.2024	24.06.2024	0010	56234820	HLI0550	D232353001	0013232353	            0001	22.04.2024	       0
		4051473646		10310999	4536929366	00001	428942	Breaker TE 700-AVR 220V	8750	0001	             1	PC	PC	000010	680814161	58110438	HLI0550	8750	L08	9999	8750	26.08.2024	24.06.2024	0010	56234820	HLI0550	D232353001	0013232353	            0001	22.04.2024	       0
		4051473454		10315219	4536930104	00001	2222545	Injectable mortar HIT-RE 100-HC 580/1	8330	0001	           288	PC	PC	000010	680814908	58110883	HLI0550	8300	L01	9999	8330	10.09.2024	24.06.2024	0010	56205831	HLI0550	D166486001	0013166486	            0001	22.03.2024	      70
		4051473454		10315219	4536930109	00001	2222545	Injectable mortar HIT-RE 100-HC 580/1	8330	0001	           288	PC	PC	000010	680814910	58110878	HLI0550	8300	L01	9999	8330	10.09.2024	24.06.2024	0010	56205832	HLI0550	D166448001	0013166448	            0001	22.03.2024	      42
		4051473454		10315219	4536930111	00001	2222545	Injectable mortar HIT-RE 100-HC 580/1	8330	0001	           288	PC	PC	000010	680814911	58110879	HLI0550	8300	L01	9999	8330	10.09.2024	24.06.2024	0010	56205832	HLI0550	D166448001	0013166448	            0001	22.03.2024	      42
		4051473653		10315217	4536930157	00001	2349157	Grating disc X-FCM-R 23/28	8330	0001	           100	PC	PC	000010	680814938	58111158	HLI0550	8300	L04	9999	8330	10.09.2024	24.06.2024	0060	56270129	HLI0550	D298761008	0013298761	            0008	27.05.2024	      21
		4051473653		10315217	4536930161	00001	2278640	Filter VC 20/40/150-X dry	8330	0001	             1	PC	PC	000010	680814943	58111158	HLI0550	8300	L05	9999	8330	10.09.2024	24.06.2024	0050	56274048	HLI0550	D304711020	0013304711	            0020	30.05.2024	-7
		4051473653		10315217	4536930162	00001	2121387	Filter VC 20/40/150 univ	8330	0001	             1	PC	PC	000010	680814944	58111158	HLI0550	8300	L05	9999	8330	10.09.2024	24.06.2024	0150	56274048	HLI0550	D304711053	0013304711	            0053	30.05.2024	       0
		4051473654		10315217	4536930236	00001	2261821	Change module 202 P-U abras	8330	0001	             1	PC	PC	000010	680815008	58111259	HLI0550	8300	L05	9999	8330	10.09.2024	24.06.2024	0020	56290257	HLI0550	D337863007	0013337863	            0007	14.06.2024	       0
		4051473654		10315217	4536930238	00001	273209	Round steel brush HIT-RB 11/16"	8330	0001	             1	PC	PC	000010	680815009	58111259	HLI0550	8300	L01	9999	8330	10.09.2024	24.06.2024	0030	56290257	HLI0550	D337863008	0013337863	            0008	14.06.2024	       0
		4051473654		10315217	4536930239	00001	273207	Round steel brush HIT-RB 5/8"	8330	0001	             1	PC	PC	000010	680815010	58111259	HLI0550	8300	L01	9999	8330	10.09.2024	24.06.2024	0040	56290257	HLI0550	D337863009	0013337863	            0009	14.06.2024	       0
		4051473655		10315217	4536930260	00001	2229065	Breaker TE 3000-AVR 230V	8330	0001	             5	PC	PC	000010	680815026	58111188	HLI0550	8300	L08	9999	8330	10.09.2024	24.06.2024	0110	56226152	HLI0550	D216927012	0013216927	            0012	15.04.2024	      14
		4051473655		10315217	4536930285	00001	2070228	Circ. saw blade SCB WS FT 190x30 z12(5)	8330	0001	             5	PC	PC	000010	680815050	58111157	HLI0550	8300	L09	9999	8330	10.09.2024	24.06.2024	0050	56248889	HLI0550	D260623007	0013260623	            0007	06.05.2024	      42
		4051473655		10315217	4536930290	00001	2151626	Hammer drill bit TE-CX 12/17	8330	0001	             5	PC	PC	000010	680815054	58111157	HLI0550	8300	L09	9999	8330	10.09.2024	24.06.2024	0020	56257322	HLI0550	D276539003	0013276539	            0003	14.05.2024	       0
		4051476731		10330549	4536968690	00001	432947	Cable tie with holder X-ECT 40 MX	8330	0001	        12.800	PC	PC	000010	680847269	58115823	HLI0550	8300	L04	9999	8330	04.09.2024	01.07.2024	0120	56274048	HLI0550	D304711047	0013304711	            0047	30.05.2024	       0
		4051476731		10330549	4536968691	00001	432947	Cable tie with holder X-ECT 40 MX	8330	0001	        12.800	PC	PC	000010	680847270	58115824	HLI0550	8300	L04	9999	8330	04.09.2024	01.07.2024	0120	56274048	HLI0550	D304711047	0013304711	            0047	30.05.2024	       0
		4051476731		10330549	4536968695	00001	432947	Cable tie with holder X-ECT 40 MX	8330	0001	        12.800	PC	PC	000010	680847273	58115825	HLI0550	8300	L04	9999	8330	04.09.2024	01.07.2024	0200	56274048	HLI0550	D304711071	0013304711	            0071	30.05.2024	-7
		4051482029		10359789	4537044108	00001	2123404	Injectable mortar HIT-RE 500 V3/500/1	8330	0001	           480	PC	PC	000010	680907597	58128759	HLI0550	8300	L01	9999	8330	11.09.2024	15.07.2024	0020	56312552	HLI0550	D387265002	0013387265	            0002	08.07.2024	       0
		4051482029		10359789	4537044118	00001	2123404	Injectable mortar HIT-RE 500 V3/500/1	8330	0001	           480	PC	PC	000010	680907608	58128768	HLI0550	8300	L01	9999	8330	11.09.2024	15.07.2024	0020	56312552	HLI0550	D387265002	0013387265	            0002	08.07.2024	       0
		4051482029		10359789	4537044119	00001	2123404	Injectable mortar HIT-RE 500 V3/500/1	8330	0001	           480	PC	PC	000010	680907609	58128776	HLI0550	8300	L01	9999	8330	11.09.2024	15.07.2024	0020	56312552	HLI0550	D387265002	0013387265	            0002	08.07.2024	       0
		4051484849		10369021	4537081727	00001	2105858	Stud anchor HST3 M16x135 35/15	8750	0001	           144	PC	PC	000010	680937789	58134668	HLI0550	8750	L02	9999	8750	18.09.2024	22.07.2024	0010	56267093	HLI0550	D291913001	0013291913	            0001	23.05.2024	      22
		4051484849		10369021	4537081736	00001	2199633	Core bit BI 25/320 SP-L abras	8750	0001	            32	PC	PC	000010	680937798	58134668	HLI0550	8750	L05	9999	8750	18.09.2024	22.07.2024	0110	56284144	HLI0550	D327858002	0013327858	            0002	10.06.2024	      22
		4051490407		10402069	4537152862	00001	2160049	Combihammer TE 30-AVR 220V case	8330	0001	             2	PC	PC	000010	680996045	58146001	HLI0550	8300	L08	9999	8330	24.09.2024	05.08.2024	0090	56296328	HLI0550	D352701014	0013352701	            0014	20.06.2024	       0
		4051490407		10402069	4537152863	00001	2160049	Combihammer TE 30-AVR 220V case	8330	0001	             2	PC	PC	000010	680996047	58146006	HLI0550	8300	L08	9999	8330	24.09.2024	05.08.2024	0090	56296328	HLI0550	D352701014	0013352701	            0014	20.06.2024	       0
		4051490407		10402069	4537152869	00001	2149604	Diamond cutter DCH 300-X 220V	8330	0001	             1	PC	PC	000010	680996057	58145979	HLI0550	8300	L05	9999	8330	24.09.2024	05.08.2024	0020	56312176	HLI0550	D386374002	0013386374	            0002	06.07.2024	       7
		4051493076		10415976	4537189544	00001	2222545	Injectable mortar HIT-RE 100-HC 580/1	8330	0001	           288	PC	PC	000010	681025993	58150349	HLI0550	8300	L01	9999	8330	01.10.2024	12.08.2024	0010	56207292	HLI0550	D175068001	0013175068	            0001	26.03.2024	      49
		4051493076		10415976	4537189567	00001	2142303	Injectable mortar HIT-RE 10 580/1-WH	8330	0001	           288	PC	PC	000010	681026016	58150372	HLI0550	8300	L01	9999	8330	01.10.2024	12.08.2024	0010	56208892	HLI0550	D176960001	0013176960	            0001	27.03.2024	      63
		4051493076		10415976	4537189568	00001	2142303	Injectable mortar HIT-RE 10 580/1-WH	8330	0001	           288	PC	PC	000010	681026017	58150374	HLI0550	8300	L01	9999	8330	01.10.2024	12.08.2024	0010	56208892	HLI0550	D176960001	0013176960	            0001	27.03.2024	      63
		4051493076		10415976	4537189569	00001	2142303	Injectable mortar HIT-RE 10 580/1-WH	8330	0001	           288	PC	PC	000010	681026018	58150373	HLI0550	8300	L01	9999	8330	01.10.2024	12.08.2024	0010	56208892	HLI0550	D176960001	0013176960	            0001	27.03.2024	      63
		4051493064		10415979	4537189655	00001	2217525	Threaded stud X-BT-MR0 M10/15 SN 8	8330	0001	        24.000	PC	PC	000010	681026094	58151147	HLI0550	8300	L04	9999	8330	01.10.2024	12.08.2024	0010	56330167	HLI0550	D420529001	0013420529	            0001	23.07.2024	       7
		4051493064		10415979	4537189711	00001	2349160	Grating disc X-FCM-R 38/43	8330	0001	         2.400	PC	PC	000010	681026148	58151147	HLI0550	8300	L04	9999	8330	01.10.2024	12.08.2024	0010	56340272	HLI0550	D444477001	0013444477	            0001	02.08.2024	       0
		4051494340		10422345	4537203278	00001	2273699	Girder end cap MT-EC-90	8750	0001	           150	PC	PC	000010	681037410	58154869	HLI0550	8750	L14	9999	8750	10.09.2024	14.08.2024	0010	56344295	HLI0550	D454081001	0013454081	            0001	08.08.2024	       0
		4051494341		10422345	4537203283	00001	2346060	Threaded stud S-BT-MF M10/15 AN 6 HL	8750	0001	           900	PC	PC	000010	681037414	58154754	HLI0550	8750	L10	9999	8750	10.09.2024	14.08.2024	0010	56320569	HLI0550	D399075001	0013399075	            0001	12.07.2024	      28
		4051494341		10422345	4537203286	00001	2262683	Hilti Grease 50ml	8750	0001	           100	PC	PC	000010	681037416	58154754	HLI0550	8750	L08	9999	8750	10.09.2024	14.08.2024	0010	56322802	HLI0550	D406796001	0013406796	            0001	16.07.2024	       0
		4051462466		10257757	4536772545	00001	2287626	Anchor rod HIT-Z-R M10x95	8330	0001	            80	PC	PC	000010	680685485	58085577	HLI0550	8300	L01	9999	8330	14.08.2024	27.05.2024	0010	56261344	HLI0550	D281433006	0013281433	            0006	17.05.2024	       0
		4051462466		10257757	4536772548	00001	2070378	Impact socket SI-S 1/2"-22 S	8330	0001	             1	PC	PC	000010	680685487	58085577	HLI0550	8300	L09	9999	8330	14.08.2024	27.05.2024	0030	56261404	HLI0550	D282806003	0013282806	            0003	17.05.2024	       0
		4051462466		10257757	4536772550	00001	2168886	Scaling chisel TE-SX SC 50/12	8330	0001	             1	PC	PC	000010	680685488	58085577	HLI0550	8300	L09	9999	8330	14.08.2024	27.05.2024	0040	56261404	HLI0550	D282806004	0013282806	            0004	17.05.2024	       0
		4051462466		10257757	4536772557	00001	2168874	Flat chisel TE-SX FM 36	8330	0001	             1	PC	PC	000010	680685492	58085577	HLI0550	8300	L09	9999	8330	14.08.2024	27.05.2024	0050	56261404	HLI0550	D282806005	0013282806	            0005	17.05.2024	       0
		4051462466		10257757	4536772699	00001	432947	Cable tie with holder X-ECT 40 MX	8330	0001	        12.800	PC	PC	000010	680685544	58083995	HLI0550	8300	L04	9999	8330	14.08.2024	27.05.2024	0010	56253633	HLI0550	D267953001	0013267953	            0001	10.05.2024	       8
		4051462466		10257757	4536772701	00001	432947	Cable tie with holder X-ECT 40 MX	8330	0001	        12.800	PC	PC	000010	680685545	58083998	HLI0550	8300	L04	9999	8330	14.08.2024	27.05.2024	0010	56253633	HLI0550	D267953001	0013267953	            0001	10.05.2024	       8
		4051462466		10257757	4536772703	00001	432947	Cable tie with holder X-ECT 40 MX	8330	0001	        12.800	PC	PC	000010	680685546	58084004	HLI0550	8300	L04	9999	8330	14.08.2024	27.05.2024	0010	56253633	HLI0550	D267953001	0013267953	            0001	10.05.2024	       8
		4051462466		10257757	4536772704	00001	432947	Cable tie with holder X-ECT 40 MX	8330	0001	        12.800	PC	PC	000010	680685547	58083996	HLI0550	8300	L04	9999	8330	14.08.2024	27.05.2024	0010	56253633	HLI0550	D267953001	0013267953	            0001	10.05.2024	       8
		4051462463		10259187	4536776850	00001	2309293	Cordless breaker TE 500-22 case	8330	0001	             1	PC	PC	000010	680689158	58084790	HLI0550	8300	L15	9999	8330	14.08.2024	27.05.2024	0110	56219015	HLI0550	D202547020	0013202547	            0020	08.04.2024	       0
		4051462463		10259187	4536776914	00001	2194592	Batt.-actuated tool BX 3-BTG A22 case	8330	0001	             1	PC	PC	000010	680689216	58084791	HLI0550	8300	L04	9999	8330	14.08.2024	27.05.2024	0060	56250900	HLI0550	D264364007	0013264364	            0007	08.05.2024	       0
		4051462463		10259187	4536776956	00001	2251367	Hand-held battery cut-off saw DSH 600-22	8330	0001	             1	PC	PC	000010	680689266	58084777	HLI0550	8300	L05	9999	8330	14.08.2024	27.05.2024	0010	56259843	HLI0550	D266169028	0013266169	            0028	09.05.2024	       8
		4051465070		10267740	4536808016	00001	2165913	Hammer drill bit TE-YX 1 1/8"-21"	8330	0001	             6	PC	PC	000010	680714343	58091069	HLI0550	8300	L09	9999	8330	02.09.2024	03.06.2024	0010	56264080	HLI0550	D287461001	0013287461	            0001	21.05.2024	       0
		4051465070		10267740	4536808017	00001	2368500	Plunge cut blade SMT HCS wood	8330	0001	             2	PC	PC	000010	680714344	58091069	HLI0550	8300	L09	9999	8330	02.09.2024	03.06.2024	0020	56264080	HLI0550	D287461005	0013287461	            0005	21.05.2024	       0
		4051465070		10267740	4536808018	00001	2224294	Hammer drill bit  TE-C 12/21 MP8	8330	0001	            72	PC	PC	000010	680714345	58091069	HLI0550	8300	L09	9999	8330	02.09.2024	03.06.2024	0030	56264080	HLI0550	D287461006	0013287461	            0006	21.05.2024	       0
		4051465070		10267740	4536808019	00001	2368501	Plunge cut blade SMT BiM hardwood	8330	0001	             2	PC	PC	000010	680714346	58091069	HLI0550	8300	L09	9999	8330	02.09.2024	03.06.2024	0040	56264080	HLI0550	D287461002	0013287461	            0002	21.05.2024	       0
		4051465071		10267740	4536808036	00001	305542	Connection end BL (M41)	8330	0001	            30	PC	PC	000010	680714364	58091082	HLI0550	8300	L05	9999	8330	02.09.2024	03.06.2024	0130	56265721	HLI0550	D289752022	0013289752	            0022	23.05.2024	       0
		4051470945		10300740	4536890056	00001	2199640	Core bit BI 32/320 SP-L abras	8330	0001	             5	PC	PC	000010	680781770	58104441	HLI0550	8300	L05	9999	8330	02.09.2024	17.06.2024	0530	56274048	HLI0550	D304711037	0013304711	            0037	30.05.2024	-14
		4051470945		10300740	4536890060	00001	2194340	Threaded stud X-BT-MR M10/15 SN 8	8330	0001	           500	PC	PC	000010	680781772	58104441	HLI0550	8300	L04	9999	8330	02.09.2024	17.06.2024	0570	56274048	HLI0550	D304711027	0013304711	            0027	30.05.2024	-28
		4051470945		10300740	4536890062	00001	2194340	Threaded stud X-BT-MR M10/15 SN 8	8330	0001	           500	PC	PC	000010	680781773	58104441	HLI0550	8300	L04	9999	8330	02.09.2024	17.06.2024	0580	56274048	HLI0550	D304711033	0013304711	            0033	30.05.2024	-14
		4051470945		10300740	4536890064	00001	418080	Screw anchor KH-EZ 5/8"x5 1/2"	8330	0001	            45	PC	PC	000010	680781774	58104441	HLI0550	8300	L02	9999	8330	02.09.2024	17.06.2024	0060	56275166	HLI0550	D306005008	0013306005	            0008	01.06.2024	       7
		4051470947		10300740	4536890138	00001	2149475	Breaker TE 2000-AVR 230V	8330	0001	             8	PC	PC	000010	680781812	58104435	HLI0550	8300	L08	9999	8330	02.09.2024	17.06.2024	0030	56226152	HLI0550	D216927004	0013216927	            0004	15.04.2024	       7
		4051470947		10300740	4536890141	00001	2149475	Breaker TE 2000-AVR 230V	8330	0001	             8	PC	PC	000010	680781813	58104434	HLI0550	8300	L08	9999	8330	02.09.2024	17.06.2024	0030	56226152	HLI0550	D216927004	0013216927	            0004	15.04.2024	       7
		4051470947		10300740	4536890142	00001	2149475	Breaker TE 2000-AVR 230V	8330	0001	             8	PC	PC	000010	680781814	58104428	HLI0550	8300	L08	9999	8330	02.09.2024	17.06.2024	0030	56226152	HLI0550	D216927004	0013216927	            0004	15.04.2024	       7
		4051470947		10300740	4536890144	00001	2149475	Breaker TE 2000-AVR 230V	8330	0001	             8	PC	PC	000010	680781815	58104437	HLI0550	8300	L08	9999	8330	02.09.2024	17.06.2024	0030	56226152	HLI0550	D216927004	0013216927	            0004	15.04.2024	       7
		4051473646		10310999	4536929368	00001	428942	Breaker TE 700-AVR 220V	8750	0001	             1	PC	PC	000010	680814163	58110439	HLI0550	8750	L08	9999	8750	26.08.2024	24.06.2024	0010	56234820	HLI0550	D232353001	0013232353	            0001	22.04.2024	       0
		4051473646		10310999	4536929369	00001	428942	Breaker TE 700-AVR 220V	8750	0001	             1	PC	PC	000010	680814165	58110440	HLI0550	8750	L08	9999	8750	26.08.2024	24.06.2024	0010	56234820	HLI0550	D232353001	0013232353	            0001	22.04.2024	       0
		4051473646		10310999	4536929370	00001	428942	Breaker TE 700-AVR 220V	8750	0001	             1	PC	PC	000010	680814167	58110441	HLI0550	8750	L08	9999	8750	26.08.2024	24.06.2024	0010	56234820	HLI0550	D232353001	0013232353	            0001	22.04.2024	       0
		4051473646		10310999	4536929423	00001	409279	Accessory kit DD M12 L	8750	0001	             1	PC	PC	000010	680814216	58110459	HLI0550	8750	L05	9999	8750	26.08.2024	24.06.2024	0040	56270147	HLI0550	D298013005	0013298013	            0005	28.05.2024	       0
		4051473454		10315219	4536930106	00001	2222545	Injectable mortar HIT-RE 100-HC 580/1	8330	0001	           288	PC	PC	000010	680814909	58110884	HLI0550	8300	L01	9999	8330	10.09.2024	24.06.2024	0010	56205831	HLI0550	D166486001	0013166486	            0001	22.03.2024	      70
		4051473454		10315219	4536930113	00001	2222545	Injectable mortar HIT-RE 100-HC 580/1	8330	0001	           288	PC	PC	000010	680814912	58110877	HLI0550	8300	L01	9999	8330	10.09.2024	24.06.2024	0010	56205832	HLI0550	D166448001	0013166448	            0001	22.03.2024	      42
		4051473454		10315219	4536930115	00001	2222545	Injectable mortar HIT-RE 100-HC 580/1	8330	0001	           288	PC	PC	000010	680814913	58110885	HLI0550	8300	L01	9999	8330	10.09.2024	24.06.2024	0010	56205832	HLI0550	D166448001	0013166448	            0001	22.03.2024	      42
		4051473653		10315217	4536930163	00001	2121387	Filter VC 20/40/150 univ	8330	0001	             1	PC	PC	000010	680814945	58111158	HLI0550	8300	L05	9999	8330	10.09.2024	24.06.2024	0220	56274048	HLI0550	D304711073	0013304711	            0073	30.05.2024	-14
		4051473653		10315217	4536930164	00001	2121387	Filter VC 20/40/150 univ	8330	0001	             1	PC	PC	000010	680814946	58111158	HLI0550	8300	L05	9999	8330	10.09.2024	24.06.2024	0230	56274048	HLI0550	D304711074	0013304711	            0074	30.05.2024	-7
		4051473653		10315217	4536930168	00001	2199640	Core bit BI 32/320 SP-L abras	8330	0001	             5	PC	PC	000010	680814950	58111158	HLI0550	8300	L05	9999	8330	10.09.2024	24.06.2024	0520	56274048	HLI0550	D304711030	0013304711	            0030	30.05.2024	       0
		4051473654		10315217	4536930241	00001	2145833	Filtration bag DD-WMS 100 MP5 large	8330	0001	             5	PC	PC	000010	680815011	58111259	HLI0550	8300	L05	9999	8330	10.09.2024	24.06.2024	0090	56290257	HLI0550	D337863021	0013337863	            0021	14.06.2024	       0
		4051473654		10315217	4536930242	00001	333477	Nut DD-LR-CLN	8330	0001	             1	PC	PC	000010	680815012	58111259	HLI0550	8300	L05	9999	8330	10.09.2024	24.06.2024	0100	56290257	HLI0550	D337863002	0013337863	            0002	14.06.2024	       0
		4051473654		10315217	4536930243	00001	333629	Jack screw DD-LR-CLS	8330	0001	             1	PC	PC	000010	680815013	58111259	HLI0550	8300	L05	9999	8330	10.09.2024	24.06.2024	0110	56290257	HLI0550	D337863004	0013337863	            0004	14.06.2024	       0
		4051473655		10315217	4536930261	00001	2229065	Breaker TE 3000-AVR 230V	8330	0001	             5	PC	PC	000010	680815027	58111189	HLI0550	8300	L08	9999	8330	10.09.2024	24.06.2024	0110	56226152	HLI0550	D216927012	0013216927	            0012	15.04.2024	      14
		4051473655		10315217	4536930274	00001	2149475	Breaker TE 2000-AVR 230V	8330	0001	             8	PC	PC	000010	680815039	58111187	HLI0550	8300	L08	9999	8330	10.09.2024	24.06.2024	0320	56232777	HLI0550	D226779063	0013226779	            0063	19.04.2024	       0
		4051473655		10315217	4536930283	00001	2146846	Breaker TE 500-AVR 220V	8330	0001	            20	PC	PC	000010	680815048	58111193	HLI0550	8300	L08	9999	8330	10.09.2024	24.06.2024	0030	56248889	HLI0550	D260623008	0013260623	            0008	06.05.2024	       0
		4051476731		10330549	4536968697	00001	432947	Cable tie with holder X-ECT 40 MX	8330	0001	        12.800	PC	PC	000010	680847274	58115819	HLI0550	8300	L04	9999	8330	04.09.2024	01.07.2024	0200	56274048	HLI0550	D304711071	0013304711	            0071	30.05.2024	-7
		4051476731		10330549	4536968698	00001	432947	Cable tie with holder X-ECT 40 MX	8330	0001	        12.800	PC	PC	000010	680847276	58115826	HLI0550	8300	L04	9999	8330	04.09.2024	01.07.2024	0200	56274048	HLI0550	D304711071	0013304711	            0071	30.05.2024	-7
		4051476731		10330549	4536968721	00001	432947	Cable tie with holder X-ECT 40 MX	8330	0001	        12.800	PC	PC	000010	680847305	58115828	HLI0550	8300	L04	9999	8330	04.09.2024	01.07.2024	0070	56284136	HLI0550	D327856008	0013327856	            0008	10.06.2024	-7
		4051476731		10330549	4536968722	00001	432947	Cable tie with holder X-ECT 40 MX	8330	0001	        12.800	PC	PC	000010	680847307	58115829	HLI0550	8300	L04	9999	8330	04.09.2024	01.07.2024	0070	56284136	HLI0550	D327856008	0013327856	            0008	10.06.2024	-7
		4051483650		10367403	4537061277	00001	2287945	Dia blade 300/25 SPX univ A	8750	0001	             2	PC	PC	000010	680921281	58132216	HLI0550	8750	L05	9999	8750	20.08.2024	17.07.2024	0010	56305039	HLI0550	D367914001	0013367914	            0001	28.06.2024	       0
		4051484849		10369021	4537081737	00001	2346060	Threaded stud S-BT-MF M10/15 AN 6 HL	8750	0001	           900	PC	PC	000010	680937799	58134668	HLI0550	8750	L10	9999	8750	18.09.2024	22.07.2024	0010	56299156	HLI0550	D354428001	0013354428	            0001	21.06.2024	      22
		4051484849		10369021	4537081745	00001	271982	Threaded stud X-EM8H-15-12FP10	8750	0001	         3.000	PC	PC	000010	680937805	58134668	HLI0550	8750	L04	9999	8750	18.09.2024	22.07.2024	0140	56312181	HLI0550	D386503001	0013386503	            0001	06.07.2024	-6
		4051484849		10369021	4537081751	00001	2273698	Girder end cap MT-EC-80	8750	0001	           450	PC	PC	000010	680937809	58134668	HLI0550	8750	L14	9999	8750	18.09.2024	22.07.2024	0010	56319376	HLI0550	D399238001	0013399238	            0001	12.07.2024	       0
		4051490407		10402069	4537152864	00001	2160049	Combihammer TE 30-AVR 220V case	8330	0001	             1	PC	PC	000010	680996050	58146007	HLI0550	8300	L08	9999	8330	24.09.2024	05.08.2024	0090	56296328	HLI0550	D352701014	0013352701	            0014	20.06.2024	       0
		4051490407		10402069	4537152867	00001	2140740	Threaded stud S-BT-MR M10/15 SN 6	8330	0001	           100	PC	PC	000010	680996056	58146169	HLI0550	8300	L10	9999	8330	24.09.2024	05.08.2024	0010	56311897	HLI0550	D366092001	0013366092	            0001	27.06.2024	      28
		4051490407		10402069	4537152876	00001	2140721	Recip. saw blade SPX 30 68 (10) univ	8330	0001	            10	PC	PC	000010	680996059	58146169	HLI0550	8300	L09	9999	8330	24.09.2024	05.08.2024	0010	56320750	HLI0550	D403620001	0013403620	            0001	15.07.2024	       0
		4051490407		10402069	4537152922	00001	2005843	Dispenser CFS-DISP	8330	0001	             6	PC	PC	000010	680996078	58145875	HLI0550	8300	L03	9999	8330	24.09.2024	05.08.2024	0010	56329488	HLI0550	D421027008	0013421027	            0008	23.07.2024	       0
		4051493076		10415976	4537189559	00001	2142303	Injectable mortar HIT-RE 10 580/1-WH	8330	0001	           288	PC	PC	000010	681026008	58150364	HLI0550	8300	L01	9999	8330	01.10.2024	12.08.2024	0010	56208892	HLI0550	D176960001	0013176960	            0001	27.03.2024	      63
		4051493064		10415979	4537189633	00001	2022002	Hammer drill bit TE-CX 8/12 MP8	8330	0001	            64	PC	PC	000010	681026072	58151143	HLI0550	8300	L09	9999	8330	01.10.2024	12.08.2024	0030	56296328	HLI0550	D352701004	0013352701	            0004	20.06.2024	       0
		4051493064		10415979	4537189640	00001	2217525	Threaded stud X-BT-MR0 M10/15 SN 8	8330	0001	         1.300	PC	PC	000010	681026079	58151143	HLI0550	8300	L04	9999	8330	01.10.2024	12.08.2024	0020	56325372	HLI0550	D412007001	0013412007	            0001	18.07.2024	      14
		4051493064		10415979	4537189642	00001	2217525	Threaded stud X-BT-MR0 M10/15 SN 8	8330	0001	           900	PC	PC	000010	681026081	58151143	HLI0550	8300	L04	9999	8330	01.10.2024	12.08.2024	0070	56325380	HLI0550	D412011008	0013412011	            0008	18.07.2024	      14
		4051493064		10415979	4537189643	00001	2217525	Threaded stud X-BT-MR0 M10/15 SN 8	8330	0001	         1.200	PC	PC	000010	681026082	58151143	HLI0550	8300	L04	9999	8330	01.10.2024	12.08.2024	0020	56325388	HLI0550	D412014001	0013412014	            0001	18.07.2024	      14
		4051494340		10422345	4537203275	00001	2349151	Grating disc X-FCM 48/53	8750	0001	           300	PC	PC	000010	681037408	58154754	HLI0550	8750	L04	9999	8750	10.09.2024	14.08.2024	0020	56338138	HLI0550	D436843001	0013436843	            0001	31.07.2024	       0
		4051494340		10422345	4537203277	00001	2282190	Hexagon bolt MT-TLB 30	8750	0001	           800	PC	PC	000010	681037409	58154754	HLI0550	8750	L14	9999	8750	10.09.2024	14.08.2024	0010	56344283	HLI0550	D454082001	0013454082	            0001	08.08.2024	       0
		4051494341		10422345	4537203289	00001	2076284	Core bit C+ 12/150 SPX-T	8750	0001	             8	PC	PC	000010	681037418	58154754	HLI0550	8750	L05	9999	8750	10.09.2024	14.08.2024	0010	56322851	HLI0550	D407119001	0013407119	            0001	16.07.2024	       0
		4051462466		10257757	4536772569	00001	2261729	Core bit B 107/430+ P-U abras	8330	0001	             1	PC	PC	000010	680685498	58085577	HLI0550	8300	L05	9999	8330	14.08.2024	27.05.2024	0020	56261542	HLI0550	D282817015	0013282817	            0015	18.05.2024	       0
		4051462466		10257757	4536772595	00001	2184472	Hexagon nut M6 DIN 934 A4-70	8330	0001	         1.650	PC	PC	000010	680685512	58085577	HLI0550	8300	L06	9999	8330	14.08.2024	27.05.2024	0010	56262089	HLI0550	D283672001	0013283672	            0001	20.05.2024	       0
		4051462466		10257757	4536772600	00001	2112757	Stop drill bit HKD-TE-CX-B M10 3/8"x30	8330	0001	             4	PC	PC	000010	680685514	58085577	HLI0550	8300	L09	9999	8330	14.08.2024	27.05.2024	0020	56262138	HLI0550	D283675003	0013283675	            0003	20.05.2024	       0
		4051462466		10257757	4536772604	00001	2151630	Hammer drill bit TE-CX 12/47	8330	0001	             2	PC	PC	000010	680685516	58085577	HLI0550	8300	L09	9999	8330	14.08.2024	27.05.2024	0040	56262138	HLI0550	D283675005	0013283675	            0005	20.05.2024	       0
		4051462466		10257757	4536772639	00001	2078527	Supply cord TE 1000-AVR 220V 5m	8330	0001	             1	PC	PC	000010	680685528	58085141	HLI0550	8300	L08	9999	8330	14.08.2024	27.05.2024	0010	56250489	HLI0550	D263296002	0013263296	            0002	07.05.2024	       8
		4051462466		10257757	4536772705	00001	432947	Cable tie with holder X-ECT 40 MX	8330	0001	        12.800	PC	PC	000010	680685548	58083991	HLI0550	8300	L04	9999	8330	14.08.2024	27.05.2024	0010	56253633	HLI0550	D267953001	0013267953	            0001	10.05.2024	       8
		4051462466		10257757	4536772707	00001	2361441	Stud holder S-SH BT M8	8330	0001	             6	PC	PC	000010	680685549	58085141	HLI0550	8300	L10	9999	8330	14.08.2024	27.05.2024	0040	56255537	HLI0550	D273947003	0013273947	            0003	14.05.2024	       0
		4051462463		10259187	4536776851	00001	2309293	Cordless breaker TE 500-22 case	8330	0001	             1	PC	PC	000010	680689159	58084798	HLI0550	8300	L15	9999	8330	14.08.2024	27.05.2024	0110	56219015	HLI0550	D202547020	0013202547	            0020	08.04.2024	       0
		4051462463		10259187	4536776868	00001	2128232	Combihammer TE 50-AVR 220 V	8330	0001	             1	PC	PC	000010	680689173	58084792	HLI0550	8300	L08	9999	8330	14.08.2024	27.05.2024	0020	56226152	HLI0550	D216927003	0013216927	            0003	15.04.2024	       0
		4051462463		10259187	4536776869	00001	2128232	Combihammer TE 50-AVR 220 V	8330	0001	             1	PC	PC	000010	680689174	58084795	HLI0550	8300	L08	9999	8330	14.08.2024	27.05.2024	0020	56226152	HLI0550	D216927003	0013216927	            0003	15.04.2024	       0
		4051462463		10259187	4536776870	00001	2128232	Combihammer TE 50-AVR 220 V	8330	0001	             1	PC	PC	000010	680689175	58084797	HLI0550	8300	L08	9999	8330	14.08.2024	27.05.2024	0020	56226152	HLI0550	D216927003	0013216927	            0003	15.04.2024	       0
		4051462463		10259187	4536776947	00001	2194592	Batt.-actuated tool BX 3-BTG A22 case	8330	0001	             1	PC	PC	000010	680689257	58084801	HLI0550	8300	L04	9999	8330	14.08.2024	27.05.2024	0090	56255537	HLI0550	D273947014	0013273947	            0014	14.05.2024	       8
		4051465070		10267740	4536807990	00001	2158345	Change module 162 SPX/SP-H abras	8330	0001	            12	PC	PC	000010	680714320	58091075	HLI0550	8300	L05	9999	8330	02.09.2024	03.06.2024	0120	56223093	HLI0550	D209227018	0013209227	            0018	11.04.2024	      35
		4051465070		10267740	4536807993	00001	2157748	Change module 47 SPX/SP-H abras	8330	0001	            18	PC	PC	000010	680714323	58091075	HLI0550	8300	L05	9999	8330	02.09.2024	03.06.2024	0080	56242901	HLI0550	D246302008	0013246302	            0008	30.04.2024	-14
		4051465070		10267740	4536807997	00001	2199633	Core bit BI 25/320 SP-L abras	8330	0001	             8	PC	PC	000010	680714327	58091075	HLI0550	8300	L05	9999	8330	02.09.2024	03.06.2024	0280	56252183	HLI0550	D266169009	0013266169	            0009	09.05.2024	-21
		4051465070		10267740	4536807999	00001	2158340	Change module 112 SPX/SP-H abras	8330	0001	            24	PC	PC	000010	680714328	58091075	HLI0550	8300	L05	9999	8330	02.09.2024	03.06.2024	0050	56255537	HLI0550	D273947001	0013273947	            0001	14.05.2024	       0
		4051465070		10267740	4536808005	00001	2076510	Core bit C+ 25/300 SPX-T	8330	0001	             8	PC	PC	000010	680714333	58091075	HLI0550	8300	L05	9999	8330	02.09.2024	03.06.2024	0160	56261542	HLI0550	D282817001	0013282817	            0001	18.05.2024	       7
		4051470945		10300740	4536890066	00001	2151601	Hammer drill bit TE-CX L2 (12) set	8330	0001	             1	PC	PC	000010	680781775	58104441	HLI0550	8300	L09	9999	8330	02.09.2024	17.06.2024	0020	56278558	HLI0550	D319098005	0013319098	            0005	04.06.2024	       0
		4051470945		10300740	4536890068	00001	282341	Quick-release chuck TE 16/TE 30	8330	0001	             1	PC	PC	000010	680781776	58104441	HLI0550	8300	L08	9999	8330	02.09.2024	17.06.2024	0030	56278558	HLI0550	D319098007	0013319098	            0007	04.06.2024	       0
		4051470945		10300740	4536890072	00001	2102983	Dust extr. hood DG-EX115/4.5" grinding	8330	0001	             3	PC	PC	000010	680781778	58104441	HLI0550	8300	L08	9999	8330	02.09.2024	17.06.2024	0020	56280095	HLI0550	D321725007	0013321725	            0007	05.06.2024	       0
		4051470945		10300740	4536890079	00001	304939	Twist drill bit HSS 1-13 (25) set	8330	0001	             2	PC	PC	000010	680781782	58104441	HLI0550	8300	L09	9999	8330	02.09.2024	17.06.2024	0010	56280970	HLI0550	D321804001	0013321804	            0001	05.06.2024	       0
		4051470945		10300740	4536890082	00001	273207	Round steel brush HIT-RB 5/8"	8330	0001	             3	PC	PC	000010	680781783	58104441	HLI0550	8300	L01	9999	8330	02.09.2024	17.06.2024	0010	56281617	HLI0550	D324076002	0013324076	            0002	07.06.2024	       0
		4051470947		10300740	4536890174	00001	2146846	Breaker TE 500-AVR 220V	8330	0001	            20	PC	PC	000010	680781829	58104438	HLI0550	8300	L08	9999	8330	02.09.2024	17.06.2024	0040	56239482	HLI0550	D239416006	0013239416	            0006	25.04.2024	       0
		4051470947		10300740	4536890176	00001	2146846	Breaker TE 500-AVR 220V	8330	0001	            20	PC	PC	000010	680781830	58104439	HLI0550	8300	L08	9999	8330	02.09.2024	17.06.2024	0040	56239482	HLI0550	D239416006	0013239416	            0006	25.04.2024	       0
		4051470947		10300740	4536890178	00001	2146846	Breaker TE 500-AVR 220V	8330	0001	            20	PC	PC	000010	680781831	58104429	HLI0550	8300	L08	9999	8330	02.09.2024	17.06.2024	0040	56239482	HLI0550	D239416006	0013239416	            0006	25.04.2024	       0
		4051470947		10300740	4536890188	00001	2156391	High performance nail X-P 24 B3 MX BULK	8330	0001	       108.000	PC	PC	000010	680781836	58103280	HLI0550	8300	L04	9999	8330	02.09.2024	17.06.2024	0090	56250900	HLI0550	D264364013	0013264364	            0013	08.05.2024	      21
		4051470947		10300740	4536890190	00001	2076987	Core bit C+ 30/600 SPX-T	8330	0001	             5	PC	PC	000010	680781837	58104432	HLI0550	8300	L05	9999	8330	02.09.2024	17.06.2024	0200	56252183	HLI0550	D266169004	0013266169	            0004	09.05.2024	      29
		4051473646		10310999	4536929361	00001	428942	Breaker TE 700-AVR 220V	8750	0001	             1	PC	PC	000010	680814155	58110460	HLI0550	8750	L08	9999	8750	26.08.2024	24.06.2024	0090	56232771	HLI0550	D226780015	0013226780	            0015	19.04.2024	       0
		4051473646		10310999	4536929372	00001	2156153	Powder-actuated tool DX 6 MX	8750	0001	             4	PC	PC	000010	680814169	58109995	HLI0550	8750	L04	9999	8750	26.08.2024	24.06.2024	0020	56235163	HLI0550	D233262003	0013233262	            0003	23.04.2024	      28
		4051473646		10310999	4536929407	00001	285794	Powder-actuated tool DX 76 MX	8750	0001	             1	PC	PC	000010	680814207	58110462	HLI0550	8750	L04	9999	8750	26.08.2024	24.06.2024	0070	56261538	HLI0550	D282818012	0013282818	            0012	18.05.2024	       0
		4051473646		10310999	4536929437	00001	2248345	Cordl. angle grinder AG 4S-22-4.5 box	8750	0001	             6	PC	PC	000010	680814227	58110476	HLI0550	8750	L15	9999	8750	26.08.2024	24.06.2024	0010	56285698	HLI0550	D331056001	0013331056	            0001	11.06.2024	       0
		4051473454		10315219	4536930117	00001	2222545	Injectable mortar HIT-RE 100-HC 580/1	8330	0001	           288	PC	PC	000010	680814914	58110882	HLI0550	8300	L01	9999	8330	10.09.2024	24.06.2024	0010	56205832	HLI0550	D166448001	0013166448	            0001	22.03.2024	      42
		4051473454		10315219	4536930119	00001	2222545	Injectable mortar HIT-RE 100-HC 580/1	8330	0001	           288	PC	PC	000010	680814915	58110886	HLI0550	8300	L01	9999	8330	10.09.2024	24.06.2024	0010	56205832	HLI0550	D166448001	0013166448	            0001	22.03.2024	      42
		4051473454		10315219	4536930120	00001	2222545	Injectable mortar HIT-RE 100-HC 580/1	8330	0001	           288	PC	PC	000010	680814916	58110880	HLI0550	8300	L01	9999	8330	10.09.2024	24.06.2024	0010	56205832	HLI0550	D166448001	0013166448	            0001	22.03.2024	      42
		4051473653		10315217	4536930176	00001	2253099	Cordl. combihammer TE 60-22 case	8330	0001	             2	PC	PC	000010	680814958	58111184	HLI0550	8300	L15	9999	8330	10.09.2024	24.06.2024	0060	56276851	HLI0550	D315834011	0013315834	            0011	03.06.2024	       0
		4051473653		10315217	4536930180	00001	2341092	Hammer drill bit TE-CX 1/2"-6"	8330	0001	             8	PC	PC	000010	680814961	58111158	HLI0550	8300	L09	9999	8330	10.09.2024	24.06.2024	0010	56281249	HLI0550	D323503001	0013323503	            0001	06.06.2024	       0
		4051473653		10315217	4536930181	00001	2151634	Hammer drill bit TE-CX 14/17	8330	0001	             5	PC	PC	000010	680814962	58111158	HLI0550	8300	L09	9999	8330	10.09.2024	24.06.2024	0010	56282375	HLI0550	D324697001	0013324697	            0001	07.06.2024	       0
		4051473653		10315217	4536930185	00001	2199635	Core bit BI 28/320 SP-L abras	8330	0001	             2	PC	PC	000010	680814966	58111158	HLI0550	8300	L05	9999	8330	10.09.2024	24.06.2024	0100	56283094	HLI0550	D325805002	0013325805	            0002	08.06.2024	       7
		4051473653		10315217	4536930188	00001	2278640	Filter VC 20/40/150-X dry	8330	0001	             1	PC	PC	000010	680814969	58111158	HLI0550	8300	L05	9999	8330	10.09.2024	24.06.2024	0020	56284136	HLI0550	D327856003	0013327856	            0003	10.06.2024	       0
		4051473654		10315217	4536930245	00001	2117878	Cutting disc SP-S 305/22 univ	8330	0001	             3	PC	PC	000010	680815014	58111259	HLI0550	8300	L05	9999	8330	10.09.2024	24.06.2024	0120	56290257	HLI0550	D337863005	0013337863	            0005	14.06.2024	       0
		4051473654		10315217	4536930246	00001	2261809	Change module 77 P-U abras	8330	0001	             3	PC	PC	000010	680815015	58111259	HLI0550	8300	L05	9999	8330	10.09.2024	24.06.2024	0130	56290257	HLI0550	D337863022	0013337863	            0022	14.06.2024	       0
		4051473654		10315217	4536930249	00001	2158348	Change module 202 SPX/SP-H abras	8330	0001	             1	PC	PC	000010	680815016	58111259	HLI0550	8300	L05	9999	8330	10.09.2024	24.06.2024	0140	56290257	HLI0550	D337863011	0013337863	            0011	14.06.2024	       0
		4051473654		10315217	4536930250	00001	2158230	Core bit B 62/450 SP-H abras	8330	0001	             2	PC	PC	000010	680815017	58111259	HLI0550	8300	L05	9999	8330	10.09.2024	24.06.2024	0150	56290257	HLI0550	D337863015	0013337863	            0015	14.06.2024	       0
		4051473655		10315217	4536930259	00001	418080	Screw anchor KH-EZ 5/8"x5 1/2"	8330	0001	            90	PC	PC	000010	680815025	58111290	HLI0550	8300	L02	9999	8330	10.09.2024	24.06.2024	0010	56217289	HLI0550	D196507001	0013196507	            0001	05.04.2024	       0
		4051473655		10315217	4536930270	00001	2076511	Core bit C+ 1"/12" SPX-T	8330	0001	            24	PC	PC	000010	680815036	58111289	HLI0550	8300	L05	9999	8330	10.09.2024	24.06.2024	0220	56231499	HLI0550	D225259005	0013225259	            0005	19.04.2024	      56
		4051473655		10315217	4536930271	00001	2076511	Core bit C+ 1"/12" SPX-T	8330	0001	            24	PC	PC	000010	680815037	58111849	HLI0550	8300	L05	9999	8330	10.09.2024	24.06.2024	0220	56231499	HLI0550	D225259005	0013225259	            0005	19.04.2024	      56
		4051473655		10315217	4536930275	00001	2120429	Hammer drill bit TE-YX 45/92 1 3/4-36"	8330	0001	            50	PC	PC	000010	680815040	58111196	HLI0550	8300	L09	9999	8330	10.09.2024	24.06.2024	0010	56232808	HLI0550	D226977001	0013226977	            0001	19.04.2024	      56
		4051473655		10315217	4536930284	00001	2146846	Breaker TE 500-AVR 220V	8330	0001	            20	PC	PC	000010	680815049	58111194	HLI0550	8300	L08	9999	8330	10.09.2024	24.06.2024	0030	56248889	HLI0550	D260623008	0013260623	            0008	06.05.2024	       0
		4051473656		10315217	4536930293	00001	2360929	Band saw blade SP 44-7/8" 14/18	8330	0001	             6	PC	PC	000010	680815057	58111261	HLI0550	8300	L09	9999	8330	10.09.2024	24.06.2024	0060	56288770	HLI0550	D335878011	0013335878	            0011	13.06.2024	       0
		4051476731		10330549	4536968699	00001	432947	Cable tie with holder X-ECT 40 MX	8330	0001	        12.800	PC	PC	000010	680847277	58115827	HLI0550	8300	L04	9999	8330	04.09.2024	01.07.2024	0200	56274048	HLI0550	D304711071	0013304711	            0071	30.05.2024	-7
		4051476731		10330549	4536968711	00001	2105719	Stud anchor HST3 M12x115 40/20	8330	0001	         1.200	PC	PC	000010	680847294	58117298	HLI0550	8300	L02	9999	8330	04.09.2024	01.07.2024	0020	56281617	HLI0550	D324076005	0013324076	            0005	07.06.2024	      14
		4051476731		10330549	4536968723	00001	432947	Cable tie with holder X-ECT 40 MX	8330	0001	        12.800	PC	PC	000010	680847308	58115830	HLI0550	8300	L04	9999	8330	04.09.2024	01.07.2024	0070	56284136	HLI0550	D327856008	0013327856	            0008	10.06.2024	-7
		4051476731		10330549	4536968724	00001	432947	Cable tie with holder X-ECT 40 MX	8330	0001	        12.800	PC	PC	000010	680847309	58115831	HLI0550	8300	L04	9999	8330	04.09.2024	01.07.2024	0070	56284136	HLI0550	D327856008	0013327856	            0008	10.06.2024	-7
		4051484849		10369021	4537081712	00001	338720	Dispenser DSC box	8750	0001	             3	PC	PC	000010	680937774	58134941	HLI0550	8750	L03	9999	8750	18.09.2024	22.07.2024	0010	56322497	HLI0550	D407055001	0013407055	            0001	16.07.2024	       0
		4051484849		10369021	4537081713	00001	2113974	Stud anchor HST3 M10x70 10/-	8750	0001	           150	PC	PC	000010	680937775	58134941	HLI0550	8750	L02	9999	8750	18.09.2024	22.07.2024	0020	56322497	HLI0550	D407055002	0013407055	            0002	16.07.2024	       0
		4051484849		10369021	4537081719	00001	2151626	Hammer drill bit TE-CX 12/17	8750	0001	             3	PC	PC	000010	680937781	58134710	HLI0550	8750	L09	9999	8750	18.09.2024	22.07.2024	0090	56219018	HLI0550	D202548014	0013202548	            0014	08.04.2024	      50
		4051484849		10369021	4537081720	00001	2305539	Core bit BT-F 1 3/8"/12" SPX-L	8750	0001	             2	PC	PC	000010	680937782	58134710	HLI0550	8750	L05	9999	8750	18.09.2024	22.07.2024	0170	56228097	HLI0550	D220369002	0013220369	            0002	17.04.2024	      50
		4051484849		10369021	4537081721	00001	2349149	Grating disc X-FCM 32/37	8750	0001	           200	PC	PC	000010	680937783	58134710	HLI0550	8750	L04	9999	8750	18.09.2024	22.07.2024	0080	56235163	HLI0550	D233262001	0013233262	            0001	23.04.2024	      78
		4051490407		10402069	4537152883	00001	2374137	Recip. saw blade SPX-C 15 8 metal	8330	0001	             5	PC	PC	000010	680996062	58146169	HLI0550	8300	L09	9999	8330	24.09.2024	05.08.2024	0150	56322500	HLI0550	D407054004	0013407054	            0004	16.07.2024	       7
		4051490407		10402069	4537152886	00001	2374141	Recip. saw blade SPX-C 30 8 metal	8330	0001	             5	PC	PC	000010	680996063	58146169	HLI0550	8300	L09	9999	8330	24.09.2024	05.08.2024	0160	56322500	HLI0550	D407054006	0013407054	            0006	16.07.2024	       7
		4051490407		10402069	4537152888	00001	2374139	Recip. saw blade SPX-C 23 8 metal	8330	0001	             5	PC	PC	000010	680996064	58146169	HLI0550	8300	L09	9999	8330	24.09.2024	05.08.2024	0170	56322500	HLI0550	D407054022	0013407054	            0022	16.07.2024	       7
		4051490407		10402069	4537152890	00001	2151626	Hammer drill bit TE-CX 12/17	8330	0001	             8	PC	PC	000010	680996065	58146169	HLI0550	8300	L09	9999	8330	24.09.2024	05.08.2024	0010	56323828	HLI0550	D408960001	0013408960	            0001	17.07.2024	       0
		4051493064		10415979	4537189644	00001	2217525	Threaded stud X-BT-MR0 M10/15 SN 8	8330	0001	           900	PC	PC	000010	681026083	58151143	HLI0550	8300	L04	9999	8330	01.10.2024	12.08.2024	0010	56325744	HLI0550	D412008001	0013412008	            0001	18.07.2024	      14
		4051493064		10415979	4537189645	00001	2217525	Threaded stud X-BT-MR0 M10/15 SN 8	8330	0001	           900	PC	PC	000010	681026084	58151143	HLI0550	8300	L04	9999	8330	01.10.2024	12.08.2024	0010	56325746	HLI0550	D412012001	0013412012	            0001	18.07.2024	      14
		4051493064		10415979	4537189646	00001	2217525	Threaded stud X-BT-MR0 M10/15 SN 8	8330	0001	           900	PC	PC	000010	681026085	58151143	HLI0550	8300	L04	9999	8330	01.10.2024	12.08.2024	0010	56325747	HLI0550	D412013001	0013412013	            0001	18.07.2024	      14
		4051493064		10415979	4537189647	00001	2217525	Threaded stud X-BT-MR0 M10/15 SN 8	8330	0001	           900	PC	PC	000010	681026086	58151143	HLI0550	8300	L04	9999	8330	01.10.2024	12.08.2024	0010	56325748	HLI0550	D412015001	0013412015	            0001	18.07.2024	      14
		4051493064		10415979	4537189650	00001	2101257	Brace X-SL B3 packed	8330	0001	             1	PC	PC	000010	681026089	58151143	HLI0550	8300	L04	9999	8330	01.10.2024	12.08.2024	0030	56327933	HLI0550	D418058007	0013418058	            0007	22.07.2024	      14
		4051462466		10257757	4536772533	00001	2345767	Threaded stud S-BT-GR M8/7 SN 6 HL	8330	0001	         1.500	PC	PC	000010	680685475	58086057	HLI0550	8300	L10	9999	8330	14.08.2024	27.05.2024	0100	56239648	HLI0550	D239966004	0013239966	            0004	26.04.2024	      21
		4051462466		10257757	4536772553	00001	2168886	Scaling chisel TE-SX SC 50/12	8330	0001	             1	PC	PC	000010	680685490	58086072	HLI0550	8300	L09	9999	8330	14.08.2024	27.05.2024	0040	56261404	HLI0550	D282806004	0013282806	            0004	17.05.2024	       0
		4051462466		10257757	4536772607	00001	2288754	Percussion core bit TE-C-BK 90/175	8330	0001	             1	PC	PC	000010	680685518	58085577	HLI0550	8300	L09	9999	8330	14.08.2024	27.05.2024	0050	56262138	HLI0550	D283675006	0013283675	            0006	20.05.2024	       0
		4051462466		10257757	4536772610	00001	2075551	Carbon brush SAG set	8330	0001	             5	PC	PC	000010	680685519	58085577	HLI0550	8300	L09	9999	8330	14.08.2024	27.05.2024	0070	56262138	HLI0550	D283675008	0013283675	            0008	20.05.2024	       0
		4051462466		10257757	4536772614	00001	2079856	Pin type face wrench M14/5/8	8330	0001	             5	PC	PC	000010	680685521	58085577	HLI0550	8300	L09	9999	8330	14.08.2024	27.05.2024	0090	56262138	HLI0550	D283675011	0013283675	            0011	20.05.2024	       0
		4051462463		10259187	4536776856	00001	2064703	Breaker TE 800-AVR 220V	8330	0001	            11	PC	PC	000010	680689163	58084738	HLI0550	8300	L08	9999	8330	14.08.2024	27.05.2024	0170	56219015	HLI0550	D202547032	0013202547	            0032	08.04.2024	       0
		4051462463		10259187	4536776858	00001	2064703	Breaker TE 800-AVR 220V	8330	0001	            11	PC	PC	000010	680689164	58084739	HLI0550	8300	L08	9999	8330	14.08.2024	27.05.2024	0170	56219015	HLI0550	D202547032	0013202547	            0032	08.04.2024	       0
		4051462463		10259187	4536776859	00001	2064703	Breaker TE 800-AVR 220V	8330	0001	            11	PC	PC	000010	680689165	58084737	HLI0550	8300	L08	9999	8330	14.08.2024	27.05.2024	0170	56219015	HLI0550	D202547032	0013202547	            0032	08.04.2024	       0
		4051462463		10259187	4536776860	00001	2064703	Breaker TE 800-AVR 220V	8330	0001	            11	PC	PC	000010	680689166	58084736	HLI0550	8300	L08	9999	8330	14.08.2024	27.05.2024	0170	56219015	HLI0550	D202547032	0013202547	            0032	08.04.2024	       0
		4051462463		10259187	4536776871	00001	2064703	Breaker TE 800-AVR 220V	8330	0001	            11	PC	PC	000010	680689176	58084690	HLI0550	8300	L08	9999	8330	14.08.2024	27.05.2024	0060	56226152	HLI0550	D216927008	0013216927	            0008	15.04.2024	       0
		4051462463		10259187	4536776946	00001	2194592	Batt.-actuated tool BX 3-BTG A22 case	8330	0001	             1	PC	PC	000010	680689256	58084807	HLI0550	8300	L04	9999	8330	14.08.2024	27.05.2024	0070	56255537	HLI0550	D273947004	0013273947	            0004	14.05.2024	       0
		4051465070		10267740	4536808010	00001	2199635	Core bit BI 28/320 SP-L abras	8330	0001	             8	PC	PC	000010	680714338	58091075	HLI0550	8300	L05	9999	8330	02.09.2024	03.06.2024	0120	56261552	HLI0550	D282309014	0013282309	            0014	18.05.2024	       7
		4051465070		10267740	4536808012	00001	2341239	Pointed chisel TE-SX SM 50	8330	0001	            60	PC	PC	000010	680714340	58091073	HLI0550	8300	L09	9999	8330	02.09.2024	03.06.2024	0010	56263926	HLI0550	D286857001	0013286857	            0001	21.05.2024	       0
		4051465070		10267740	4536808013	00001	2341251	Pointed chisel TE-SX SM 36 (4)	8330	0001	            28	PC	PC	000010	680714341	58091075	HLI0550	8300	L09	9999	8330	02.09.2024	03.06.2024	0020	56263926	HLI0550	D286857002	0013286857	            0002	21.05.2024	       0
		4051470945		10300740	4536890084	00001	341429	Protective cover 125 assy	8330	0001	             1	PC	PC	000010	680781784	58104441	HLI0550	8300	L09	9999	8330	02.09.2024	17.06.2024	0020	56283005	HLI0550	D325634002	0013325634	            0002	07.06.2024	       0
		4051470945		10300740	4536890086	00001	409181	Hammer drill bit TE-CX 8/47	8330	0001	             4	PC	PC	000010	680781785	58104441	HLI0550	8300	L09	9999	8330	02.09.2024	17.06.2024	0050	56283005	HLI0550	D325634007	0013325634	            0007	07.06.2024	       0
		4051470945		10300740	4536890092	00001	2179350	Washer holder X-WHC B3 02 packed	8330	0001	            15	PC	PC	000010	680781788	58104441	HLI0550	8300	L04	9999	8330	02.09.2024	17.06.2024	0060	56283094	HLI0550	D325805012	0013325805	            0012	08.06.2024	       0
		4051470945		10300740	4536890098	00001	2261778	Core bit BI 12/320 SP-L abras	8330	0001	             1	PC	PC	000010	680781791	58104441	HLI0550	8300	L05	9999	8330	02.09.2024	17.06.2024	0090	56283094	HLI0550	D325805005	0013325805	            0005	08.06.2024	       0
		4051470945		10300740	4536890100	00001	2361441	Stud holder S-SH BT M8	8330	0001	             6	PC	PC	000010	680781792	58104441	HLI0550	8300	L10	9999	8330	02.09.2024	17.06.2024	0130	56283094	HLI0550	D325805014	0013325805	            0014	08.06.2024	       0
		4051470945		10300740	4536890102	00001	2252195	Elec. connector X-BT-ER M6/3 SN 8	8330	0001	           100	PC	PC	000010	680781793	58104441	HLI0550	8300	L04	9999	8330	02.09.2024	17.06.2024	0010	56283892	HLI0550	D325771001	0013325771	            0001	07.06.2024	       0
		4051470947		10300740	4536890129	00001	2346064	Threaded stud S-BT-MR M10/15 SN 6 HL	8330	0001	           700	PC	PC	000010	680781807	58104427	HLI0550	8300	L10	9999	8330	02.09.2024	17.06.2024	0030	56161548	HLI0550	D079758048	0013079758	            0048	12.02.2024	     119
		4051470947		10300740	4536890131	00001	418080	Screw anchor KH-EZ 5/8"x5 1/2"	8330	0001	            45	PC	PC	000010	680781808	58104427	HLI0550	8300	L02	9999	8330	02.09.2024	17.06.2024	0030	56188693	HLI0550	D139255003	0013139255	            0003	11.03.2024	      49
		4051470947		10300740	4536890134	00001	2341099	Hammer drill bit TE-CX 5/8"-8"	8330	0001	            42	PC	PC	000010	680781810	58104427	HLI0550	8300	L09	9999	8330	02.09.2024	17.06.2024	0130	56211132	HLI0550	D186874023	0013186874	            0023	01.04.2024	      49
		4051470947		10300740	4536890146	00001	2346064	Threaded stud S-BT-MR M10/15 SN 6 HL	8330	0001	           100	PC	PC	000010	680781816	58104427	HLI0550	8300	L10	9999	8330	02.09.2024	17.06.2024	0010	56227557	HLI0550	D216687001	0013216687	            0001	15.04.2024	      49
		4051470947		10300740	4536890171	00001	2341238	Pointed chisel TE-SX SM 43	8330	0001	           180	PC	PC	000010	680781828	58103018	HLI0550	8300	L09	9999	8330	02.09.2024	17.06.2024	0020	56239482	HLI0550	D239416003	0013239416	            0003	25.04.2024	       0
		4051470947		10300740	4536890186	00001	2168876	Flat chisel TE-SX FM 50	8330	0001	            60	PC	PC	000010	680781835	58103018	HLI0550	8300	L09	9999	8330	02.09.2024	17.06.2024	0050	56250489	HLI0550	D263296007	0013263296	            0007	07.05.2024	       0
		4051473646		10310999	4536929383	00001	2160047	Combihammer TE 30-AVR 220V case	8750	0001	             2	PC	PC	000010	680814182	58110362	HLI0550	8750	L08	9999	8750	26.08.2024	24.06.2024	0090	56248891	HLI0550	D260624013	0013260624	            0013	06.05.2024	       0
		4051473646		10310999	4536929385	00001	2160047	Combihammer TE 30-AVR 220V case	8750	0001	             2	PC	PC	000010	680814184	58110758	HLI0550	8750	L08	9999	8750	26.08.2024	24.06.2024	0090	56248891	HLI0550	D260624013	0013260624	            0013	06.05.2024	       0
		4051473646		10310999	4536929386	00001	2160047	Combihammer TE 30-AVR 220V case	8750	0001	             2	PC	PC	000010	680814186	58110759	HLI0550	8750	L08	9999	8750	26.08.2024	24.06.2024	0090	56248891	HLI0550	D260624013	0013260624	            0013	06.05.2024	       0
		4051473646		10310999	4536929389	00001	2075679	Angle grinder AG 180-20P	8750	0001	            16	PC	PC	000010	680814188	58109995	HLI0550	8750	L08	9999	8750	26.08.2024	24.06.2024	0010	56251432	HLI0550	D264984001	0013264984	            0001	08.05.2024	       0
		4051473646		10310999	4536929390	00001	2238594	Diamond grinder DGH 150 230V	8750	0001	             2	PC	PC	000010	680814189	58109995	HLI0550	8750	L05	9999	8750	26.08.2024	24.06.2024	0020	56252161	HLI0550	D265880007	0013265880	            0007	09.05.2024	       0
		4051473646		10310999	4536929412	00001	2293556	Screw anchor HUS4-H 10x100 45/25/15	8750	0001	         2.400	PC	PC	000010	680814211	58111307	HLI0550	8750	L02	9999	8750	26.08.2024	24.06.2024	0010	56262943	HLI0550	D284919001	0013284919	            0001	21.05.2024	       0
		4051473653		10315217	4536930158	00001	2006978	Vacuum pump DD VP-U 220V	8330	0001	             1	PC	PC	000010	680814940	58111185	HLI0550	8300	L05	9999	8330	10.09.2024	24.06.2024	0120	56274032	HLI0550	D304811042	0013304811	            0042	30.05.2024	       7
		4051473653		10315217	4536930166	00001	305542	Connection end BL (M41)	8330	0001	            30	PC	PC	000010	680814948	58111185	HLI0550	8300	L05	9999	8330	10.09.2024	24.06.2024	0410	56274048	HLI0550	D304711058	0013304711	            0058	30.05.2024	       0
		4051473653		10315217	4536930177	00001	2238576	Diamond cup DG-CW 115/4.5" P (2) univ	8330	0001	           204	PC	PC	000010	680814959	58111182	HLI0550	8300	L05	9999	8330	10.09.2024	24.06.2024	0020	56280857	HLI0550	D322855002	0013322855	            0002	06.06.2024	       0
		4051473653		10315217	4536930182	00001	2261725	Core bit B 62/430+ P-U abras	8330	0001	             6	PC	PC	000010	680814963	58111183	HLI0550	8300	L05	9999	8330	10.09.2024	24.06.2024	0050	56283094	HLI0550	D325805011	0013325805	            0011	08.06.2024	       7
		4051473653		10315217	4536930183	00001	2261725	Core bit B 62/430+ P-U abras	8330	0001	             6	PC	PC	000010	680814964	58111844	HLI0550	8300	L05	9999	8330	10.09.2024	24.06.2024	0050	56283094	HLI0550	D325805011	0013325805	            0011	08.06.2024	       7
		4051473653		10315217	4536930184	00001	2261725	Core bit B 62/430+ P-U abras	8330	0001	             6	PC	PC	000010	680814965	58111845	HLI0550	8300	L05	9999	8330	10.09.2024	24.06.2024	0050	56283094	HLI0550	D325805011	0013325805	            0011	08.06.2024	       7
		4051473654		10315217	4536930214	00001	2346064	Threaded stud S-BT-MR M10/15 SN 6 HL	8330	0001	           900	PC	PC	000010	680814990	58111124	HLI0550	8300	L10	9999	8330	10.09.2024	24.06.2024	0010	56287103	HLI0550	D328149002	0013328149	            0002	10.06.2024	       7
		4051473654		10315217	4536930217	00001	2184681	Hammer drill bit TE-YX 1/2"-13"	8330	0001	            40	PC	PC	000010	680814993	58111124	HLI0550	8300	L09	9999	8330	10.09.2024	24.06.2024	0050	56288770	HLI0550	D335878009	0013335878	            0009	13.06.2024	       0
		4051473654		10315217	4536930220	00001	2165916	Hammer drill bit TE-YX 1 1/4"-23"	8330	0001	            60	PC	PC	000010	680814995	58111124	HLI0550	8300	L09	9999	8330	10.09.2024	24.06.2024	0070	56288770	HLI0550	D335878014	0013335878	            0014	13.06.2024	       0
		4051473654		10315217	4536930224	00001	304920	Twist drill bit HSS 5,5x93mm "MP10	8330	0001	           750	PC	PC	000010	680814998	58111124	HLI0550	8300	L09	9999	8330	10.09.2024	24.06.2024	0090	56288770	HLI0550	D335878016	0013335878	            0016	13.06.2024	       0
		4051473654		10315217	4536930229	00001	2194554	Cutting disc EQD SPX-SL 150 (2) univ	8330	0001	            20	PC	PC	000010	680815002	58111124	HLI0550	8300	L05	9999	8330	10.09.2024	24.06.2024	0010	56289016	HLI0550	D335928004	0013335928	            0004	14.06.2024	       0
		4051473654		10315217	4536930230	00001	2199666	Core bit B 37/430 SP-H abras	8330	0001	            10	PC	PC	000010	680815003	58111124	HLI0550	8300	L05	9999	8330	10.09.2024	24.06.2024	0020	56289016	HLI0550	D335928006	0013335928	            0006	14.06.2024	-28
		4051473655		10315217	4536930273	00001	2076511	Core bit C+ 1"/12" SPX-T	8330	0001	             4	PC	PC	000010	680815038	58111290	HLI0550	8300	L05	9999	8330	10.09.2024	24.06.2024	0220	56231499	HLI0550	D225259005	0013225259	            0005	19.04.2024	      56
		4051473655		10315217	4536930277	00001	2261727	Core bit B 77/430+ P-U abras	8330	0001	             6	PC	PC	000010	680815042	58111290	HLI0550	8300	L05	9999	8330	10.09.2024	24.06.2024	0020	56243383	HLI0550	D245414001	0013245414	            0001	29.04.2024	      14
		4051473655		10315217	4536930278	00001	2254658	Pointed chisel TE-HX SM 50	8330	0001	            16	PC	PC	000010	680815043	58111290	HLI0550	8300	L09	9999	8330	10.09.2024	24.06.2024	0030	56247267	HLI0550	D256012008	0013256012	            0008	03.05.2024	       0
		4051473655		10315217	4536930279	00001	435000	Hammer drill bit TE-CX 1/4"-6"	8330	0001	            90	PC	PC	000010	680815044	58111290	HLI0550	8300	L09	9999	8330	10.09.2024	24.06.2024	0010	56248889	HLI0550	D260623001	0013260623	            0001	06.05.2024	       0
		4051473655		10315217	4536930287	00001	2070228	Circ. saw blade SCB WS FT 190x30 z12(5)	8330	0001	            15	PC	PC	000010	680815051	58111290	HLI0550	8300	L09	9999	8330	10.09.2024	24.06.2024	0050	56248889	HLI0550	D260623007	0013260623	            0007	06.05.2024	      42
		4051473655		10315217	4536930288	00001	2157748	Change module 47 SPX/SP-H abras	8330	0001	            24	PC	PC	000010	680815052	58111290	HLI0550	8300	L05	9999	8330	10.09.2024	24.06.2024	0130	56255537	HLI0550	D273947005	0013273947	            0005	14.05.2024	-7
		4051476731		10330549	4536968685	00001	2194555	Cutting disc EQD SPX-SL 150 (6) univ	8330	0001	            12	PC	PC	000010	680847263	58117290	HLI0550	8300	L05	9999	8330	04.09.2024	01.07.2024	0220	56274032	HLI0550	D304811008	0013304811	            0008	30.05.2024	      21
		4051476731		10330549	4536968692	00001	259271	Cleaning kit DX	8330	0001	             1	PC	PC	000010	680847271	58117290	HLI0550	8300	L04	9999	8330	04.09.2024	01.07.2024	0190	56274048	HLI0550	D304711069	0013304711	            0069	30.05.2024	       0
		4051476731		10330549	4536968712	00001	2105719	Stud anchor HST3 M12x115 40/20	8330	0001	         3.600	PC	PC	000010	680847296	58117295	HLI0550	8300	L02	9999	8330	04.09.2024	01.07.2024	0020	56281617	HLI0550	D324076005	0013324076	            0005	07.06.2024	      14
		4051476731		10330549	4536968714	00001	2105719	Stud anchor HST3 M12x115 40/20	8330	0001	            50	PC	PC	000010	680847297	58117290	HLI0550	8300	L02	9999	8330	04.09.2024	01.07.2024	0020	56281617	HLI0550	D324076005	0013324076	            0005	07.06.2024	      14
		4051476731		10330549	4536968717	00001	2341092	Hammer drill bit TE-CX 1/2"-6"	8330	0001	             8	PC	PC	000010	680847300	58117290	HLI0550	8300	L09	9999	8330	04.09.2024	01.07.2024	0060	56283005	HLI0550	D325634011	0013325634	            0011	07.06.2024	       0
		4051476731		10330549	4536968719	00001	2278640	Filter VC 20/40/150-X dry	8330	0001	             1	PC	PC	000010	680847301	58117290	HLI0550	8300	L05	9999	8330	04.09.2024	01.07.2024	0040	56284136	HLI0550	D327856005	0013327856	            0005	10.06.2024	-7
		4051484849		10369021	4537081728	00001	2105858	Stud anchor HST3 M16x135 35/15	8750	0001	            24	PC	PC	000010	680937790	58134710	HLI0550	8750	L02	9999	8750	18.09.2024	22.07.2024	0010	56267093	HLI0550	D291913001	0013291913	            0001	23.05.2024	      22
		4051484849		10369021	4537081729	00001	2333233	Drive wheel DSW-W 280 serv. set	8750	0001	             1	PC	PC	000010	680937791	58134710	HLI0550	8750	L12	9999	8750	18.09.2024	22.07.2024	0060	56270147	HLI0550	D298013007	0013298013	            0007	28.05.2024	      22
		4051490407		10402069	4537152902	00001	315828	Extraction head DD-BI-DRSA-SC assy	8330	0001	             7	PC	PC	000010	680996070	58146169	HLI0550	8300	L05	9999	8330	24.09.2024	05.08.2024	0030	56326503	HLI0550	D413136005	0013413136	            0005	20.07.2024	       7
		4051490407		10402069	4537152906	00001	2151634	Hammer drill bit TE-CX 14/17	8330	0001	             5	PC	PC	000010	680996072	58146169	HLI0550	8300	L09	9999	8330	24.09.2024	05.08.2024	0080	56327882	HLI0550	D418330008	0013418330	            0008	22.07.2024	       0
		4051490407		10402069	4537152914	00001	2151636	Hammer drill bit TE-CX 14/27	8330	0001	            11	PC	PC	000010	680996075	58146169	HLI0550	8300	L09	9999	8330	24.09.2024	05.08.2024	0010	56329452	HLI0550	D421007001	0013421007	            0001	23.07.2024	       0
		4051490407		10402069	4537152930	00001	2165749	Hammer drill bit TE-YX 3/4"-13"	8330	0001	            15	PC	PC	000010	680996081	58146169	HLI0550	8300	L09	9999	8330	24.09.2024	05.08.2024	0010	56330692	HLI0550	D422962001	0013422962	            0001	24.07.2024	       0
		4051490407		10402069	4537152933	00001	2165900	Hammer drill bit TE-YX 3/4"-21"	8330	0001	            15	PC	PC	000010	680996082	58146169	HLI0550	8300	L09	9999	8330	24.09.2024	05.08.2024	0020	56330692	HLI0550	D422962002	0013422962	            0002	24.07.2024	       0
		4051490407		10402069	4537152935	00001	2197930	Stepped drill bit TX-BT 4.7/7-80	8330	0001	            70	PC	PC	000010	680996083	58146169	HLI0550	8300	L04	9999	8330	24.09.2024	05.08.2024	0010	56332093	HLI0550	D425327002	0013425327	            0002	25.07.2024	       0
		4051493064		10415979	4537189652	00001	305904	Chuck DD-CS-BS/BR	8330	0001	             2	PC	PC	000010	681026091	58151143	HLI0550	8300	L05	9999	8330	01.10.2024	12.08.2024	0210	56327933	HLI0550	D418058004	0013418058	            0004	22.07.2024	      14
		4051493064		10415979	4537189656	00001	2217525	Threaded stud X-BT-MR0 M10/15 SN 8	8330	0001	         1.300	PC	PC	000010	681026095	58151143	HLI0550	8300	L04	9999	8330	01.10.2024	12.08.2024	0010	56330167	HLI0550	D420529001	0013420529	            0001	23.07.2024	       7
		4051493064		10415979	4537189657	00001	315828	Extraction head DD-BI-DRSA-SC assy	8330	0001	             7	PC	PC	000010	681026096	58151143	HLI0550	8300	L05	9999	8330	01.10.2024	12.08.2024	0020	56333379	HLI0550	D426673005	0013426673	            0005	27.07.2024	       7
		4051493064		10415979	4537189659	00001	2151636	Hammer drill bit TE-CX 14/27	8330	0001	             3	PC	PC	000010	681026097	58151143	HLI0550	8300	L09	9999	8330	01.10.2024	12.08.2024	0010	56334637	HLI0550	D430428001	0013430428	            0001	29.07.2024	       0
		4051493064		10415979	4537189660	00001	2149244	Nut setter S-NS 13 C 95/3 1/4"	8330	0001	             8	PC	PC	000010	681026098	58151143	HLI0550	8300	L10	9999	8330	01.10.2024	12.08.2024	0020	56335058	HLI0550	D431655015	0013431655	            0015	30.07.2024	       0
		4051462463		10259187	4536776872	00001	2064703	Breaker TE 800-AVR 220V	8330	0001	            11	PC	PC	000010	680689177	58084689	HLI0550	8300	L08	9999	8330	14.08.2024	27.05.2024	0060	56226152	HLI0550	D216927008	0013216927	            0008	15.04.2024	       0
		4051470945		10300740	4536890105	00001	2156393	Steel nail X-S 14 B3 MX BULK	8330	0001	       216.000	PC	PC	000010	680781794	58103278	HLI0550	8300	L04	9999	8330	02.09.2024	17.06.2024	0010	56284136	HLI0550	D327856001	0013327856	            0001	10.06.2024	       0
		4051470947		10300740	4536890161	00001	2346064	Threaded stud S-BT-MR M10/15 SN 6 HL	8330	0001	           100	PC	PC	000010	680781823	58104427	HLI0550	8300	L10	9999	8330	02.09.2024	17.06.2024	0150	56232929	HLI0550	D227197013	0013227197	            0013	20.04.2024	      49
		4051473646		10310999	4536929399	00001	2229036	Breaker TE 3000-AVR 220V	8750	0001	             5	PC	PC	000010	680814203	58111220	HLI0550	8750	L08	9999	8750	26.08.2024	24.06.2024	0010	56261405	HLI0550	D282807001	0013282807	            0001	17.05.2024	       0
		4051473653		10315217	4536930167	00001	305541	Set of wheels DD-HD30-W	8330	0001	             7	PC	PC	000010	680814949	58111185	HLI0550	8300	L05	9999	8330	10.09.2024	24.06.2024	0420	56274048	HLI0550	D304711061	0013304711	            0061	30.05.2024	       0
		4051473654		10315217	4536930235	00001	2217525	Threaded stud X-BT-MR0 M10/15 SN 8	8330	0001	         6.000	PC	PC	000010	680815007	58111124	HLI0550	8300	L04	9999	8330	10.09.2024	24.06.2024	0010	56289473	HLI0550	D328149001	0013328149	            0001	10.06.2024	       7
		4051473655		10315217	4536930289	00001	2288624	Socket cutter 4'' SPX-L mason.	8330	0001	             6	PC	PC	000010	680815053	58111290	HLI0550	8300	L05	9999	8330	10.09.2024	24.06.2024	0140	56255537	HLI0550	D273947007	0013273947	            0007	14.05.2024	       7
		4051476731		10330549	4536968703	00001	215197	Starting aid DD 110-D DD-SA-RK BI+	8330	0001	            15	PC	PC	000010	680847282	58117385	HLI0550	8300	L05	9999	8330	04.09.2024	01.07.2024	0560	56274048	HLI0550	D304711043	0013304711	            0043	30.05.2024	       0
		4051476731		10330549	4536968720	00001	2278640	Filter VC 20/40/150-X dry	8330	0001	             1	PC	PC	000010	680847303	58117290	HLI0550	8300	L05	9999	8330	04.09.2024	01.07.2024	0060	56284136	HLI0550	D327856007	0013327856	            0007	10.06.2024	       0
		4051483650		10367403	4537061272	00001	2105895	Stud anchor HST3 M24x230 -/60	8750	0001	            40	PC	PC	000010	680921276	58132215	HLI0550	8750	L02	9999	8750	20.08.2024	17.07.2024	0030	56266147	HLI0550	D289657003	0013289657	            0003	22.05.2024	      28
		4051483650		10367403	4537061275	00001	2346060	Threaded stud S-BT-MF M10/15 AN 6 HL	8750	0001	           900	PC	PC	000010	680921279	58132215	HLI0550	8750	L10	9999	8750	20.08.2024	17.07.2024	0010	56299155	HLI0550	D354427001	0013354427	            0001	21.06.2024	       0
		4051490407		10402069	4537152937	00001	2018415	Anchor rod HIT-Z M12x196	8330	0001	            20	PC	PC	000010	680996085	58146169	HLI0550	8300	L01	9999	8330	24.09.2024	05.08.2024	0020	56332099	HLI0550	D425264009	0013425264	            0009	25.07.2024	       0
		4051490407		10402069	4537152939	00001	2261176	Bimetal hole saw 76mm-3" MultiCut	8330	0001	             1	PC	PC	000010	680996086	58146169	HLI0550	8300	L09	9999	8330	24.09.2024	05.08.2024	0030	56332099	HLI0550	D425264011	0013425264	            0011	25.07.2024	       0
		4051493064		10415979	4537189661	00001	2261257	Filter VC 20/40/150-X univ	8330	0001	             2	PC	PC	000010	681026099	58151143	HLI0550	8300	L05	9999	8330	01.10.2024	12.08.2024	0030	56335058	HLI0550	D431655016	0013431655	            0016	30.07.2024	       0
		4051493064		10415979	4537189663	00001	2361442	Stud holder S-SH BT M10/W10	8330	0001	            22	PC	PC	000010	681026101	58151143	HLI0550	8300	L10	9999	8330	01.10.2024	12.08.2024	0060	56335058	HLI0550	D431655027	0013431655	            0027	30.07.2024	       0
		4051462463		10259187	4536776841	00001	2261782	Core bit BI 18/320 SP-L abras	8330	0001	             8	PC	PC	000010	680689148	58085733	HLI0550	8300	L05	9999	8330	14.08.2024	27.05.2024	0210	56205407	HLI0550	D171633016	0013171633	            0016	26.03.2024	      28
		4051462463		10259187	4536776842	00001	2261782	Core bit BI 18/320 SP-L abras	8330	0001	             1	PC	PC	000010	680689149	58085684	HLI0550	8300	L05	9999	8330	14.08.2024	27.05.2024	0210	56205407	HLI0550	D171633016	0013171633	            0016	26.03.2024	      28
		4051462463		10259187	4536776845	00001	2261778	Core bit BI 12/320 SP-L abras	8330	0001	            16	PC	PC	000010	680689152	58085733	HLI0550	8300	L05	9999	8330	14.08.2024	27.05.2024	0350	56210141	HLI0550	D180164033	0013180164	            0033	29.03.2024	      42
		4051462463		10259187	4536776846	00001	2261778	Core bit BI 12/320 SP-L abras	8330	0001	             6	PC	PC	000010	680689153	58085684	HLI0550	8300	L05	9999	8330	14.08.2024	27.05.2024	0350	56210141	HLI0550	D180164033	0013180164	            0033	29.03.2024	      42
		4051462463		10259187	4536776853	00001	2341238	Pointed chisel TE-SX SM 43	8330	0001	           120	PC	PC	000010	680689160	58085713	HLI0550	8300	L09	9999	8330	14.08.2024	27.05.2024	0120	56219015	HLI0550	D202547024	0013202547	            0024	08.04.2024	       0
		4051462463		10259187	4536776854	00001	2022002	Hammer drill bit TE-CX 8/12 MP8	8330	0001	            56	PC	PC	000010	680689161	58085684	HLI0550	8300	L09	9999	8330	14.08.2024	27.05.2024	0130	56219015	HLI0550	D202547026	0013202547	            0026	08.04.2024	       0
		4051462463		10259187	4536776881	00001	2217525	Threaded stud X-BT-MR0 M10/15 SN 8	8330	0001	         1.100	PC	PC	000010	680689186	58085684	HLI0550	8300	L04	9999	8330	14.08.2024	27.05.2024	0130	56231481	HLI0550	D224992014	0013224992	            0014	19.04.2024	      28
		4051462463		10259187	4536776883	00001	2341252	Pointed chisel TE-SX SM 43 (4)	8330	0001	           104	PC	PC	000010	680689188	58085643	HLI0550	8300	L09	9999	8330	14.08.2024	27.05.2024	0160	56232777	HLI0550	D226779034	0013226779	            0034	19.04.2024	       0
		4051462463		10259187	4536776885	00001	2341252	Pointed chisel TE-SX SM 43 (4)	8330	0001	             8	PC	PC	000010	680689189	58085703	HLI0550	8300	L09	9999	8330	14.08.2024	27.05.2024	0160	56232777	HLI0550	D226779034	0013226779	            0034	19.04.2024	       0
		4051462463		10259187	4536776886	00001	2241987	Pointed chisel TE-YX SM 50 (4)	8330	0001	            64	PC	PC	000010	680689190	58085695	HLI0550	8300	L09	9999	8330	14.08.2024	27.05.2024	0270	56232777	HLI0550	D226779056	0013226779	            0056	19.04.2024	       0
		4051462463		10259187	4536776887	00001	2254658	Pointed chisel TE-HX SM 50	8330	0001	            48	PC	PC	000010	680689191	58085643	HLI0550	8300	L09	9999	8330	14.08.2024	27.05.2024	0290	56232777	HLI0550	D226779058	0013226779	            0058	19.04.2024	       0
		4051462463		10259187	4536776888	00001	2254658	Pointed chisel TE-HX SM 50	8330	0001	             8	PC	PC	000010	680689192	58085733	HLI0550	8300	L09	9999	8330	14.08.2024	27.05.2024	0290	56232777	HLI0550	D226779058	0013226779	            0058	19.04.2024	       0
		4051462463		10259187	4536776889	00001	2168875	Flat chisel TE-SX FM 43	8330	0001	           180	PC	PC	000010	680689193	58085713	HLI0550	8300	L09	9999	8330	14.08.2024	27.05.2024	0400	56232777	HLI0550	D226779072	0013226779	            0072	19.04.2024	       0
		4051462463		10259187	4536776890	00001	2254657	Pointed chisel TE-HX SM 40	8330	0001	            48	PC	PC	000010	680689194	58085643	HLI0550	8300	L09	9999	8330	14.08.2024	27.05.2024	0440	56232777	HLI0550	D226779077	0013226779	            0077	19.04.2024	       0
		4051462463		10259187	4536776891	00001	2254657	Pointed chisel TE-HX SM 40	8330	0001	             8	PC	PC	000010	680689195	58085733	HLI0550	8300	L09	9999	8330	14.08.2024	27.05.2024	0440	56232777	HLI0550	D226779077	0013226779	            0077	19.04.2024	       0
		4051462463		10259187	4536776892	00001	2158331	Change module 62 SPX/SP-H abras	8330	0001	            12	PC	PC	000010	680689196	58085695	HLI0550	8300	L05	9999	8330	14.08.2024	27.05.2024	0100	56232929	HLI0550	D227197008	0013227197	            0008	20.04.2024	      28
		4051462463		10259187	4536776893	00001	2133384	Firestop wrap strip CFS-W P	8330	0001	           240	PC	PC	000010	680689197	58084561	HLI0550	8300	L03	9999	8330	14.08.2024	27.05.2024	0010	56234474	HLI0550	D225004009	0013225004	            0009	18.04.2024	      28
		4051462463		10259187	4536776894	00001	2133384	Firestop wrap strip CFS-W P	8330	0001	           240	PC	PC	000010	680689198	58084562	HLI0550	8300	L03	9999	8330	14.08.2024	27.05.2024	0010	56234474	HLI0550	D225004009	0013225004	            0009	18.04.2024	      28
		4051462463		10259187	4536776895	00001	2133384	Firestop wrap strip CFS-W P	8330	0001	           240	PC	PC	000010	680689199	58084557	HLI0550	8300	L03	9999	8330	14.08.2024	27.05.2024	0030	56234474	HLI0550	D225004009	0013225004	            0009	18.04.2024	      28
		4051462463		10259187	4536776897	00001	2133384	Firestop wrap strip CFS-W P	8330	0001	           240	PC	PC	000010	680689200	58084559	HLI0550	8300	L03	9999	8330	14.08.2024	27.05.2024	0030	56234474	HLI0550	D225004009	0013225004	            0009	18.04.2024	      28
		4051462463		10259187	4536776898	00001	2133384	Firestop wrap strip CFS-W P	8330	0001	           240	PC	PC	000010	680689201	58084558	HLI0550	8300	L03	9999	8330	14.08.2024	27.05.2024	0030	56234474	HLI0550	D225004009	0013225004	            0009	18.04.2024	      28
		4051462463		10259187	4536776899	00001	2133384	Firestop wrap strip CFS-W P	8330	0001	           240	PC	PC	000010	680689202	58084560	HLI0550	8300	L03	9999	8330	14.08.2024	27.05.2024	0030	56234474	HLI0550	D225004009	0013225004	            0009	18.04.2024	      28
		4051462463		10259187	4536776901	00001	2217525	Threaded stud X-BT-MR0 M10/15 SN 8	8330	0001	         3.000	PC	PC	000010	680689204	58085695	HLI0550	8300	L04	9999	8330	14.08.2024	27.05.2024	0090	56235157	HLI0550	D233040007	0013233040	            0007	23.04.2024	      21
		4051462463		10259187	4536776902	00001	2217525	Threaded stud X-BT-MR0 M10/15 SN 8	8330	0001	           500	PC	PC	000010	680689205	58085684	HLI0550	8300	L04	9999	8330	14.08.2024	27.05.2024	0090	56235157	HLI0550	D233040007	0013233040	            0007	23.04.2024	      21
		4051462463		10259187	4536776903	00001	2158330	Change module 57 SPX/SP-H abras	8330	0001	            24	PC	PC	000010	680689206	58085695	HLI0550	8300	L05	9999	8330	14.08.2024	27.05.2024	0010	56235300	HLI0550	D232404001	0013232404	            0001	23.04.2024	      14
		4051462463		10259187	4536776905	00001	2341092	Hammer drill bit TE-CX 1/2"-6"	8330	0001	             1	PC	PC	000010	680689207	58085684	HLI0550	8300	L09	9999	8330	14.08.2024	27.05.2024	0040	56236260	HLI0550	D226779022	0013226779	            0022	19.04.2024	-14
		4051462463		10259187	4536776908	00001	2261782	Core bit BI 18/320 SP-L abras	8330	0001	             8	PC	PC	000010	680689210	58085733	HLI0550	8300	L05	9999	8330	14.08.2024	27.05.2024	0080	56239648	HLI0550	D239966006	0013239966	            0006	26.04.2024	       0
		4051462463		10259187	4536776910	00001	435007	Hammer drill bit TE-CX 3/8"-12"	8330	0001	            40	PC	PC	000010	680689212	58085684	HLI0550	8300	L09	9999	8330	14.08.2024	27.05.2024	0010	56242623	HLI0550	D245716001	0013245716	            0001	29.04.2024	       0
		4051462463		10259187	4536776912	00001	2261778	Core bit BI 12/320 SP-L abras	8330	0001	            16	PC	PC	000010	680689214	58085733	HLI0550	8300	L05	9999	8330	14.08.2024	27.05.2024	0110	56242901	HLI0550	D246302004	0013246302	            0004	30.04.2024	      14
		4051462463		10259187	4536776913	00001	259768	Dispenser gun CF DS-1	8330	0001	            75	PC	PC	000010	680689215	58084892	HLI0550	8300	L03	9999	8330	14.08.2024	27.05.2024	0010	56248903	HLI0550	D260538001	0013260538	            0001	06.05.2024	       0
		4051462463		10259187	4536776916	00001	2076986	Core bit C+ 1-1/8"/24" SPX-T	8330	0001	             5	PC	PC	000010	680689218	58085684	HLI0550	8300	L05	9999	8330	14.08.2024	27.05.2024	0210	56252183	HLI0550	D266169053	0013266169	            0053	09.05.2024	       8
		4051462463		10259187	4536776920	00001	2270514	Surfacing tool pre-paint FX 3-ST d14	8330	0001	             1	PC	PC	000010	680689222	58085684	HLI0550	8300	L04	9999	8330	14.08.2024	27.05.2024	0320	56252183	HLI0550	D266169024	0013266169	            0024	09.05.2024	       8
		4051462463		10259187	4536776922	00001	333477	Nut DD-LR-CLN	8330	0001	             2	PC	PC	000010	680689224	58085684	HLI0550	8300	L05	9999	8330	14.08.2024	27.05.2024	0380	56252183	HLI0550	D266169041	0013266169	            0041	09.05.2024	       8
		4051462463		10259187	4536776925	00001	2112757	Stop drill bit HKD-TE-CX-B M10 3/8"x30	8330	0001	             1	PC	PC	000010	680689227	58085684	HLI0550	8300	L09	9999	8330	14.08.2024	27.05.2024	0010	56255403	HLI0550	D273742002	0013273742	            0002	13.05.2024	       8
		4051462463		10259187	4536776927	00001	2184660	Comfort side handle TE 500-X (Gen 3)	8330	0001	             1	PC	PC	000010	680689228	58085684	HLI0550	8300	L08	9999	8330	14.08.2024	27.05.2024	0020	56255403	HLI0550	D273742003	0013273742	            0003	13.05.2024	       8
		4051462463		10259187	4536776928	00001	2112751	Setting tool HKD-TE-CX M10 3/8"x30	8330	0001	             1	PC	PC	000010	680689229	58085684	HLI0550	8300	L09	9999	8330	14.08.2024	27.05.2024	0030	56255403	HLI0550	D273742004	0013273742	            0004	13.05.2024	       8
		4051462463		10259187	4536776929	00001	2165749	Hammer drill bit TE-YX 3/4"-13"	8330	0001	             8	PC	PC	000010	680689230	58085684	HLI0550	8300	L09	9999	8330	14.08.2024	27.05.2024	0050	56255403	HLI0550	D273742007	0013273742	            0007	13.05.2024	       8
		4051462463		10259187	4536776930	00001	2165913	Hammer drill bit TE-YX 1 1/8"-21"	8330	0001	             3	PC	PC	000010	680689232	58085684	HLI0550	8300	L09	9999	8330	14.08.2024	27.05.2024	0060	56255403	HLI0550	D273742009	0013273742	            0009	13.05.2024	       8
		4051462463		10259187	4536776931	00001	2151652	Hammer drill bit TE-CX 12/27 MP16	8330	0001	            80	PC	PC	000010	680689233	58085733	HLI0550	8300	L09	9999	8330	14.08.2024	27.05.2024	0070	56255403	HLI0550	D273742012	0013273742	            0012	13.05.2024	       8
		4051462463		10259187	4536776932	00001	2151652	Hammer drill bit TE-CX 12/27 MP16	8330	0001	            32	PC	PC	000010	680689235	58085684	HLI0550	8300	L09	9999	8330	14.08.2024	27.05.2024	0070	56255403	HLI0550	D273742012	0013273742	            0012	13.05.2024	       8
		4051462463		10259187	4536776933	00001	2206743	Hammer drill bit TE-CX 3/4"-18"	8330	0001	             1	PC	PC	000010	680689236	58085684	HLI0550	8300	L09	9999	8330	14.08.2024	27.05.2024	0090	56255403	HLI0550	D273742014	0013273742	            0014	13.05.2024	       8
		4051462463		10259187	4536776934	00001	2165909	Hammer drill bit TE-YX 26/52 1"-21"	8330	0001	            11	PC	PC	000010	680689238	58085684	HLI0550	8300	L09	9999	8330	14.08.2024	27.05.2024	0110	56255403	HLI0550	D273742017	0013273742	            0017	13.05.2024	       8
		4051462463		10259187	4536776939	00001	2157749	Change module 52 SPX/SP-H abras	8330	0001	             6	PC	PC	000010	680689247	58085695	HLI0550	8300	L05	9999	8330	14.08.2024	27.05.2024	0070	56255418	HLI0550	D273729010	0013273729	            0010	13.05.2024	       8
		4051462463		10259187	4536776940	00001	2199654	Core bit B 47/320 SP-L abras	8330	0001	             1	PC	PC	000010	680689248	58085684	HLI0550	8300	L05	9999	8330	14.08.2024	27.05.2024	0080	56255418	HLI0550	D273729007	0013273729	            0007	13.05.2024	-21
		4051462463		10259187	4536776942	00001	2158232	Core bit B 72/450 SP-H abras	8330	0001	             4	PC	PC	000010	680689251	58085695	HLI0550	8300	L05	9999	8330	14.08.2024	27.05.2024	0100	56255418	HLI0550	D273729011	0013273729	            0011	13.05.2024	       8
		4051462463		10259187	4536776943	00001	2158232	Core bit B 72/450 SP-H abras	8330	0001	             2	PC	PC	000010	680689252	58085684	HLI0550	8300	L05	9999	8330	14.08.2024	27.05.2024	0100	56255418	HLI0550	D273729011	0013273729	            0011	13.05.2024	       8
		4051462463		10259187	4536776944	00001	2346073	Elec. connector S-BT-ER M8/15 SN 6 HL	8330	0001	           800	PC	PC	000010	680689254	58085684	HLI0550	8300	L10	9999	8330	14.08.2024	27.05.2024	0110	56255418	HLI0550	D273729004	0013273729	            0004	13.05.2024	       8
		4051462463		10259187	4536776953	00001	2346073	Elec. connector S-BT-ER M8/15 SN 6 HL	8330	0001	           800	PC	PC	000010	680689263	58085684	HLI0550	8300	L10	9999	8330	14.08.2024	27.05.2024	0010	56256802	HLI0550	D273605001	0013273605	            0001	13.05.2024	       0
		4051462463		10259187	4536776954	00001	2254774	Flat chisel TE-HX FM 40	8330	0001	            20	PC	PC	000010	680689264	58085733	HLI0550	8300	L09	9999	8330	14.08.2024	27.05.2024	0010	56258194	HLI0550	D277478001	0013277478	            0001	15.05.2024	       0
		4051462463		10259187	4536776955	00001	2076503	Core bit C+ 16/300 SPX-T	8330	0001	            20	PC	PC	000010	680689265	58085695	HLI0550	8300	L05	9999	8330	14.08.2024	27.05.2024	0010	56259191	HLI0550	D279167001	0013279167	            0001	15.05.2024	       0
		4051462464		10259187	4536776958	00001	237328	Universal nail X-U 15 P8 TH	8330	0001	         5.000	PC	PC	000010	680689268	58085693	HLI0550	8300	L04	9999	8330	14.08.2024	27.05.2024	0070	56223179	HLI0550	D209186009	0013209186	            0009	11.04.2024	       7
		4051462464		10259187	4536776959	00001	237328	Universal nail X-U 15 P8 TH	8330	0001	         3.800	PC	PC	000010	680689269	58085693	HLI0550	8300	L04	9999	8330	14.08.2024	27.05.2024	0010	56231499	HLI0550	D225259003	0013225259	            0003	19.04.2024	       0
		4051470945		10300740	4536890031	00001	2288625	Socket cutter 5'' SPX-L mason.	8330	0001	            48	PC	PC	000010	680781757	58103028	HLI0550	8300	L05	9999	8330	02.09.2024	17.06.2024	0170	56265721	HLI0550	D289752026	0013289752	            0026	23.05.2024	       0
		4051470945		10300740	4536890037	00001	2076503	Core bit C+ 16/300 SPX-T	8330	0001	            24	PC	PC	000010	680781760	58103028	HLI0550	8300	L05	9999	8330	02.09.2024	17.06.2024	0160	56270129	HLI0550	D298761014	0013298761	            0014	27.05.2024	      14
		4051470945		10300740	4536890052	00001	2158342	Change module 132 SPX/SP-H abras	8330	0001	             6	PC	PC	000010	680781768	58103029	HLI0550	8300	L05	9999	8330	02.09.2024	17.06.2024	0480	56274048	HLI0550	D304711026	0013304711	            0026	30.05.2024	-14
		4051470945		10300740	4536890058	00001	2261455	Core bit BI 22/320 SP-L abras	8330	0001	            16	PC	PC	000010	680781771	58103029	HLI0550	8300	L05	9999	8330	02.09.2024	17.06.2024	0550	56274048	HLI0550	D304711031	0013304711	            0031	30.05.2024	-21
		4051470945		10300740	4536890094	00001	2158345	Change module 162 SPX/SP-H abras	8330	0001	             6	PC	PC	000010	680781789	58104934	HLI0550	8300	L05	9999	8330	02.09.2024	17.06.2024	0080	56283094	HLI0550	D325805003	0013325805	            0003	08.06.2024	       0
		4051470945		10300740	4536890096	00001	2158345	Change module 162 SPX/SP-H abras	8330	0001	             6	PC	PC	000010	680781790	58104937	HLI0550	8300	L05	9999	8330	02.09.2024	17.06.2024	0080	56283094	HLI0550	D325805003	0013325805	            0003	08.06.2024	       0
		4051470947		10300740	4536890132	00001	418080	Screw anchor KH-EZ 5/8"x5 1/2"	8330	0001	            90	PC	PC	000010	680781809	58103019	HLI0550	8300	L02	9999	8330	02.09.2024	17.06.2024	0030	56188693	HLI0550	D139255003	0013139255	            0003	11.03.2024	      49
		4051470947		10300740	4536890148	00001	2346064	Threaded stud S-BT-MR M10/15 SN 6 HL	8330	0001	           900	PC	PC	000010	680781817	58103019	HLI0550	8300	L10	9999	8330	02.09.2024	17.06.2024	0010	56227557	HLI0550	D216687001	0013216687	            0001	15.04.2024	      49
		4051470947		10300740	4536890153	00001	2156391	High performance nail X-P 24 B3 MX BULK	8330	0001	       180.000	PC	PC	000010	680781819	58103279	HLI0550	8300	L04	9999	8330	02.09.2024	17.06.2024	0040	56231481	HLI0550	D224992003	0013224992	            0003	19.04.2024	      49
		4051470947		10300740	4536890180	00001	2254658	Pointed chisel TE-HX SM 50	8330	0001	             8	PC	PC	000010	680781832	58103019	HLI0550	8300	L09	9999	8330	02.09.2024	17.06.2024	0220	56239482	HLI0550	D239416029	0013239416	            0029	25.04.2024	       0
		4051470947		10300740	4536890182	00001	2261783	Core bit BI 20/320 SP-L abras	8330	0001	            16	PC	PC	000010	680781833	58103019	HLI0550	8300	L05	9999	8330	02.09.2024	17.06.2024	0070	56247384	HLI0550	D255917003	0013255917	            0003	04.05.2024	      35
		4051470947		10300740	4536890184	00001	2346064	Threaded stud S-BT-MR M10/15 SN 6 HL	8330	0001	           400	PC	PC	000010	680781834	58104427	HLI0550	8300	L10	9999	8330	02.09.2024	17.06.2024	0090	56247384	HLI0550	D255917007	0013255917	            0007	04.05.2024	      35
		4051470947		10300740	4536890192	00001	2288623	Socket cutter 4'' SPX-L	8330	0001	            48	PC	PC	000010	680781838	58103027	HLI0550	8300	L05	9999	8330	02.09.2024	17.06.2024	0030	56253765	HLI0550	D268444001	0013268444	            0001	11.05.2024	      14
		4051470947		10300740	4536890197	00001	2288624	Socket cutter 4'' SPX-L mason.	8330	0001	            41	PC	PC	000010	680781840	58103019	HLI0550	8300	L05	9999	8330	02.09.2024	17.06.2024	0140	56255537	HLI0550	D273947007	0013273947	            0007	14.05.2024	       7
		4051470947		10300740	4536890199	00001	2194352	Elec. connector X-BT-ER M10/7 SN 8	8330	0001	           300	PC	PC	000010	680781841	58104427	HLI0550	8300	L04	9999	8330	02.09.2024	17.06.2024	0020	56256050	HLI0550	D266169049	0013266169	            0049	09.05.2024	      29
		4051470947		10300740	4536890223	00001	2261783	Core bit BI 20/320 SP-L abras	8330	0001	            16	PC	PC	000010	680781850	58103019	HLI0550	8300	L05	9999	8330	02.09.2024	17.06.2024	0100	56261552	HLI0550	D282309002	0013282309	            0002	18.05.2024	      21
		4051470947		10300740	4536890226	00001	2261778	Core bit BI 12/320 SP-L abras	8330	0001	             1	PC	PC	000010	680781851	58104427	HLI0550	8300	L05	9999	8330	02.09.2024	17.06.2024	0110	56261552	HLI0550	D282309004	0013282309	            0004	18.05.2024	      21
		4051470947		10300740	4536890229	00001	2112751	Setting tool HKD-TE-CX M10 3/8"x30	8330	0001	             4	PC	PC	000010	680781852	58104427	HLI0550	8300	L09	9999	8330	02.09.2024	17.06.2024	0010	56262138	HLI0550	D283675001	0013283675	            0001	20.05.2024	      21
		4051473646		10310999	4536929352	00001	2199633	Core bit BI 25/320 SP-L abras	8750	0001	            16	PC	PC	000010	680814150	58111306	HLI0550	8750	L05	9999	8750	26.08.2024	24.06.2024	0040	56231482	HLI0550	D224993002	0013224993	            0002	19.04.2024	      56
		4051473646		10310999	4536929363	00001	2293554	Screw anchor HUS4-H 10x80 25/5/-	8750	0001	           200	PC	PC	000010	680814157	58111304	HLI0550	8750	L02	9999	8750	26.08.2024	24.06.2024	0020	56233722	HLI0550	D227299002	0013227299	            0002	22.04.2024	      56
		4051473646		10310999	4536929374	00001	2293567	Screw anchor HUS4-H 12x130 70/50/30	8750	0001	           300	PC	PC	000010	680814171	58111306	HLI0550	8750	L02	9999	8750	26.08.2024	24.06.2024	0070	56240885	HLI0550	D241547002	0013241547	            0002	26.04.2024	      28
		4051473646		10310999	4536929381	00001	2241983	Pointed chisel TE-YX SM 36	8750	0001	            20	PC	PC	000010	680814178	58111306	HLI0550	8750	L09	9999	8750	26.08.2024	24.06.2024	0040	56248891	HLI0550	D260624006	0013260624	            0006	06.05.2024	       0
		4051473646		10310999	4536929392	00001	2105719	Stud anchor HST3 M12x115 40/20	8750	0001	           300	PC	PC	000010	680814192	58112064	HLI0550	8750	L02	9999	8750	26.08.2024	24.06.2024	0050	56252786	HLI0550	D266593002	0013266593	            0002	10.05.2024	      28
		4051473646		10310999	4536929408	00001	2105713	Stud anchor HST3 M10x100 40/20	8750	0001	         1.500	PC	PC	000010	680814208	58112017	HLI0550	8750	L02	9999	8750	26.08.2024	24.06.2024	0010	56262783	HLI0550	D284766001	0013284766	            0001	21.05.2024	       0
		4051473646		10310999	4536929414	00001	2345767	Threaded stud S-BT-GR M8/7 SN 6 HL	8750	0001	         1.500	PC	PC	000010	680814212	58111304	HLI0550	8750	L10	9999	8750	26.08.2024	24.06.2024	0010	56265375	HLI0550	D282818013	0013282818	            0013	18.05.2024	      28
		4051473646		10310999	4536929430	00001	338720	Dispenser DSC box	8750	0001	             7	PC	PC	000010	680814222	58111304	HLI0550	8750	L03	9999	8750	26.08.2024	24.06.2024	0020	56274135	HLI0550	D304655003	0013304655	            0003	31.05.2024	       0
		4051473647		10310999	4536929441	00001	2105800	Threaded stud X-W6-12-14 B3 P7	8750	0001	           200	PC	PC	000010	680814230	58111304	HLI0550	8750	L04	9999	8750	26.08.2024	24.06.2024	0010	56000262	HLI0550	C756511001	0012756511	            0001	11.09.2023	     287
		4051473647		10310999	4536929443	00001	2105800	Threaded stud X-W6-12-14 B3 P7	8750	0001	         2.000	PC	PC	000010	680814231	58111125	HLI0550	8750	L04	9999	8750	26.08.2024	24.06.2024	0010	56000262	HLI0550	C756511001	0012756511	            0001	11.09.2023	     287
		4051473653		10315217	4536930186	00001	2199635	Core bit BI 28/320 SP-L abras	8330	0001	             8	PC	PC	000010	680814967	58111185	HLI0550	8300	L05	9999	8330	10.09.2024	24.06.2024	0100	56283094	HLI0550	D325805002	0013325805	            0002	08.06.2024	       7
		4051473653		10315217	4536930189	00001	2104283	Flat wall chisel TE-SX FW 30	8330	0001	             5	PC	PC	000010	680814970	58111185	HLI0550	8300	L09	9999	8330	10.09.2024	24.06.2024	0050	56284217	HLI0550	D328226005	0013328226	            0005	10.06.2024	       7
		4051473654		10315217	4536930233	00001	2158238	Core bit B 107/450 SP-H abras	8330	0001	            10	PC	PC	000010	680815005	58111199	HLI0550	8300	L05	9999	8330	10.09.2024	24.06.2024	0040	56289016	HLI0550	D335928005	0013335928	            0005	14.06.2024	       0
		4051473655		10315217	4536930292	00001	2341237	Pointed chisel TE-SX SM 36	8330	0001	            15	PC	PC	000010	680815056	58111290	HLI0550	8300	L09	9999	8330	10.09.2024	24.06.2024	0030	56264103	HLI0550	D287583003	0013287583	            0003	21.05.2024	       0
		4051476731		10330549	4536968671	00001	2261783	Core bit BI 20/320 SP-L abras	8330	0001	            16	PC	PC	000010	680847254	58117299	HLI0550	8300	L05	9999	8330	04.09.2024	01.07.2024	0010	56270632	HLI0550	D294360009	0013294360	            0009	25.05.2024	      28
		4051476731		10330549	4536968686	00001	237328	Universal nail X-U 15 P8 TH	8330	0001	        12.000	PC	PC	000010	680847265	58117299	HLI0550	8300	L04	9999	8330	04.09.2024	01.07.2024	0340	56274032	HLI0550	D304811048	0013304811	            0048	30.05.2024	-35
		4051476731		10330549	4536968702	00001	2288622	Socket cutter 5'' SPX-L	8330	0001	            48	PC	PC	000010	680847281	58117292	HLI0550	8300	L05	9999	8330	04.09.2024	01.07.2024	0540	56274048	HLI0550	D304711085	0013304711	            0085	30.05.2024	-28
		4051476731		10330549	4536968705	00001	2341251	Pointed chisel TE-SX SM 36 (4)	8330	0001	            12	PC	PC	000010	680847285	58117299	HLI0550	8300	L09	9999	8330	04.09.2024	01.07.2024	0110	56276851	HLI0550	D315834019	0013315834	            0019	03.06.2024	       0
		4051476731		10330549	4536968706	00001	2341238	Pointed chisel TE-SX SM 43	8330	0001	           180	PC	PC	000010	680847286	58117335	HLI0550	8300	L09	9999	8330	04.09.2024	01.07.2024	0140	56276851	HLI0550	D315834022	0013315834	            0022	03.06.2024	-21
		4051476731		10330549	4536968710	00001	2254751	Pointed chisel TE-H SM 40	8330	0001	            56	PC	PC	000010	680847293	58117335	HLI0550	8300	L09	9999	8330	04.09.2024	01.07.2024	0010	56278558	HLI0550	D319098003	0013319098	            0003	04.06.2024	       0
		4051476731		10330549	4536968715	00001	2105719	Stud anchor HST3 M12x115 40/20	8330	0001	           150	PC	PC	000010	680847299	58117299	HLI0550	8300	L02	9999	8330	04.09.2024	01.07.2024	0020	56281617	HLI0550	D324076005	0013324076	            0005	07.06.2024	      14
		4051484849		10369021	4537081726	00001	2105895	Stud anchor HST3 M24x230 -/60	8750	0001	            80	PC	PC	000010	680937788	58134739	HLI0550	8750	L02	9999	8750	18.09.2024	22.07.2024	0010	56256109	HLI0550	D273617001	0013273617	            0001	13.05.2024	      50
		4051484849		10369021	4537081733	00001	2105894	Stud anchor HST3 M24x200 -/30	8750	0001	            60	PC	PC	000010	680937795	58135551	HLI0550	8750	L02	9999	8750	18.09.2024	22.07.2024	0010	56283479	HLI0550	D325668001	0013325668	            0001	07.06.2024	      22
		4051484849		10369021	4537081735	00001	2261783	Core bit BI 20/320 SP-L abras	8750	0001	            32	PC	PC	000010	680937797	58135551	HLI0550	8750	L05	9999	8750	18.09.2024	22.07.2024	0100	56284144	HLI0550	D327858005	0013327858	            0005	10.06.2024	      22
		4051484849		10369021	4537081738	00001	2346060	Threaded stud S-BT-MF M10/15 AN 6 HL	8750	0001	           300	PC	PC	000010	680937800	58134710	HLI0550	8750	L10	9999	8750	18.09.2024	22.07.2024	0010	56299156	HLI0550	D354428001	0013354428	            0001	21.06.2024	      22
		4051484849		10369021	4537081739	00001	2156393	Steel nail X-S 14 B3 MX BULK	8750	0001	        18.000	PC	PC	000010	680937801	58134739	HLI0550	8750	L04	9999	8750	18.09.2024	22.07.2024	0030	56302458	HLI0550	D364784006	0013364784	            0006	27.06.2024	-6
		4051490407		10402069	4537152965	00001	2346062	Threaded stud S-BT-MR M8/7 SN 6 HL	8330	0001	           100	PC	PC	000010	680996099	58146169	HLI0550	8300	L10	9999	8330	24.09.2024	05.08.2024	0010	56333731	HLI0550	D426819001	0013426819	            0001	26.07.2024	       0
		4051493064		10415979	4537189632	00001	2254752	Pointed chisel TE-H SM 50	8330	0001	            16	PC	PC	000010	681026071	58151139	HLI0550	8300	L09	9999	8330	01.10.2024	12.08.2024	0080	56291815	HLI0550	D341658006	0013341658	            0006	17.06.2024	       0
		4051493064		10415979	4537189639	00001	2157749	Change module 52 SPX/SP-H abras	8330	0001	             6	PC	PC	000010	681026078	58151139	HLI0550	8300	L05	9999	8330	01.10.2024	12.08.2024	0050	56312176	HLI0550	D386374004	0013386374	            0004	06.07.2024	       0
		4051493064		10415979	4537189641	00001	2217525	Threaded stud X-BT-MR0 M10/15 SN 8	8330	0001	         1.500	PC	PC	000010	681026080	58151139	HLI0550	8300	L04	9999	8330	01.10.2024	12.08.2024	0020	56325372	HLI0550	D412007001	0013412007	            0001	18.07.2024	      14
		4051493064		10415979	4537189653	00001	2158247	Core bit B 202/450 SP-H abras	8330	0001	             1	PC	PC	000010	681026092	58151139	HLI0550	8300	L05	9999	8330	01.10.2024	12.08.2024	0340	56327933	HLI0550	D418058046	0013418058	            0046	22.07.2024	      14
		4051493064		10415979	4537189654	00001	2199633	Core bit BI 25/320 SP-L abras	8330	0001	            16	PC	PC	000010	681026093	58151139	HLI0550	8300	L05	9999	8330	01.10.2024	12.08.2024	0350	56327933	HLI0550	D418058008	0013418058	            0008	22.07.2024	      14
		4051493064		10415979	4537189675	00001	2158228	Core bit B 52/450 SP-H abras	8330	0001	             5	PC	PC	000010	681026112	58151139	HLI0550	8300	L05	9999	8330	01.10.2024	12.08.2024	0180	56335058	HLI0550	D431655005	0013431655	            0005	30.07.2024	       0
		4051493064		10415979	4537189677	00001	236120	Connection end BI (M41)	8330	0001	            90	PC	PC	000010	681026114	58151139	HLI0550	8300	L05	9999	8330	01.10.2024	12.08.2024	0200	56335058	HLI0550	D431655011	0013431655	            0011	30.07.2024	       0
		4051493064		10415979	4537189678	00001	2158347	Change module 182 SPX/SP-H abras	8330	0001	             2	PC	PC	000010	681026115	58151143	HLI0550	8300	L05	9999	8330	01.10.2024	12.08.2024	0230	56335058	HLI0550	D431655004	0013431655	            0004	30.07.2024	       0
		4051493064		10415979	4537189679	00001	2158335	Change module 82 SPX/SP-H abras	8330	0001	            24	PC	PC	000010	681026116	58151139	HLI0550	8300	L05	9999	8330	01.10.2024	12.08.2024	0240	56335058	HLI0550	D431655023	0013431655	            0023	30.07.2024	       0
		4051493064		10415979	4537189680	00001	2158340	Change module 112 SPX/SP-H abras	8330	0001	            42	PC	PC	000010	681026117	58151139	HLI0550	8300	L05	9999	8330	01.10.2024	12.08.2024	0290	56335058	HLI0550	D431655025	0013431655	            0025	30.07.2024	       0
		4051493064		10415979	4537189681	00001	2185631	Core bit B 62/320 SP-L abras	8330	0001	             1	PC	PC	000010	681026118	58151143	HLI0550	8300	L05	9999	8330	01.10.2024	12.08.2024	0310	56335058	HLI0550	D431655017	0013431655	            0017	30.07.2024	-7
		4051493064		10415979	4537189682	00001	2185631	Core bit B 62/320 SP-L abras	8330	0001	             3	PC	PC	000010	681026119	58151139	HLI0550	8300	L05	9999	8330	01.10.2024	12.08.2024	0310	56335058	HLI0550	D431655017	0013431655	            0017	30.07.2024	-7
		4051493064		10415979	4537189683	00001	2185633	Core bit B 72/320 SP-L abras	8330	0001	             1	PC	PC	000010	681026120	58151143	HLI0550	8300	L05	9999	8330	01.10.2024	12.08.2024	0320	56335058	HLI0550	D431655037	0013431655	            0037	30.07.2024	-35
		4051493064		10415979	4537189684	00001	2185633	Core bit B 72/320 SP-L abras	8330	0001	             3	PC	PC	000010	681026121	58151139	HLI0550	8300	L05	9999	8330	01.10.2024	12.08.2024	0320	56335058	HLI0550	D431655037	0013431655	            0037	30.07.2024	-35
		4051493064		10415979	4537189685	00001	2199633	Core bit BI 25/320 SP-L abras	8330	0001	             8	PC	PC	000010	681026122	58151139	HLI0550	8300	L05	9999	8330	01.10.2024	12.08.2024	0350	56335058	HLI0550	D431655035	0013431655	            0035	30.07.2024	       0
		4051493064		10415979	4537189687	00001	2254659	Pointed chisel TE-HX SM 40 (4)	8330	0001	             4	PC	PC	000010	681026124	58151139	HLI0550	8300	L09	9999	8330	01.10.2024	12.08.2024	0020	56336377	HLI0550	D434327008	0013434327	            0008	30.07.2024	       0
		4051493064		10415979	4537189696	00001	2217525	Threaded stud X-BT-MR0 M10/15 SN 8	8330	0001	           900	PC	PC	000010	681026132	58151143	HLI0550	8300	L04	9999	8330	01.10.2024	12.08.2024	0010	56338751	HLI0550	D436040001	0013436040	            0001	31.07.2024	       0
		4051462463		10259187	4536776837	00001	2261724	Core bit B 52/430+ P-U abras	8330	0001	             8	PC	PC	000010	680689144	58085695	HLI0550	8300	L05	9999	8330	14.08.2024	27.05.2024	0320	56172000	HLI0550	D102673066	0013102673	            0066	23.02.2024	      42
		4051462463		10259187	4536776838	00001	2261724	Core bit B 52/430+ P-U abras	8330	0001	            16	PC	PC	000010	680689145	58085733	HLI0550	8300	L05	9999	8330	14.08.2024	27.05.2024	0320	56172000	HLI0550	D102673066	0013102673	            0066	23.02.2024	      42
		4051462463		10259187	4536776839	00001	2242387	Diamond cup DG-CW 125/5" P (6) univ	8330	0001	           162	PC	PC	000010	680689146	58085695	HLI0550	8300	L05	9999	8330	14.08.2024	27.05.2024	0020	56197206	HLI0550	D155575002	0013155575	            0002	18.03.2024	      28
		4051462463		10259187	4536776840	00001	2242387	Diamond cup DG-CW 125/5" P (6) univ	8330	0001	            36	PC	PC	000010	680689147	58085733	HLI0550	8300	L05	9999	8330	14.08.2024	27.05.2024	0020	56197206	HLI0550	D155575002	0013155575	            0002	18.03.2024	      28
		4051462463		10259187	4536776844	00001	2261727	Core bit B 77/430+ P-U abras	8330	0001	             2	PC	PC	000010	680689151	58085684	HLI0550	8300	L05	9999	8330	14.08.2024	27.05.2024	0330	56210141	HLI0550	D180164013	0013180164	            0013	29.03.2024	      42
		4051462463		10259187	4536776847	00001	2261727	Core bit B 77/430+ P-U abras	8330	0001	             2	PC	PC	000010	680689154	58085684	HLI0550	8300	L05	9999	8330	14.08.2024	27.05.2024	0360	56210141	HLI0550	D180164013	0013180164	            0013	29.03.2024	      42
		4051462463		10259187	4536776848	00001	2261745	Change module 112 P-U abras	8330	0001	            30	PC	PC	000010	680689156	58085696	HLI0550	8300	L05	9999	8330	14.08.2024	27.05.2024	0030	56215639	HLI0550	D194620001	0013194620	            0001	04.04.2024	       0
		4051462463		10259187	4536776849	00001	2261745	Change module 112 P-U abras	8330	0001	            12	PC	PC	000010	680689157	58085703	HLI0550	8300	L05	9999	8330	14.08.2024	27.05.2024	0030	56215639	HLI0550	D194620001	0013194620	            0001	04.04.2024	       0
		4051462463		10259187	4536776864	00001	305448	Piston X-6-5-PGR	8330	0001	             1	PC	PC	000010	680689169	58085684	HLI0550	8300	L04	9999	8330	14.08.2024	27.05.2024	0330	56223179	HLI0550	D209186037	0013209186	            0037	11.04.2024	       0
		4051462463		10259187	4536776873	00001	2064703	Breaker TE 800-AVR 220V	8330	0001	            11	PC	PC	000010	680689178	58084687	HLI0550	8300	L08	9999	8330	14.08.2024	27.05.2024	0060	56226152	HLI0550	D216927008	0013216927	            0008	15.04.2024	       0
		4051462463		10259187	4536776874	00001	2064703	Breaker TE 800-AVR 220V	8330	0001	            11	PC	PC	000010	680689179	58084688	HLI0550	8300	L08	9999	8330	14.08.2024	27.05.2024	0060	56226152	HLI0550	D216927008	0013216927	            0008	15.04.2024	       0
		4051462463		10259187	4536776882	00001	305448	Piston X-6-5-PGR	8330	0001	             1	PC	PC	000010	680689187	58085684	HLI0550	8300	L04	9999	8330	14.08.2024	27.05.2024	0180	56231499	HLI0550	D225259006	0013225259	            0006	19.04.2024	       0
		4051462463		10259187	4536776900	00001	2261736	Core bit B 162/430+ P-U abras	8330	0001	            18	PC	PC	000010	680689203	58084556	HLI0550	8300	L05	9999	8330	14.08.2024	27.05.2024	0030	56235157	HLI0550	D233040011	0013233040	            0011	23.04.2024	      14
		4051462463		10259187	4536776906	00001	2270778	Diamond cup DG-CW 150/6" SPX univ	8330	0001	             5	PC	PC	000010	680689208	58085692	HLI0550	8300	L05	9999	8330	14.08.2024	27.05.2024	0020	56239648	HLI0550	D239966007	0013239966	            0007	26.04.2024	      21
		4051462463		10259187	4536776907	00001	2270778	Diamond cup DG-CW 150/6" SPX univ	8330	0001	             5	PC	PC	000010	680689209	58085733	HLI0550	8300	L05	9999	8330	14.08.2024	27.05.2024	0020	56239648	HLI0550	D239966007	0013239966	            0007	26.04.2024	      21
		4051462463		10259187	4536776911	00001	2357233	Diamond cup wheel 125/5" SPX turbo A	8330	0001	             1	PC	PC	000010	680689213	58085684	HLI0550	8300	L05	9999	8330	14.08.2024	27.05.2024	0050	56242880	HLI0550	D246261004	0013246261	            0004	30.04.2024	      14
		4051462463		10259187	4536776917	00001	2194554	Cutting disc EQD SPX-SL 150 (2) univ	8330	0001	            10	PC	PC	000010	680689219	58085695	HLI0550	8300	L05	9999	8330	14.08.2024	27.05.2024	0270	56252183	HLI0550	D266169010	0013266169	            0010	09.05.2024	       8
		4051462463		10259187	4536776918	00001	2194554	Cutting disc EQD SPX-SL 150 (2) univ	8330	0001	             2	PC	PC	000010	680689220	58085684	HLI0550	8300	L05	9999	8330	14.08.2024	27.05.2024	0270	56252183	HLI0550	D266169010	0013266169	            0010	09.05.2024	       8
		4051462463		10259187	4536776919	00001	2117878	Cutting disc SP-S 305/22 univ	8330	0001	             3	PC	PC	000010	680689221	58085684	HLI0550	8300	L05	9999	8330	14.08.2024	27.05.2024	0290	56252183	HLI0550	D266169058	0013266169	            0058	09.05.2024	       8
		4051462463		10259187	4536776921	00001	2294502	Stud holder X-SH F3-MIX	8330	0001	             1	PC	PC	000010	680689223	58085684	HLI0550	8300	L04	9999	8330	14.08.2024	27.05.2024	0370	56252183	HLI0550	D266169038	0013266169	            0038	09.05.2024	       8
		4051462463		10259187	4536776923	00001	2238576	Diamond cup DG-CW 115/4.5" P (2) univ	8330	0001	           252	PC	PC	000010	680689225	58085713	HLI0550	8300	L05	9999	8330	14.08.2024	27.05.2024	0100	56252831	HLI0550	D267052006	0013267052	            0006	10.05.2024	       8
		4051462463		10259187	4536776935	00001	2107708	Circ. saw blade SCB WU 190x30 z18 (5)	8330	0001	             5	PC	PC	000010	680689239	58085684	HLI0550	8300	L09	9999	8330	14.08.2024	27.05.2024	0120	56255403	HLI0550	D273742001	0013273742	            0001	13.05.2024	       8
		4051462463		10259187	4536776936	00001	2349161	Grating disc X-FCM-R 48/53	8330	0001	           100	PC	PC	000010	680689241	58085684	HLI0550	8300	L04	9999	8330	14.08.2024	27.05.2024	0030	56255418	HLI0550	D273729008	0013273729	            0008	13.05.2024	       8
		4051462463		10259187	4536776941	00001	282987	Chuck DD-CS-BL	8330	0001	             6	PC	PC	000010	680689250	58085695	HLI0550	8300	L05	9999	8330	14.08.2024	27.05.2024	0090	56255418	HLI0550	D273729002	0013273729	            0002	13.05.2024	       8
		4051462463		10259187	4536776948	00001	2314529	Batt.-actuated tool BX 3-L-22 case	8330	0001	             9	PC	PC	000010	680689260	58084400	HLI0550	8300	L04	9999	8330	14.08.2024	27.05.2024	0010	56256049	HLI0550	D264364014	0013264364	            0014	08.05.2024	       8
		4051462463		10259187	4536776949	00001	2314529	Batt.-actuated tool BX 3-L-22 case	8330	0001	             9	PC	PC	000010	680689261	58084837	HLI0550	8300	L04	9999	8330	14.08.2024	27.05.2024	0010	56256049	HLI0550	D264364014	0013264364	            0014	08.05.2024	       8
		4051462463		10259187	4536776951	00001	2197626	Fastener guide X-FG B3-BT M	8330	0001	             3	PC	PC	000010	680689262	58085695	HLI0550	8300	L04	9999	8330	14.08.2024	27.05.2024	0010	56256050	HLI0550	D266169059	0013266169	            0059	09.05.2024	       8
		4051462464		10259187	4536776957	00001	2179726	Recip. saw blade SP 30 10 (5) metal	8330	0001	             5	PC	PC	000010	680689267	58085693	HLI0550	8300	L09	9999	8330	14.08.2024	27.05.2024	0160	56219015	HLI0550	D202547031	0013202547	            0031	08.04.2024	       0
		4051462464		10259187	4536776960	00001	2179726	Recip. saw blade SP 30 10 (5) metal	8330	0001	             5	PC	PC	000010	680689270	58085693	HLI0550	8300	L09	9999	8330	14.08.2024	27.05.2024	0060	56232777	HLI0550	D226779011	0013226779	            0011	19.04.2024	       0
		4051462464		10259187	4536776961	00001	2179726	Recip. saw blade SP 30 10 (5) metal	8330	0001	             5	PC	PC	000010	680689271	58085693	HLI0550	8300	L09	9999	8330	14.08.2024	27.05.2024	0070	56247267	HLI0550	D256012014	0013256012	            0014	03.05.2024	       0
		4051462464		10259187	4536776962	00001	2179726	Recip. saw blade SP 30 10 (5) metal	8330	0001	             5	PC	PC	000010	680689272	58085693	HLI0550	8300	L09	9999	8330	14.08.2024	27.05.2024	0030	56250489	HLI0550	D263296004	0013263296	            0004	07.05.2024	       0
		4051462464		10259187	4536776963	00001	2179726	Recip. saw blade SP 30 10 (5) metal	8330	0001	             5	PC	PC	000010	680689273	58085693	HLI0550	8300	L09	9999	8330	14.08.2024	27.05.2024	0080	56255403	HLI0550	D273742013	0013273742	            0013	13.05.2024	       8
		4051462464		10259187	4536776964	00001	2179726	Recip. saw blade SP 30 10 (5) metal	8330	0001	             5	PC	PC	000010	680689274	58085693	HLI0550	8300	L09	9999	8330	14.08.2024	27.05.2024	0100	56255403	HLI0550	D273742015	0013273742	            0015	13.05.2024	       0
		4051470945		10300740	4536890041	00001	2270778	Diamond cup DG-CW 150/6" SPX univ	8330	0001	            30	PC	PC	000010	680781762	58103029	HLI0550	8300	L05	9999	8330	02.09.2024	17.06.2024	0060	56274032	HLI0550	D304811029	0013304811	            0029	30.05.2024	       0
		4051470945		10300740	4536890070	00001	304125	Bracket MQK-21 D/450-F	8330	0001	            40	PC	PC	000010	680781777	58103029	HLI0550	8300	L06	9999	8330	02.09.2024	17.06.2024	0010	56278565	HLI0550	D319584006	0013319584	            0006	04.06.2024	       0
		4051470945		10300740	4536890090	00001	2150701	Cutting disc AC-D SP 115x1.0	8330	0001	         2.700	PC	PC	000010	680781787	58103028	HLI0550	8300	L09	9999	8330	02.09.2024	17.06.2024	0020	56283094	HLI0550	D325805007	0013325805	            0007	08.06.2024	       0
		4051470947		10300740	4536890194	00001	2133384	Firestop wrap strip CFS-W P	8330	0001	           240	PC	PC	000010	680781839	58104214	HLI0550	8300	L03	9999	8330	02.09.2024	17.06.2024	0020	56254796	HLI0550	D256625005	0013256625	            0005	03.05.2024	       0
		4051470947		10300740	4536890201	00001	2151626	Hammer drill bit TE-CX 12/17	8330	0001	            45	PC	PC	000010	680781842	58104427	HLI0550	8300	L09	9999	8330	02.09.2024	17.06.2024	0010	56257322	HLI0550	D276539002	0013276539	            0002	14.05.2024	       0
		4051470947		10300740	4536890207	00001	305448	Piston X-6-5-PGR	8330	0001	             1	PC	PC	000010	680781845	58104427	HLI0550	8300	L04	9999	8330	02.09.2024	17.06.2024	0080	56261542	HLI0550	D282817006	0013282817	            0006	18.05.2024	       7
		4051470947		10300740	4536890220	00001	2273697	Girder end cap MT-EC-70	8330	0001	            50	PC	PC	000010	680781849	58104427	HLI0550	8300	L14	9999	8330	02.09.2024	17.06.2024	0070	56261552	HLI0550	D282309007	0013282309	            0007	18.05.2024	      21
		4051470947		10300740	4536890236	00001	2378831	Remote contr./laser rec. PRA 300	8330	0001	             1	PC	PC	000010	680781855	58104427	HLI0550	8300	L07	9999	8330	02.09.2024	17.06.2024	0020	56264815	HLI0550	D282817021	0013282817	            0021	18.05.2024	      21
		4051470947		10300740	4536890239	00001	2378831	Remote contr./laser rec. PRA 300	8330	0001	             1	PC	PC	000010	680781857	58104427	HLI0550	8300	L07	9999	8330	02.09.2024	17.06.2024	0010	56265082	HLI0550	D258082001	0013258082	            0001	06.05.2024	      35
		4051473646		10310999	4536929347	00001	2261682	Core bit B 62/430 P-U abras	8750	0001	            24	PC	PC	000010	680814147	58111205	HLI0550	8750	L05	9999	8750	26.08.2024	24.06.2024	0010	56197208	HLI0550	D155577001	0013155577	            0001	18.03.2024	       0
		4051473646		10310999	4536929350	00001	2238580	Diamond cup DG-CW 115/4.5" P (6) univ	8750	0001	            24	PC	PC	000010	680814149	58111125	HLI0550	8750	L05	9999	8750	26.08.2024	24.06.2024	0020	56231482	HLI0550	D224993004	0013224993	            0004	19.04.2024	      56
		4051473646		10310999	4536929376	00001	2341093	Hammer drill bit TE-CX 1/2"-12"	8750	0001	             5	PC	PC	000010	680814173	58111304	HLI0550	8750	L09	9999	8750	26.08.2024	24.06.2024	0020	56248891	HLI0550	D260624003	0013260624	            0003	06.05.2024	       0
		4051473646		10310999	4536929379	00001	2253115	Cordl. combihammer TE 30-22 case	8750	0001	             1	PC	PC	000010	680814176	58111207	HLI0550	8750	L15	9999	8750	26.08.2024	24.06.2024	0030	56248891	HLI0550	D260624005	0013260624	            0005	06.05.2024	       0
		4051473646		10310999	4536929388	00001	2261695	Core bit B 162/430 P-U abras	8750	0001	            12	PC	PC	000010	680814187	58111206	HLI0550	8750	L05	9999	8750	26.08.2024	24.06.2024	0010	56250899	HLI0550	D264366005	0013264366	            0005	08.05.2024	      28
		4051473646		10310999	4536929395	00001	2261693	Core bit B 132/430 P-U abras	8750	0001	            12	PC	PC	000010	680814197	58111303	HLI0550	8750	L05	9999	8750	26.08.2024	24.06.2024	0010	56257872	HLI0550	D276913001	0013276913	            0001	15.05.2024	       0
		4051473646		10310999	4536929396	00001	2261684	Core bit B 77/430 P-U abras	8750	0001	             6	PC	PC	000010	680814199	58112057	HLI0550	8750	L05	9999	8750	26.08.2024	24.06.2024	0020	56257872	HLI0550	D276913002	0013276913	            0002	15.05.2024	       0
		4051473646		10310999	4536929398	00001	263439	Holder TE-Y	8750	0001	             5	PC	PC	000010	680814201	58112017	HLI0550	8750	L01	9999	8750	26.08.2024	24.06.2024	0030	56261359	HLI0550	D282267006	0013282267	            0006	17.05.2024	       0
		4051473646		10310999	4536929401	00001	2229036	Breaker TE 3000-AVR 220V	8750	0001	             5	PC	PC	000010	680814204	58111204	HLI0550	8750	L08	9999	8750	26.08.2024	24.06.2024	0010	56261405	HLI0550	D282807001	0013282807	            0001	17.05.2024	       0
		4051473646		10310999	4536929403	00001	2150701	Cutting disc AC-D SP 115x1.0	8750	0001	           250	PC	PC	000010	680814205	58111125	HLI0550	8750	L09	9999	8750	26.08.2024	24.06.2024	0030	56261405	HLI0550	D282807003	0013282807	            0003	17.05.2024	       0
		4051473646		10310999	4536929416	00001	2233575	Dia blade 230/22 (6) P univ	8750	0001	            48	PC	PC	000010	680814213	58112064	HLI0550	8750	L05	9999	8750	26.08.2024	24.06.2024	0020	56265711	HLI0550	D289571001	0013289571	            0001	22.05.2024	       0
		4051473646		10310999	4536929419	00001	2238266	Diamond cup DG-CW 125/5" P (2) univ	8750	0001	             2	PC	PC	000010	680814214	58111304	HLI0550	8750	L05	9999	8750	26.08.2024	24.06.2024	0010	56269746	HLI0550	D297293001	0013297293	            0001	27.05.2024	       0
		4051473646		10310999	4536929421	00001	2335638	Storage wheel DSW-W 200 serv. set	8750	0001	             1	PC	PC	000010	680814215	58111304	HLI0550	8750	L12	9999	8750	26.08.2024	24.06.2024	0010	56270147	HLI0550	D298013001	0013298013	            0001	28.05.2024	       0
		4051473646		10310999	4536929428	00001	74068	Adapter TE-FY-BA-C assy	8750	0001	             2	PC	PC	000010	680814220	58111304	HLI0550	8750	L08	9999	8750	26.08.2024	24.06.2024	0020	56273968	HLI0550	D304630004	0013304630	            0004	30.05.2024	       0
		4051473646		10310999	4536929434	00001	2136473	Impact socket SI-S 3/4"-24 L	8750	0001	            10	PC	PC	000010	680814225	58112017	HLI0550	8750	L09	9999	8750	26.08.2024	24.06.2024	0030	56284227	HLI0550	D328228006	0013328228	            0006	10.06.2024	       0
		4051473646		10310999	4536929438	00001	220929	Core bit extension DD-BI-ET300	8750	0001	             1	PC	PC	000010	680814228	58112017	HLI0550	8750	L05	9999	8750	26.08.2024	24.06.2024	0040	56290256	HLI0550	D337865001	0013337865	            0001	14.06.2024	       0
		4051473653		10315217	4536930178	00001	2238576	Diamond cup DG-CW 115/4.5" P (2) univ	8330	0001	            48	PC	PC	000010	680814960	58111848	HLI0550	8300	L05	9999	8330	10.09.2024	24.06.2024	0020	56280857	HLI0550	D322855002	0013322855	            0002	06.06.2024	       0
		4051473654		10315217	4536930251	00001	305940	Jack screw DD-HD30-SL	8330	0001	             1	PC	PC	000010	680815018	58111124	HLI0550	8300	L05	9999	8330	10.09.2024	24.06.2024	0160	56290257	HLI0550	D337863001	0013337863	            0001	14.06.2024	       0
		4051473654		10315217	4536930252	00001	2052753	Chuck TE-C/TE 30 (02)	8330	0001	            32	PC	PC	000010	680815019	58111124	HLI0550	8300	L08	9999	8330	10.09.2024	24.06.2024	0010	56290280	HLI0550	D337829001	0013337829	            0001	15.06.2024	       0
		4051473655		10315217	4536930291	00001	2238576	Diamond cup DG-CW 115/4.5" P (2) univ	8330	0001	           756	PC	PC	000010	680815055	58111195	HLI0550	8300	L05	9999	8330	10.09.2024	24.06.2024	0020	56263500	HLI0550	D285912002	0013285912	            0002	21.05.2024	       7
		4051476731		10330549	4536968667	00001	293027	Hammer drill bit TE-YX 1 1/4"-36"	8330	0001	             8	PC	PC	000010	680847251	58117469	HLI0550	8300	L09	9999	8330	04.09.2024	01.07.2024	0120	56270007	HLI0550	D298389001	0013298389	            0001	27.05.2024	-7
		4051476731		10330549	4536968700	00001	251834	Quick-locking nut DD-CN-SML	8330	0001	             7	PC	PC	000010	680847278	58117299	HLI0550	8300	L05	9999	8330	04.09.2024	01.07.2024	0430	56274048	HLI0550	D304711068	0013304711	            0068	30.05.2024	       0
		4051476731		10330549	4536968704	00001	2242387	Diamond cup DG-CW 125/5" P (6) univ	8330	0001	            72	PC	PC	000010	680847284	58117299	HLI0550	8300	L05	9999	8330	04.09.2024	01.07.2024	0040	56275166	HLI0550	D306005005	0013306005	            0005	01.06.2024	      21
		4051476731		10330549	4536968725	00001	2253099	Cordl. combihammer TE 60-22 case	8330	0001	             1	PC	PC	000010	680847311	58117294	HLI0550	8300	L15	9999	8330	04.09.2024	01.07.2024	0020	56284217	HLI0550	D328226004	0013328226	            0004	10.06.2024	       0
		4051483650		10367403	4537061276	00001	2150735	Cutting disc AC-D SP 230x1.8	8750	0001	            50	PC	PC	000010	680921280	58132215	HLI0550	8750	L09	9999	8750	20.08.2024	17.07.2024	0010	56302238	HLI0550	D364225001	0013364225	            0001	26.06.2024	       0
		4051483650		10367403	4537061281	00001	2121386	Filter VC 20/40 dry	8750	0001	            10	PC	PC	000010	680921285	58132215	HLI0550	8750	L05	9999	8750	20.08.2024	17.07.2024	0010	56305156	HLI0550	D367239002	0013367239	            0002	28.06.2024	       0
		4051483650		10367403	4537061282	00001	2331842	Mixing paddle NMX-MP 120 M14	8750	0001	            12	PC	PC	000010	680921286	58132234	HLI0550	8750	L15	9999	8750	20.08.2024	17.07.2024	0010	56317986	HLI0550	D397416002	0013397416	            0002	11.07.2024	       0
		4051484849		10369021	4537081722	00001	2349149	Grating disc X-FCM 32/37	8750	0001	         2.400	PC	PC	000010	680937784	58133694	HLI0550	8750	L04	9999	8750	18.09.2024	22.07.2024	0040	56250899	HLI0550	D264366004	0013264366	            0004	08.05.2024	      50
		4051484849		10369021	4537081740	00001	2261683	Core bit B 72/430 P-U abras	8750	0001	            12	PC	PC	000010	680937802	58134739	HLI0550	8750	L05	9999	8750	18.09.2024	22.07.2024	0090	56302458	HLI0550	D364784018	0013364784	            0018	27.06.2024	-6
		4051484849		10369021	4537081748	00001	2349153	Grating disc X-FCM-F 28/33	8750	0001	           900	PC	PC	000010	680937807	58135551	HLI0550	8750	L04	9999	8750	18.09.2024	22.07.2024	0050	56318108	HLI0550	D398034005	0013398034	            0005	11.07.2024	-6
		4051484849		10369021	4537081753	00001	2273698	Girder end cap MT-EC-80	8750	0001	           150	PC	PC	000010	680937810	58134710	HLI0550	8750	L14	9999	8750	18.09.2024	22.07.2024	0010	56319376	HLI0550	D399238001	0013399238	            0001	12.07.2024	       0
		4051490407		10402069	4537152865	00001	2150701	Cutting disc AC-D SP 115x1.0	8330	0001	         2.700	PC	PC	000010	680996052	58146835	HLI0550	8300	L09	9999	8330	24.09.2024	05.08.2024	0010	56308210	HLI0550	D380372001	0013380372	            0001	02.07.2024	       0
		4051490407		10402069	4537152871	00001	2261799	Core bit B 82/430+ P-U abras	8330	0001	            16	PC	PC	000010	680996058	58146835	HLI0550	8300	L05	9999	8330	24.09.2024	05.08.2024	0050	56313180	HLI0550	D388924005	0013388924	            0005	08.07.2024	       7
		4051490407		10402069	4537152892	00001	2197626	Fastener guide X-FG B3-BT M	8330	0001	             3	PC	PC	000010	680996066	58146170	HLI0550	8300	L04	9999	8330	24.09.2024	05.08.2024	0040	56325388	HLI0550	D412014004	0013412014	            0004	18.07.2024	       7
		4051490407		10402069	4537152904	00001	2261727	Core bit B 77/430+ P-U abras	8330	0001	            12	PC	PC	000010	680996071	58146170	HLI0550	8300	L05	9999	8330	24.09.2024	05.08.2024	0010	56327394	HLI0550	D416047001	0013416047	            0001	22.07.2024	       7
		4051490407		10402069	4537152909	00001	2197625	Fastener guide X-FG B3-BTG	8330	0001	             2	PC	PC	000010	680996073	58146170	HLI0550	8300	L04	9999	8330	24.09.2024	05.08.2024	0270	56327933	HLI0550	D418058009	0013418058	            0009	22.07.2024	       7
		4051490407		10402069	4537152916	00001	2151636	Hammer drill bit TE-CX 14/27	8330	0001	           120	PC	PC	000010	680996076	58146170	HLI0550	8300	L09	9999	8330	24.09.2024	05.08.2024	0010	56329452	HLI0550	D421007001	0013421007	            0001	23.07.2024	       0
		4051490407		10402069	4537152925	00001	2030020	Firestop block CFS-BL	8330	0001	            20	PC	PC	000010	680996079	58146170	HLI0550	8300	L03	9999	8330	24.09.2024	05.08.2024	0020	56329488	HLI0550	D421027009	0013421027	            0009	23.07.2024	       0
		4051490407		10402069	4537152927	00001	2261727	Core bit B 77/430+ P-U abras	8330	0001	             6	PC	PC	000010	680996080	58146170	HLI0550	8300	L05	9999	8330	24.09.2024	05.08.2024	0010	56330292	HLI0550	D422110001	0013422110	            0001	24.07.2024	       0
		4051490407		10402069	4537152936	00001	2030020	Firestop block CFS-BL	8330	0001	            20	PC	PC	000010	680996084	58146170	HLI0550	8300	L03	9999	8330	24.09.2024	05.08.2024	0010	56332099	HLI0550	D425264002	0013425264	            0002	25.07.2024	       0
		4051490407		10402069	4537152940	00001	409176	Hammer drill bit TE-CX 8/17	8330	0001	            15	PC	PC	000010	680996087	58146169	HLI0550	8300	L09	9999	8330	24.09.2024	05.08.2024	0040	56332099	HLI0550	D425264012	0013425264	            0012	25.07.2024	       0
		4051490407		10402069	4537152941	00001	2075120	Firestop collar endless CFS-C EL	8330	0001	             1	PC	PC	000010	680996088	58146169	HLI0550	8300	L03	9999	8330	24.09.2024	05.08.2024	0050	56332099	HLI0550	D425264014	0013425264	            0014	25.07.2024	       0
		4051490407		10402069	4537152942	00001	2014864	Filler module CFS-T FB 15/0	8330	0001	            96	PC	PC	000010	680996089	58146169	HLI0550	8300	L03	9999	8330	24.09.2024	05.08.2024	0060	56332099	HLI0550	D425264008	0013425264	            0008	25.07.2024	       0
		4051490407		10402069	4537152944	00001	2060568	Cable module CFS-T 60/34-51	8330	0001	             4	PC	PC	000010	680996090	58146169	HLI0550	8300	L03	9999	8330	24.09.2024	05.08.2024	0070	56332099	HLI0550	D425264010	0013425264	            0010	25.07.2024	       0
		4051490407		10402069	4537152945	00001	2020707	Wedge compr. kit CFS-T WD 120 EMC GS	8330	0001	             8	PC	PC	000010	680996091	58146170	HLI0550	8300	L03	9999	8330	24.09.2024	05.08.2024	0080	56332099	HLI0550	D425264013	0013425264	            0013	25.07.2024	       0
		4051490407		10402069	4537152948	00001	2014892	Plug seal CFS-T RR-100 GS	8330	0001	             2	PC	PC	000010	680996092	58146169	HLI0550	8300	L03	9999	8330	24.09.2024	05.08.2024	0100	56332099	HLI0550	D425264016	0013425264	            0016	25.07.2024	       0
		4051490407		10402069	4537152951	00001	2233910	Anchor plate CFS-T FAP 120 GS	8330	0001	            10	PC	PC	000010	680996093	58146169	HLI0550	8300	L03	9999	8330	24.09.2024	05.08.2024	0110	56332099	HLI0550	D425264018	0013425264	            0018	25.07.2024	       0
		4051490407		10402069	4537152953	00001	2042703	Cable module CFS-T EX 40/0+23-33	8330	0001	             9	PC	PC	000010	680996094	58146169	HLI0550	8300	L03	9999	8330	24.09.2024	05.08.2024	0120	56332099	HLI0550	D425264017	0013425264	            0017	25.07.2024	       0
		4051490407		10402069	4537152955	00001	2042702	Cable module CFS-T EX  30/0+13-23	8330	0001	            16	PC	PC	000010	680996095	58146169	HLI0550	8300	L03	9999	8330	24.09.2024	05.08.2024	0130	56332099	HLI0550	D425264020	0013425264	            0020	25.07.2024	       0
		4051490407		10402069	4537152961	00001	2349160	Grating disc X-FCM-R 38/43	8330	0001	           900	PC	PC	000010	680996097	58146170	HLI0550	8300	L04	9999	8330	24.09.2024	05.08.2024	0050	56333379	HLI0550	D426673002	0013426673	            0002	27.07.2024	       0
		4051490407		10402069	4537152968	00001	2361743	Circ. saw blade SCBW WUR SPX 165 A (5)	8330	0001	             5	PC	PC	000010	680996100	58146169	HLI0550	8300	L09	9999	8330	24.09.2024	05.08.2024	0010	56333882	HLI0550	D426804001	0013426804	            0001	26.07.2024	       0
		4051493064		10415979	4537189631	00001	2150732	Cutting disc AC-D SP 180x1.5	8330	0001	         1.200	PC	PC	000010	681026070	58152067	HLI0550	8300	L09	9999	8330	01.10.2024	12.08.2024	0070	56291815	HLI0550	D341658012	0013341658	            0012	17.06.2024	       0
		4051493064		10415979	4537189637	00001	305539	Spacer DD-HD30-SP	8330	0001	             1	PC	PC	000010	681026076	58151139	HLI0550	8300	L05	9999	8330	01.10.2024	12.08.2024	0170	56302477	HLI0550	D364670007	0013364670	            0007	27.06.2024	      35
		4051493064		10415979	4537189662	00001	2261816	Change module 132 P-U abras	8330	0001	            30	PC	PC	000010	681026100	58151139	HLI0550	8300	L05	9999	8330	01.10.2024	12.08.2024	0050	56335058	HLI0550	D431655026	0013431655	            0026	30.07.2024	       0
		4051493064		10415979	4537189664	00001	2278640	Filter VC 20/40/150-X dry	8330	0001	             6	PC	PC	000010	681026102	58151566	HLI0550	8300	L05	9999	8330	01.10.2024	12.08.2024	0070	56335058	HLI0550	D431655028	0013431655	            0028	30.07.2024	       0
		4051493064		10415979	4537189665	00001	2118046	Cutting disc EQD SPX-SL125 (2) univ	8330	0001	             2	PC	PC	000010	681026103	58151143	HLI0550	8300	L05	9999	8330	01.10.2024	12.08.2024	0090	56335058	HLI0550	D431655032	0013431655	            0032	30.07.2024	       0
		4051493064		10415979	4537189666	00001	2149245	Nut setter S-NS 15 C 95/3 1/4"	8330	0001	             4	PC	PC	000010	681026104	58151143	HLI0550	8300	L10	9999	8330	01.10.2024	12.08.2024	0100	56335058	HLI0550	D431655033	0013431655	            0033	30.07.2024	       0
		4051493064		10415979	4537189667	00001	274087	Electr. cable clamp X-EKSC 25 MX	8330	0001	           100	PC	PC	000010	681026105	58151143	HLI0550	8300	L04	9999	8330	01.10.2024	12.08.2024	0110	56335058	HLI0550	D431655036	0013431655	            0036	30.07.2024	       0
		4051493064		10415979	4537189668	00001	274087	Electr. cable clamp X-EKSC 25 MX	8330	0001	           400	PC	PC	000010	681026106	58151139	HLI0550	8300	L04	9999	8330	01.10.2024	12.08.2024	0110	56335058	HLI0550	D431655036	0013431655	            0036	30.07.2024	       0
		4051493064		10415979	4537189669	00001	2357233	Diamond cup wheel 125/5" SPX turbo A	8330	0001	             2	PC	PC	000010	681026107	58151143	HLI0550	8300	L05	9999	8330	01.10.2024	12.08.2024	0130	56335058	HLI0550	D431655039	0013431655	            0039	30.07.2024	       0
		4051493064		10415979	4537189670	00001	2357233	Diamond cup wheel 125/5" SPX turbo A	8330	0001	             8	PC	PC	000010	681026108	58151139	HLI0550	8300	L05	9999	8330	01.10.2024	12.08.2024	0130	56335058	HLI0550	D431655039	0013431655	            0039	30.07.2024	       0
		4051493064		10415979	4537189671	00001	2027859	Vacuum baseplate DD-ST-VBP 120/160	8330	0001	             1	PC	PC	000010	681026109	58151139	HLI0550	8300	L12	9999	8330	01.10.2024	12.08.2024	0150	56335058	HLI0550	D431655030	0013431655	            0030	30.07.2024	       0
		4051493064		10415979	4537189672	00001	2101258	Fastener guide X-FG B3-ME packed	8330	0001	             2	PC	PC	000010	681026110	58151143	HLI0550	8300	L04	9999	8330	01.10.2024	12.08.2024	0160	56335058	HLI0550	D431655001	0013431655	            0001	30.07.2024	       0
		4051493064		10415979	4537189674	00001	333629	Jack screw DD-LR-CLS	8330	0001	             2	PC	PC	000010	681026111	58151143	HLI0550	8300	L05	9999	8330	01.10.2024	12.08.2024	0170	56335058	HLI0550	D431655003	0013431655	            0003	30.07.2024	       0
		4051493064		10415979	4537189676	00001	215196	Starting aid DD 110-D DD-SA-RK M27	8330	0001	            14	PC	PC	000010	681026113	58151143	HLI0550	8300	L05	9999	8330	01.10.2024	12.08.2024	0190	56335058	HLI0550	D431655006	0013431655	            0006	30.07.2024	       0
		4051493064		10415979	4537189686	00001	2161914	Carbon brush AG 100_115 -S/D	8330	0001	            10	PC	PC	000010	681026123	58151143	HLI0550	8300	L08	9999	8330	01.10.2024	12.08.2024	0010	56336377	HLI0550	D434327002	0013434327	            0002	30.07.2024	       0
		4051493064		10415979	4537189689	00001	2150706	Cutting disc AC-D SP 125x1.6	8330	0001	            50	PC	PC	000010	681026126	58151139	HLI0550	8300	L09	9999	8330	01.10.2024	12.08.2024	0040	56336377	HLI0550	D434327011	0013434327	            0011	30.07.2024	       0
		4051493064		10415979	4537189692	00001	2165749	Hammer drill bit TE-YX 3/4"-13"	8330	0001	            20	PC	PC	000010	681026128	58151143	HLI0550	8300	L09	9999	8330	01.10.2024	12.08.2024	0060	56336377	HLI0550	D434327013	0013434327	            0013	30.07.2024	       0
		4051493064		10415979	4537189693	00001	2206743	Hammer drill bit TE-CX 3/4"-18"	8330	0001	             1	PC	PC	000010	681026129	58151143	HLI0550	8300	L09	9999	8330	01.10.2024	12.08.2024	0070	56336377	HLI0550	D434327014	0013434327	            0014	30.07.2024	       0
		4051493064		10415979	4537189695	00001	2206618	Hammer drill bit TE-CX 20/48	8330	0001	             2	PC	PC	000010	681026131	58151143	HLI0550	8300	L09	9999	8330	01.10.2024	12.08.2024	0010	56337703	HLI0550	D435480001	0013435480	            0001	31.07.2024	       0
		4051493064		10415979	4537189698	00001	2184505	Hexagon nut M10 Zn DIN 934 8	8330	0001	           500	PC	PC	000010	681026134	58151143	HLI0550	8300	L06	9999	8330	01.10.2024	12.08.2024	0010	56339005	HLI0550	D442988027	0013442988	            0027	01.08.2024	       0
		4051493064		10415979	4537189699	00001	2184505	Hexagon nut M10 Zn DIN 934 8	8330	0001	         2.400	PC	PC	000010	681026135	58151139	HLI0550	8300	L06	9999	8330	01.10.2024	12.08.2024	0010	56339005	HLI0550	D442988027	0013442988	            0027	01.08.2024	       0
		4051493064		10415979	4537189700	00001	2378316	Laser receiver PRA 20G	8330	0001	             2	PC	PC	000010	681026136	58151143	HLI0550	8300	L07	9999	8330	01.10.2024	12.08.2024	0010	56339510	HLI0550	D444516001	0013444516	            0001	02.08.2024	      28
		4051493064		10415979	4537189701	00001	409176	Hammer drill bit TE-CX 8/17	8330	0001	            10	PC	PC	000010	681026137	58151143	HLI0550	8300	L09	9999	8330	01.10.2024	12.08.2024	0010	56340005	HLI0550	D444898003	0013444898	            0003	02.08.2024	       0
		4051493064		10415979	4537189702	00001	2025902	Hammer drill bit TE-CX 3/16"-4" MP8	8330	0001	             8	PC	PC	000010	681026138	58151143	HLI0550	8300	L09	9999	8330	01.10.2024	12.08.2024	0020	56340005	HLI0550	D444898004	0013444898	            0004	02.08.2024	       0
		4051493064		10415979	4537189704	00001	2206743	Hammer drill bit TE-CX 3/4"-18"	8330	0001	             1	PC	PC	000010	681026140	58151143	HLI0550	8300	L09	9999	8330	01.10.2024	12.08.2024	0050	56340005	HLI0550	D444898008	0013444898	            0008	02.08.2024	       0
		4051493064		10415979	4537189707	00001	2184682	Hammer drill bit TE-YX 1/2"-21"	8330	0001	            12	PC	PC	000010	681026144	58151143	HLI0550	8300	L09	9999	8330	01.10.2024	12.08.2024	0110	56340010	HLI0550	D445003014	0013445003	            0014	02.08.2024	       0
		4051493064		10415979	4537189709	00001	2361442	Stud holder S-SH BT M10/W10	8330	0001	             1	PC	PC	000010	681026146	58151143	HLI0550	8300	L10	9999	8330	01.10.2024	12.08.2024	0050	56340146	HLI0550	D445225006	0013445225	            0006	03.08.2024	       0
		4051493064		10415979	4537189710	00001	215197	Starting aid DD 110-D DD-SA-RK BI+	8330	0001	            15	PC	PC	000010	681026147	58151143	HLI0550	8300	L05	9999	8330	01.10.2024	12.08.2024	0070	56340146	HLI0550	D445225003	0013445225	            0003	03.08.2024	       0
		4051493064		10415979	4537189712	00001	2349160	Grating disc X-FCM-R 38/43	8330	0001	           100	PC	PC	000010	681026149	58151143	HLI0550	8300	L04	9999	8330	01.10.2024	12.08.2024	0010	56340272	HLI0550	D444477001	0013444477	            0001	02.08.2024	       0
		4051493064		10415979	4537189713	00001	2349160	Grating disc X-FCM-R 38/43	8330	0001	           900	PC	PC	000010	681026150	58151139	HLI0550	8300	L04	9999	8330	01.10.2024	12.08.2024	0010	56340272	HLI0550	D444477001	0013444477	            0001	02.08.2024	       0
		4051462463		10259187	4536776938	00001	2346085	Torque tool S-BT 1/4" - 16Nm	8330	0001	             1	PC	PC	000010	680689245	58085684	HLI0550	8300	L10	9999	8330	14.08.2024	27.05.2024	0050	56255418	HLI0550	D273729012	0013273729	            0012	13.05.2024	       8
		4051462463		10259187	4536776945	00001	2126539	Dust extr. hood DG-EX125/ 5" grinding	8330	0001	             2	PC	PC	000010	680689255	58085684	HLI0550	8300	L05	9999	8330	14.08.2024	27.05.2024	0020	56255537	HLI0550	D273947008	0013273947	            0008	14.05.2024	-7
		4051470945		10300740	4536890075	00001	2273256	Hexagon bolt MT-TLB OC	8330	0001	           800	PC	PC	000010	680781780	58103029	HLI0550	8300	L14	9999	8330	02.09.2024	17.06.2024	0010	56280787	HLI0550	D241803001	0013241803	            0001	27.04.2024	      29
		4051470945		10300740	4536890077	00001	2273256	Hexagon bolt MT-TLB OC	8330	0001	           800	PC	PC	000010	680781781	58103029	HLI0550	8300	L14	9999	8330	02.09.2024	17.06.2024	0020	56280787	HLI0550	D241803002	0013241803	            0002	27.04.2024	      35
		4051490407		10402069	4537152911	00001	2150705	Cutting disc AC-D SPX 125x1.0	8330	0001	           100	PC	PC	000010	680996074	58146170	HLI0550	8300	L09	9999	8330	24.09.2024	05.08.2024	0030	56329434	HLI0550	D420859005	0013420859	            0005	23.07.2024	       0
		4051490407		10402069	4537152963	00001	2335646	Circ. saw blade SCBW WU SPX 190 A	8330	0001	             8	PC	PC	000010	680996098	58146169	HLI0550	8300	L09	9999	8330	24.09.2024	05.08.2024	0060	56333379	HLI0550	D426673001	0013426673	            0001	27.07.2024	       0
		4051493064		10415979	4537189634	00001	2127164	Supply cord 220V 4m BRCLIL univ	8330	0001	            60	PC	PC	000010	681026073	58151106	HLI0550	8300	L08	9999	8330	01.10.2024	12.08.2024	0100	56296328	HLI0550	D352701015	0013352701	            0015	20.06.2024	      42
		4051493064		10415979	4537189635	00001	2127164	Supply cord 220V 4m BRCLIL univ	8330	0001	            60	PC	PC	000010	681026074	58151106	HLI0550	8300	L08	9999	8330	01.10.2024	12.08.2024	0110	56296328	HLI0550	D352701017	0013352701	            0017	20.06.2024	       7
		4051493064		10415979	4537189688	00001	2150736	Cutting disc AC-D SPX 230x1.8	8330	0001	           100	PC	PC	000010	681026125	58151139	HLI0550	8300	L09	9999	8330	01.10.2024	12.08.2024	0030	56336377	HLI0550	D434327009	0013434327	            0009	30.07.2024	       0
		4051493064		10415979	4537189691	00001	2150741	Grinding wheel AG-D SPX 125x6.4	8330	0001	            10	PC	PC	000010	681026127	58151139	HLI0550	8300	L09	9999	8330	01.10.2024	12.08.2024	0050	56336377	HLI0550	D434327012	0013434327	            0012	30.07.2024	       0
		4051493064		10415979	4537189694	00001	2150707	Cutting disc AC-D SPX 125x1.6	8330	0001	           100	PC	PC	000010	681026130	58151139	HLI0550	8300	L09	9999	8330	01.10.2024	12.08.2024	0090	56336377	HLI0550	D434327010	0013434327	            0010	30.07.2024	       0
		4051465089		10267855	4536811365	00001	2005641	Dispenser HDM 500 box	8330	0001	            42	PC	PC	000010	680717397	42091411	HAT0564	8300	L01	9999	8330	02.09.2024	03.06.2024	0010	56267063	HAT0564	D291695002	0013291695	            0002	23.05.2024	       0
		4051465089		10267855	4536811366	00001	2005641	Dispenser HDM 500 box	8330	0001	            42	PC	PC	000010	680717398	42091412	HAT0564	8300	L01	9999	8330	02.09.2024	03.06.2024	0010	56267063	HAT0564	D291695002	0013291695	            0002	23.05.2024	       0
		4051470959		10300966	4536889225	00001	2005641	Dispenser HDM 500 box	8330	0001	            42	PC	PC	000010	680780951	56400001056	HAT0564	8300	L01	9999	8330	19.08.2024	17.06.2024	0020	56267063	HAT0564	D291695003	0013291695	            0003	23.05.2024	       0
		4051470959		10300966	4536889227	00001	2005641	Dispenser HDM 500 box	8330	0001	            42	PC	PC	000010	680780952	56400001069	HAT0564	8300	L01	9999	8330	19.08.2024	17.06.2024	0020	56267063	HAT0564	D291695003	0013291695	            0003	23.05.2024	       0
		4051470959		10300966	4536889229	00001	2005641	Dispenser HDM 500 box	8330	0001	            42	PC	PC	000010	680780953	56400001061	HAT0564	8300	L01	9999	8330	19.08.2024	17.06.2024	0020	56267063	HAT0564	D291695003	0013291695	            0003	23.05.2024	       0
		4051482037		10359793	4537047139	00001	2203155	Drilling stand DD-ST 150-U CTL	8330	0001	             1	PC	PC	000010	680909936	56400005206	HAT0564	8300	L05	9999	8330	12.09.2024	15.07.2024	0010	56310999	HAT0564	D384902001	0013384902	            0001	04.07.2024	       0
		4051482037		10359793	4537047141	00001	2203155	Drilling stand DD-ST 150-U CTL	8330	0001	             3	PC	PC	000010	680909937	56400005516	HAT0564	8300	L05	9999	8330	12.09.2024	15.07.2024	0010	56310999	HAT0564	D384902001	0013384902	            0001	04.07.2024	       0
		4051493070		10416162	4537189519	00001	2005641	Dispenser HDM 500 box	8330	0001	            42	PC	PC	000010	681025971	56400009252	HAT0564	8300	L01	9999	8330	01.10.2024	12.08.2024	0020	56341675	HAT0564	D449151003	0013449151	            0003	06.08.2024	       0
		4051473535		10315447	4536933962	00001	2270830	Cordl. angle grinder AG 5D-22-125 case	8750	0001	             9	PC	PC	000010	680818635	56400002381	HAT0564	8750	L15	9999	8750	26.08.2024	25.06.2024	0010	56248893	HAT0564	D260624004	0013260624	            0004	06.05.2024	       0
		4051473535		10315447	4536933963	00001	2253057	Cordless rotary hammer TE 6-22 case	8750	0001	            24	PC	PC	000010	680818636	56400002379	HAT0564	8750	L15	9999	8750	26.08.2024	25.06.2024	0020	56248893	HAT0564	D260624010	0013260624	            0010	06.05.2024	       0
		4051484835		10373356	4537084281	00001	2270830	Cordl. angle grinder AG 5D-22-125 case	8750	0001	            18	PC	PC	000010	680939741	56400006203	HAT0564	8750	L15	9999	8750	18.09.2024	22.07.2024	0010	56294359	HAT0564	D346846001	0013346846	            0001	19.06.2024	      22
		4051484835		10373356	4537084286	00001	2270830	Cordl. angle grinder AG 5D-22-125 case	8750	0001	             9	PC	PC	000010	680939744	56400006464	HAT0564	8750	L15	9999	8750	18.09.2024	22.07.2024	0010	56290442	HAT0564	D337868001	0013337868	            0001	17.06.2024	-6
		4051484835		10373356	4537084288	00001	2270830	Cordl. angle grinder AG 5D-22-125 case	8750	0001	            18	PC	PC	000010	680939745	56400006465	HAT0564	8750	L15	9999	8750	18.09.2024	22.07.2024	0010	56302954	HAT0564	D365245001	0013365245	            0001	27.06.2024	-6
		4051487492		10387861	4537120246	00001	2253057	Cordless rotary hammer TE 6-22 case	8330	0001	             4	PC	PC	000010	680969190	56400007439	HAT0564	8300	L15	9999	8330	17.09.2024	29.07.2024	0010	56305499	HAT0564	D373508001	0013373508	            0001	01.07.2024	       0
		4051493070		10416162	4537189524	00001	2253057	Cordless rotary hammer TE 6-22 case	8330	0001	             4	PC	PC	000010	681025976	56400009306	HAT0564	8300	L15	9999	8330	01.10.2024	12.08.2024	0020	56307506	HAT0564	D378814002	0013378814	            0002	02.07.2024	       0
		4051470959		10300966	4536889230	00001	2148548	Drilling stand DD-HD 30	8330	0001	             4	PC	PC	000010	680780954	56400000782	HAT0564	8300	L05	9999	8330	19.08.2024	17.06.2024	0020	56274034	HAT0564	D304811022	0013304811	            0022	30.05.2024	       0
		4051476605		10330681	4536970872	00001	2148548	Drilling stand DD-HD 30	8330	0001	             4	PC	PC	000010	680849257	56400003240	HAT0564	8300	L05	9999	8330	04.09.2024	01.07.2024	0010	56274843	HAT0564	D304711006	0013304711	            0006	30.05.2024	       0
		4051479387		10345550	4537020950	00001	2148548	Drilling stand DD-HD 30	8330	0001	             4	PC	PC	000010	680889510	56400004147	HAT0564	8300	L05	9999	8330	16.09.2024	10.07.2024	0020	56274843	HAT0564	D304711009	0013304711	            0009	30.05.2024	       0
		4051470950		10300538	4536888477	00001	2251359	Battery pack B 22-170 Li-ion	8330	0001	            16	PC	PC	000010	680780317	42155030	1000415	8300	L15	9999	8330	19.08.2024	17.06.2024	0040	56284494	1000415	D328263004	0013328263	            0004	11.06.2024	       0
		4051476594		10330425	4536967825	00001	2251359	Battery pack B 22-170 Li-ion	8330	0001	            16	PC	PC	000010	680846544	42211982	1000415	8300	L15	9999	8330	04.09.2024	01.07.2024	0010	56299566	1000415	D358778002	0013358778	            0002	25.06.2024	       0
		4051479390		10345549	4537020750	00001	2251359	Battery pack B 22-170 Li-ion	8330	0001	            16	PC	PC	000010	680889332	42244906	1000415	8300	L15	9999	8330	16.09.2024	10.07.2024	0010	56309089	1000415	D379913001	0013379913	            0001	02.07.2024	       0
		4051479390		10345549	4537020751	00001	2251359	Battery pack B 22-170 Li-ion	8330	0001	            16	PC	PC	000010	680889333	42244907	1000415	8300	L15	9999	8330	16.09.2024	10.07.2024	0010	56309089	1000415	D379913001	0013379913	            0001	02.07.2024	       0
		4051482033		10359792	4537045052	00001	2251359	Battery pack B 22-170 Li-ion	8330	0001	            16	PC	PC	000010	680908222	42272506	1000415	8300	L15	9999	8330	12.09.2024	15.07.2024	0070	56306828	1000415	D377495010	0013377495	            0010	02.07.2024	       0
		4051484784		10373379	4537081979	00001	2251359	Battery pack B 22-170 Li-ion	8330	0001	            48	PC	PC	000010	680938033	42302104	1000415	8300	L15	9999	8330	25.09.2024	22.07.2024	0010	56321249	1000415	D403620002	0013403620	            0002	15.07.2024	       0
		4051484784		10373379	4537081980	00001	2251359	Battery pack B 22-170 Li-ion	8330	0001	            96	PC	PC	000010	680938034	42302104	1000415	8300	L15	9999	8330	25.09.2024	22.07.2024	0070	56322503	1000415	D407054018	0013407054	            0018	16.07.2024	       0
		4051493066		10416155	4537186506	00001	2251359	Battery pack B 22-170 Li-ion	8330	0001	           112	PC	PC	000010	681023358	42383115	1000415	8300	L15	9999	8330	01.10.2024	12.08.2024	0010	56322895	1000415	D406793001	0013406793	            0001	16.07.2024	       6
		4051462470		10257761	4536772481	00001	2123993	Concrete nail X-C 20 B3 MX	8330	0001	       192.000	PC	PC	000010	680685432	42062386	1000415	8300	L04	9999	8330	14.08.2024	27.05.2024	0010	56244025	1000415	D246302006	0013246302	            0006	30.04.2024	       8
		4051462470		10257761	4536772486	00001	2123993	Concrete nail X-C 20 B3 MX	8330	0001	       192.000	PC	PC	000010	680685440	42062385	1000415	8300	L04	9999	8330	14.08.2024	27.05.2024	0020	56250902	1000415	D264364001	0013264364	            0001	08.05.2024	       0
		4051465084		10267853	4536807967	00001	2123993	Concrete nail X-C 20 B3 MX	8330	0001	       192.000	PC	PC	000010	680714299	42090356	1000415	8300	L04	9999	8330	02.09.2024	03.06.2024	0040	56265722	1000415	D289752005	0013289752	            0005	23.05.2024	       0
		4051470957		10300540	4536888499	00001	2123993	Concrete nail X-C 20 B3 MX	8330	0001	       192.000	PC	PC	000010	680780339	42157236	1000415	8300	L04	9999	8330	19.08.2024	17.06.2024	0080	56274049	1000415	D304711062	0013304711	            0062	30.05.2024	-21
		4051470957		10300540	4536888500	00001	2123993	Concrete nail X-C 20 B3 MX	8330	0001	       192.000	PC	PC	000010	680780340	42157235	1000415	8300	L04	9999	8330	19.08.2024	17.06.2024	0100	56274049	1000415	D304711075	0013304711	            0075	30.05.2024	-7
		4051470957		10300540	4536888504	00001	2123993	Concrete nail X-C 20 B3 MX	8330	0001	       192.000	PC	PC	000010	680780344	42158123	1000415	8300	L04	9999	8330	19.08.2024	17.06.2024	0090	56274049	1000415	D304711063	0013304711	            0063	30.05.2024	-28
		4051476601		10330427	4536967860	00001	2100956	Gas nail X-C 27 G3 MX	8330	0001	       115.200	PC	PC	000010	680846578	42217563	1000415	8300	L04	9999	8330	04.09.2024	01.07.2024	0040	56295124	1000415	D348922010	0013348922	            0010	20.06.2024	       0
		4051479391		10345547	4537020721	00001	2123993	Concrete nail X-C 20 B3 MX	8330	0001	       192.000	PC	PC	000010	680889303	42245953	1000415	8300	L04	9999	8330	16.09.2024	10.07.2024	0040	56302463	1000415	D364782001	0013364782	            0001	27.06.2024	-7
		4051484783		10373378	4537081975	00001	2123993	Concrete nail X-C 20 B3 MX	8330	0001	       192.000	PC	PC	000010	680938029	42302224	1000415	8300	L04	9999	8330	25.09.2024	22.07.2024	0030	56312183	1000415	D386502004	0013386502	            0004	06.07.2024	       0
		4051487497		10387857	4537118396	00001	2100956	Gas nail X-C 27 G3 MX	8330	0001	       115.200	PC	PC	000010	680967788	42327087	1000415	8300	L04	9999	8330	17.09.2024	29.07.2024	0010	56311201	1000415	D382546001	0013382546	            0001	04.07.2024	      14
		4051490403		10401437	4537152814	00001	2100956	Gas nail X-C 27 G3 MX	8330	0001	       172.800	PC	PC	000010	680995963	42356636	1000415	8300	L04	9999	8330	24.09.2024	05.08.2024	0030	56314034	1000415	D391312002	0013391312	            0002	09.07.2024	      21
		4051490403		10401437	4537152823	00001	2123993	Concrete nail X-C 20 B3 MX	8330	0001	       192.000	PC	PC	000010	680995977	42356625	1000415	8300	L04	9999	8330	24.09.2024	05.08.2024	0010	56335060	1000415	D431655019	0013431655	            0019	30.07.2024	       0
		4051490403		10401437	4537152824	00001	2123993	Concrete nail X-C 20 B3 MX	8330	0001	       192.000	PC	PC	000010	680995979	42356626	1000415	8300	L04	9999	8330	24.09.2024	05.08.2024	0010	56335060	1000415	D431655019	0013431655	            0019	30.07.2024	       0
		4051490403		10401437	4537152826	00001	2123993	Concrete nail X-C 20 B3 MX	8330	0001	       192.000	PC	PC	000010	680995981	42356634	1000415	8300	L04	9999	8330	24.09.2024	05.08.2024	0010	56335060	1000415	D431655019	0013431655	            0019	30.07.2024	       0
		4051462468		10257761	4536772438	00001	2227740	Multi line laser PM 30-MG case	8330	0001	             1	PC	PC	000010	680685389	42060402	1000415	8300	L07	9999	8330	14.08.2024	27.05.2024	0020	56265722	1000415	D289752018	0013289752	            0018	23.05.2024	       0
		4051470959		10300966	4536889234	00001	2253081	Cordless rotary hammer TE 6-22 box	8330	0001	             1	PC	PC	000010	680780956	56400001075	HAT0564	8300	L15	9999	8330	19.08.2024	17.06.2024	0010	56283007	HAT0564	D325634005	0013325634	            0005	07.06.2024	       0
		4051476601		10330427	4536967859	00001	2227740	Multi line laser PM 30-MG case	8330	0001	             2	PC	PC	000010	680846577	42216032	1000415	8300	L07	9999	8330	04.09.2024	01.07.2024	0010	56295124	1000415	D348922018	0013348922	            0018	20.06.2024	       0
		4051476605		10330681	4536970873	00001	2253081	Cordless rotary hammer TE 6-22 box	8330	0001	             1	PC	PC	000010	680849258	56400003137	HAT0564	8300	L15	9999	8330	04.09.2024	01.07.2024	0020	56283007	HAT0564	D325634006	0013325634	            0006	07.06.2024	       0
		4051479391		10345547	4537020707	00001	2227740	Multi line laser PM 30-MG case	8330	0001	             2	PC	PC	000010	680889289	42242635	1000415	8300	L07	9999	8330	16.09.2024	10.07.2024	0010	56302463	1000415	D364782004	0013364782	            0004	27.06.2024	       0
		4051479391		10345547	4537020715	00001	2363097	Cordl. drill driver SBT 6-22	8330	0001	             7	PC	PC	000010	680889297	42242635	1000415	8300	L10	9999	8330	16.09.2024	10.07.2024	0030	56302463	1000415	D364782005	0013364782	            0005	27.06.2024	       0
		4051479387		10345550	4537020952	00001	2253081	Cordless rotary hammer TE 6-22 box	8330	0001	             1	PC	PC	000010	680889512	56400004144	HAT0564	8300	L15	9999	8330	16.09.2024	10.07.2024	0040	56283007	HAT0564	D325634012	0013325634	            0012	07.06.2024	       0
		4051482030		10359790	4537045021	00001	2363097	Cordl. drill driver SBT 6-22	8330	0001	             7	PC	PC	000010	680908204	42271944	1000415	8300	L10	9999	8330	12.09.2024	15.07.2024	0170	56274049	1000415	D304711088	0013304711	            0088	30.05.2024	       0
		4051482031		10359790	4537045035	00001	2363097	Cordl. drill driver SBT 6-22	8330	0001	             7	PC	PC	000010	680908212	42271932	1000415	8300	L10	9999	8330	12.09.2024	15.07.2024	0010	56314034	1000415	D391312001	0013391312	            0001	09.07.2024	       0
		4051482037		10359793	4537047138	00001	2253081	Cordless rotary hammer TE 6-22 box	8330	0001	             5	PC	PC	000010	680909935	56400005220	HAT0564	8300	L15	9999	8330	12.09.2024	15.07.2024	0010	56313610	HAT0564	D391021001	0013391021	            0001	08.07.2024	       0
		4051484778		10373376	4537084349	00001	2253081	Cordless rotary hammer TE 6-22 box	8330	0001	             1	PC	PC	000010	680939762	56400006404	HAT0564	8300	L15	9999	8330	25.09.2024	22.07.2024	0030	56283007	HAT0564	D325634008	0013325634	            0008	07.06.2024	       0
		4051484779		10373376	4537084356	00001	2253081	Cordless rotary hammer TE 6-22 box	8330	0001	             1	PC	PC	000010	680939765	56400006409	HAT0564	8300	L15	9999	8330	25.09.2024	22.07.2024	0020	56313610	HAT0564	D391021002	0013391021	            0002	08.07.2024	       0
		4051487497		10387857	4537118399	00001	2363097	Cordl. drill driver SBT 6-22	8330	0001	             7	PC	PC	000010	680967791	42326176	1000415	8300	L10	9999	8330	17.09.2024	29.07.2024	0010	56325745	1000415	D412011001	0013412011	            0001	18.07.2024	       0
		4051487492		10387861	4537120242	00001	2253081	Cordless rotary hammer TE 6-22 box	8330	0001	             2	PC	PC	000010	680969186	56400007439	HAT0564	8300	L15	9999	8330	17.09.2024	29.07.2024	0060	56288772	HAT0564	D335878032	0013335878	            0032	13.06.2024	       0
		4051487492		10387861	4537120248	00001	2253081	Cordless rotary hammer TE 6-22 box	8330	0001	             1	PC	PC	000010	680969192	56400007439	HAT0564	8300	L15	9999	8330	17.09.2024	29.07.2024	0030	56313610	HAT0564	D391021003	0013391021	            0003	08.07.2024	       0
		4051490495		10393852	4537150542	00001	2210256	Ultimate exp anc KB-TZ2 1/2x5 1/2	8330	0001	            80	PC	PC	000010	680994093	1152366624	HUS4701	8300	L02	9999	8330	16.09.2024	02.08.2024	0090	56329489	HUS4701	D421027012	0013421027	            0012	23.07.2024	-14
		4051490396		10402228	4537155509	00001	2253081	Cordless rotary hammer TE 6-22 box	8330	0001	             1	PC	PC	000010	680998175	56400008537	HAT0564	8300	L15	9999	8330	24.09.2024	05.08.2024	0060	56313610	HAT0564	D391021006	0013391021	            0006	08.07.2024	       0
		4051493068		10416157	4537186524	00001	2272084	Thread forming bolt MT-TFB OC	8330	0001	         6.000	PC	PC	000010	681023375	42383575	1000415	8300	L14	9999	8330	01.10.2024	12.08.2024	0030	56293605	1000415	D345873009	0013345873	            0009	18.06.2024	      49
		4051493068		10416157	4537186525	00001	2272084	Thread forming bolt MT-TFB OC	8330	0001	        12.000	PC	PC	000010	681023376	42383576	1000415	8300	L14	9999	8330	01.10.2024	12.08.2024	0030	56293605	1000415	D345873009	0013345873	            0009	18.06.2024	      49
		4051493068		10416157	4537186526	00001	2272084	Thread forming bolt MT-TFB OC	8330	0001	        12.000	PC	PC	000010	681023377	42383577	1000415	8300	L14	9999	8330	01.10.2024	12.08.2024	0030	56293605	1000415	D345873009	0013345873	            0009	18.06.2024	      49
		4051462470		10257761	4536772483	00001	2123994	Concrete nail X-C 24 B3 MX	8330	0001	       192.000	PC	PC	000010	680685435	42063012	1000415	8300	L04	9999	8330	14.08.2024	27.05.2024	0020	56244025	1000415	D246302009	0013246302	            0009	30.04.2024	       8
		4051462470		10257761	4536772484	00001	2123994	Concrete nail X-C 24 B3 MX	8330	0001	       192.000	PC	PC	000010	680685438	42063013	1000415	8300	L04	9999	8330	14.08.2024	27.05.2024	0020	56244025	1000415	D246302009	0013246302	            0009	30.04.2024	       8
		4051465084		10267853	4536807968	00001	2123994	Concrete nail X-C 24 B3 MX	8330	0001	       192.000	PC	PC	000010	680714300	42088993	1000415	8300	L04	9999	8330	02.09.2024	03.06.2024	0050	56265722	1000415	D289752010	0013289752	            0010	23.05.2024	       0
		4051466034		10265118	4536816342	00001	2210255	Ultimate exp anc KB-TZ2 1/2x4 1/2	8330	0001	         1.280	PC	PC	000010	680721334	1150968447	HUS4701	8300	L02	9999	8330	21.08.2024	04.06.2024	0010	56212933	HUS4701	D190946002	0013190946	            0002	02.04.2024	      28
		4051470955		10300540	4536888488	00001	2123994	Concrete nail X-C 24 B3 MX	8330	0001	       192.000	PC	PC	000010	680780328	42159211	1000415	8300	L04	9999	8330	19.08.2024	17.06.2024	0040	56250902	1000415	D264364010	0013264364	            0010	08.05.2024	      21
		4051470955		10300540	4536888489	00001	2123994	Concrete nail X-C 24 B3 MX	8330	0001	       192.000	PC	PC	000010	680780329	42159212	1000415	8300	L04	9999	8330	19.08.2024	17.06.2024	0040	56250902	1000415	D264364010	0013264364	            0010	08.05.2024	      21
		4051470955		10300540	4536888490	00001	2123994	Concrete nail X-C 24 B3 MX	8330	0001	       192.000	PC	PC	000010	680780331	42159213	1000415	8300	L04	9999	8330	19.08.2024	17.06.2024	0040	56261544	1000415	D282817026	0013282817	            0026	18.05.2024	      14
		4051470955		10300540	4536888491	00001	2123994	Concrete nail X-C 24 B3 MX	8330	0001	       192.000	PC	PC	000010	680780332	42159214	1000415	8300	L04	9999	8330	19.08.2024	17.06.2024	0040	56261544	1000415	D282817026	0013282817	            0026	18.05.2024	      14
		4051470957		10300540	4536888494	00001	2123994	Concrete nail X-C 24 B3 MX	8330	0001	       192.000	PC	PC	000010	680780335	42157239	1000415	8300	L04	9999	8330	19.08.2024	17.06.2024	0060	56265722	1000415	D289752002	0013289752	            0002	23.05.2024	       7
		4051470957		10300540	4536888496	00001	2123994	Concrete nail X-C 24 B3 MX	8330	0001	       192.000	PC	PC	000010	680780336	42157240	1000415	8300	L04	9999	8330	19.08.2024	17.06.2024	0060	56265722	1000415	D289752002	0013289752	            0002	23.05.2024	       7
		4051473389		10315444	4536928745	00001	2323711	Tool bag M	8750	0001	             1	PC	PC	000010	680813716	42190236	1000415	8750	L09	9999	8750	26.08.2024	24.06.2024	0010	56276827	1000415	D316826001	0013316826	            0001	03.06.2024	       0
		4051473392		10315446	4536928758	00001	2251363	Battery pack B 22-255 Li-ion	8750	0001	             9	PC	PC	000010	680813728	42185528	1000415	8750	L15	9999	8750	26.08.2024	24.06.2024	0050	56250492	1000415	D263297008	0013263297	            0008	07.05.2024	       0
		4051473392		10315446	4536928759	00001	2251363	Battery pack B 22-255 Li-ion	8750	0001	             9	PC	PC	000010	680813729	42185529	1000415	8750	L15	9999	8750	26.08.2024	24.06.2024	0050	56250492	1000415	D263297008	0013263297	            0008	07.05.2024	       0
		4051476595		10330425	4536967826	00001	2251363	Battery pack B 22-255 Li-ion	8330	0001	             9	PC	PC	000010	680846546	42211981	1000415	8300	L15	9999	8330	04.09.2024	01.07.2024	0070	56257323	1000415	D276539008	0013276539	            0008	14.05.2024	       0
		4051476599		10330427	4536967845	00001	2123994	Concrete nail X-C 24 B3 MX	8330	0001	       192.000	PC	PC	000010	680846565	42216733	1000415	8300	L04	9999	8330	04.09.2024	01.07.2024	0010	56256074	1000415	D273947013	0013273947	            0013	14.05.2024	      35
		4051484651		10366874	4537074234	00001	2210255	Ultimate exp anc KB-TZ2 1/2x4 1/2	8330	0001	           640	PC	PC	000010	680931337	1152079167	HUS4701	8300	L02	9999	8330	16.09.2024	19.07.2024	0010	56274124	HUS4701	D304769003	0013304769	            0003	31.05.2024	      14
		4051484651		10366874	4537074235	00001	2210255	Ultimate exp anc KB-TZ2 1/2x4 1/2	8330	0001	           640	PC	PC	000010	680931338	1152079167	HUS4701	8300	L02	9999	8330	16.09.2024	19.07.2024	0060	56274124	HUS4701	D304769018	0013304769	            0018	31.05.2024	       7
		4051487495		10387857	4537118381	00001	2123994	Concrete nail X-C 24 B3 MX	8330	0001	       192.000	PC	PC	000010	680967775	42325992	1000415	8300	L04	9999	8330	17.09.2024	29.07.2024	0080	56274033	1000415	D304811021	0013304811	            0021	30.05.2024	      42
		4051487495		10387857	4537118382	00001	2123994	Concrete nail X-C 24 B3 MX	8330	0001	       192.000	PC	PC	000010	680967776	42325993	1000415	8300	L04	9999	8330	17.09.2024	29.07.2024	0080	56274033	1000415	D304811021	0013304811	            0021	30.05.2024	      42
		4051487495		10387857	4537118383	00001	2123994	Concrete nail X-C 24 B3 MX	8330	0001	       192.000	PC	PC	000010	680967777	42325990	1000415	8300	L04	9999	8330	17.09.2024	29.07.2024	0150	56274049	1000415	D304711076	0013304711	            0076	30.05.2024	      35
		4051487495		10387857	4537118384	00001	2123994	Concrete nail X-C 24 B3 MX	8330	0001	       192.000	PC	PC	000010	680967778	42325991	1000415	8300	L04	9999	8330	17.09.2024	29.07.2024	0150	56274049	1000415	D304711076	0013304711	            0076	30.05.2024	      35
		4051490494		10393852	4537150534	00001	2210255	Ultimate exp anc KB-TZ2 1/2x4 1/2	8330	0001	         9.120	PC	PC	000010	680994085	1152366614	HUS4701	8300	L02	9999	8330	16.09.2024	02.08.2024	0050	56274124	HUS4701	D304769015	0013304769	            0015	31.05.2024	      35
		4051490403		10401437	4537152829	00001	2123994	Concrete nail X-C 24 B3 MX	8330	0001	       192.000	PC	PC	000010	680995986	42356627	1000415	8300	L04	9999	8330	24.09.2024	05.08.2024	0030	56335060	1000415	D431655007	0013431655	            0007	30.07.2024	       0
		4051490403		10401437	4537152830	00001	2123994	Concrete nail X-C 24 B3 MX	8330	0001	       192.000	PC	PC	000010	680995988	42356628	1000415	8300	L04	9999	8330	24.09.2024	05.08.2024	0030	56335060	1000415	D431655007	0013431655	            0007	30.07.2024	       0
		4051490403		10401437	4537152832	00001	2123994	Concrete nail X-C 24 B3 MX	8330	0001	       192.000	PC	PC	000010	680995989	42356629	1000415	8300	L04	9999	8330	24.09.2024	05.08.2024	0030	56335060	1000415	D431655007	0013431655	            0007	30.07.2024	       0
		4051490403		10401437	4537152833	00001	2123994	Concrete nail X-C 24 B3 MX	8330	0001	       192.000	PC	PC	000010	680995990	42356630	1000415	8300	L04	9999	8330	24.09.2024	05.08.2024	0030	56335060	1000415	D431655007	0013431655	            0007	30.07.2024	       0
		4051490403		10401437	4537152835	00001	2123994	Concrete nail X-C 24 B3 MX	8330	0001	       192.000	PC	PC	000010	680995991	42356631	1000415	8300	L04	9999	8330	24.09.2024	05.08.2024	0030	56335060	1000415	D431655007	0013431655	            0007	30.07.2024	       0
		4051462470		10257761	4536772462	00001	2272100	Baseplate MT-B-GS T OC	8330	0001	            26	PC	PC	000010	680685413	42063009	1000415	8300	L14	9999	8330	14.08.2024	27.05.2024	0010	56219294	1000415	D202895004	0013202895	            0004	09.04.2024	      42
		4051462470		10257761	4536772477	00001	2272100	Baseplate MT-B-GS T OC	8330	0001	            24	PC	PC	000010	680685427	42063009	1000415	8300	L14	9999	8330	14.08.2024	27.05.2024	0020	56233829	1000415	D228391001	0013228391	            0001	22.04.2024	      14
		4051473389		10315444	4536928729	00001	2333570	Battery pack B 12-30 Li-ion	8750	0001	            10	PC	PC	000010	680813702	42185531	1000415	8750	L09	9999	8750	26.08.2024	24.06.2024	0060	56250492	1000415	D263297010	0013263297	            0010	07.05.2024	       0
		4051476595		10330425	4536967827	00001	2251355	Battery pack B 22-110 Li-ion	8330	0001	            16	PC	PC	000010	680846547	42211985	1000415	8300	L15	9999	8330	04.09.2024	01.07.2024	0080	56257323	1000415	D276539009	0013276539	            0009	14.05.2024	       0
		4051476595		10330425	4536967828	00001	2251355	Battery pack B 22-110 Li-ion	8330	0001	            16	PC	PC	000010	680846548	42211986	1000415	8300	L15	9999	8330	04.09.2024	01.07.2024	0080	56257323	1000415	D276539009	0013276539	            0009	14.05.2024	       0
		4051476595		10330425	4536967829	00001	2251355	Battery pack B 22-110 Li-ion	8330	0001	            16	PC	PC	000010	680846549	42211987	1000415	8300	L15	9999	8330	04.09.2024	01.07.2024	0080	56257323	1000415	D276539009	0013276539	            0009	14.05.2024	       0
		4051479391		10345547	4537020706	00001	2272103	4-hole Baseplate MT-B-GL O4 OC	8330	0001	             2	PC	PC	000010	680889288	42245999	1000415	8300	L14	9999	8330	16.09.2024	10.07.2024	0040	56287427	1000415	D333450002	0013333450	            0002	12.06.2024	      21
		4051482033		10359792	4537045047	00001	2251355	Battery pack B 22-110 Li-ion	8330	0001	            16	PC	PC	000010	680908219	42272507	1000415	8300	L15	9999	8330	12.09.2024	15.07.2024	0060	56306828	1000415	D377495008	0013377495	            0008	02.07.2024	       0
		4051482033		10359792	4537045049	00001	2251355	Battery pack B 22-110 Li-ion	8330	0001	            16	PC	PC	000010	680908220	42272508	1000415	8300	L15	9999	8330	12.09.2024	15.07.2024	0060	56306828	1000415	D377495008	0013377495	            0008	02.07.2024	       0
		4051482033		10359792	4537045051	00001	2251355	Battery pack B 22-110 Li-ion	8330	0001	            16	PC	PC	000010	680908221	42272509	1000415	8300	L15	9999	8330	12.09.2024	15.07.2024	0060	56306828	1000415	D377495008	0013377495	            0008	02.07.2024	       0
		4051484782		10373378	4537081967	00001	2333570	Battery pack B 12-30 Li-ion	8330	0001	            20	PC	PC	000010	680938021	42301553	1000415	8300	L09	9999	8330	25.09.2024	22.07.2024	0020	56278560	1000415	D319098004	0013319098	            0004	04.06.2024	       0
		4051484782		10373378	4537081968	00001	2333570	Battery pack B 12-30 Li-ion	8330	0001	            20	PC	PC	000010	680938022	42301554	1000415	8300	L09	9999	8330	25.09.2024	22.07.2024	0020	56278560	1000415	D319098004	0013319098	            0004	04.06.2024	       0
		4051484782		10373378	4537081969	00001	2333570	Battery pack B 12-30 Li-ion	8330	0001	            20	PC	PC	000010	680938023	42301555	1000415	8300	L09	9999	8330	25.09.2024	22.07.2024	0020	56278560	1000415	D319098004	0013319098	            0004	04.06.2024	       0
		4051484782		10373378	4537081970	00001	2333570	Battery pack B 12-30 Li-ion	8330	0001	            20	PC	PC	000010	680938024	42301556	1000415	8300	L09	9999	8330	25.09.2024	22.07.2024	0020	56278560	1000415	D319098004	0013319098	            0004	04.06.2024	       0
		4051487493		10387855	4537118371	00001	2251355	Battery pack B 22-110 Li-ion	8330	0001	            16	PC	PC	000010	680967768	42326152	1000415	8300	L15	9999	8330	17.09.2024	29.07.2024	0040	56288771	1000415	D335878005	0013335878	            0005	13.06.2024	       0
		4051487493		10387855	4537118373	00001	2251355	Battery pack B 22-110 Li-ion	8330	0001	            16	PC	PC	000010	680967769	42326153	1000415	8300	L15	9999	8330	17.09.2024	29.07.2024	0040	56288771	1000415	D335878005	0013335878	            0005	13.06.2024	       0
		4051487493		10387855	4537118374	00001	2251355	Battery pack B 22-110 Li-ion	8330	0001	            16	PC	PC	000010	680967770	42326154	1000415	8300	L15	9999	8330	17.09.2024	29.07.2024	0040	56288771	1000415	D335878005	0013335878	            0005	13.06.2024	       0
		4051493068		10416157	4537186521	00001	2333570	Battery pack B 12-30 Li-ion	8330	0001	            20	PC	PC	000010	681023372	42382193	1000415	8300	L09	9999	8330	01.10.2024	12.08.2024	0010	56340462	1000415	D445042001	0013445042	            0001	02.08.2024	       0
		4051493068		10416157	4537186522	00001	2333570	Battery pack B 12-30 Li-ion	8330	0001	            20	PC	PC	000010	681023373	42382194	1000415	8300	L09	9999	8330	01.10.2024	12.08.2024	0010	56340462	1000415	D445042001	0013445042	            0001	02.08.2024	       0
		4051493068		10416157	4537186523	00001	2333570	Battery pack B 12-30 Li-ion	8330	0001	            20	PC	PC	000010	681023374	42382195	1000415	8300	L09	9999	8330	01.10.2024	12.08.2024	0010	56340462	1000415	D445042001	0013445042	            0001	02.08.2024	       0
		4051465083		10267853	4536807958	00001	2272068	Angle connector MT-C-GS A OC adjustable	8330	0001	            10	PC	PC	000010	680714289	42088122	1000415	8300	L14	9999	8330	02.09.2024	03.06.2024	0020	56255655	1000415	D273656001	0013273656	            0001	14.05.2024	      15
		4051465084		10267853	4536807963	00001	2272104	4-hole Baseplate MT-B-GXL O4 OC	8330	0001	            24	PC	PC	000010	680714295	42088995	1000415	8300	L14	9999	8330	02.09.2024	03.06.2024	0010	56271861	1000415	D300951001	0013300951	            0001	28.05.2024	       0
		4051465085		10267853	4536807972	00001	2190184	Laser range meter PD-S	8330	0001	             1	PC	PC	000010	680714303	42088435	1000415	8300	L07	9999	8330	02.09.2024	03.06.2024	0010	56270130	1000415	D298761010	0013298761	            0010	27.05.2024	       0
		4051465086		10267854	4536807974	00001	423871	Frame anchor HRD-H 10x80	8330	0001	            50	PC	PC	000010	680714304	42083142	1000415	8300	L02	9999	8330	02.09.2024	03.06.2024	0020	56267062	1000415	D291695005	0013291695	            0005	23.05.2024	       0
		4051465086		10267854	4536807979	00001	2220067	Univ. vacuum cleaner VC 40L-X 230V	8330	0001	             4	PC	PC	000010	680714309	42093900	1000415	8300	L05	9999	8330	02.09.2024	03.06.2024	0010	56270221	1000415	D298650001	0013298650	            0001	28.05.2024	       0
		4051465087		10267854	4536807980	00001	2163395	Cutting jaw NCT J CUAL BULK	8330	0001	             3	PC	PC	000010	680714310	42097550	1000415	8300	L09	9999	8330	02.09.2024	03.06.2024	0030	56189666	1000415	D142304017	0013142304	            0017	11.03.2024	      77
		4051465088		10267855	4536811364	00001	2036444	Drywall screwdriver SD 5000 220V	8330	0001	             3	PC	PC	000010	680717396	42087444	HAT0564	8300	L10	9999	8330	02.09.2024	03.06.2024	0010	56270131	HAT0564	D298761017	0013298761	            0017	27.05.2024	       0
		4051465089		10267855	4536811367	00001	2253086	Cordless rotary hammer TE 4-22 case	8330	0001	             4	PC	PC	000010	680717399	42091410	HAT0564	8300	L15	9999	8330	02.09.2024	03.06.2024	0010	56269688	HAT0564	D294360008	0013294360	            0008	25.05.2024	       0
		4051465090		10267855	4536811368	00001	2016889	Rotary hammer TE 1 220V box	8330	0001	            21	PC	PC	000010	680717400	42094264	HAT0564	8300	L08	9999	8330	02.09.2024	03.06.2024	0010	56224013	HAT0564	D209896001	0013209896	            0001	12.04.2024	       7
		4051465092		10267856	4536811972	00001	2268365	I.-Girder MT-70 OC	8330	0001	           324	M	M	000010	680718019	42094256	HAT0564	8300	L14	9999	8330	14.08.2024	03.06.2024	0010	56231143	HAT0564	D223013001	0013223013	            0001	18.04.2024	      21
		4051470951		10300539	4536888479	00001	304174	4-hole Angle MQW-4-F	8330	0001	           160	PC	PC	000010	680780319	42150937	1000415	8300	L06	9999	8330	19.08.2024	17.06.2024	0030	56278566	1000415	D319584008	0013319584	            0008	04.06.2024	       0
		4051470952		10300539	4536888480	00001	2329390	Adhesive tape AI T320	8330	0001	           100	PC	PC	000010	680780320	42161354	1000415	8300	L13	9999	8330	19.08.2024	17.06.2024	0010	56287282	1000415	D333459001	0013333459	            0001	12.06.2024	       0
		4051470954		10300540	4536888482	00001	2388380	Cordless data module IC CDM-22	8330	0001	            33	PC	PC	000010	680780322	42155017	1000415	8300	L15	9999	8330	19.08.2024	17.06.2024	0010	56247278	1000415	D256625001	0013256625	            0001	03.05.2024	       0
		4051470955		10300540	4536888483	00001	2251347	Battery pack B 22-55 Li-ion	8330	0001	            16	PC	PC	000010	680780323	42155031	1000415	8300	L15	9999	8330	19.08.2024	17.06.2024	0020	56242625	1000415	D245716002	0013245716	            0002	29.04.2024	       0
		4051470955		10300540	4536888485	00001	2251625	Cordl. imp. wrench SIW 8-22 1/2" case	8330	0001	             3	PC	PC	000010	680780325	42155047	1000415	8300	L15	9999	8330	19.08.2024	17.06.2024	0020	56247278	1000415	D256625002	0013256625	            0002	03.05.2024	       0
		4051470956		10300540	4536888493	00001	2273702	Pipe shoe MT-FPS-GS OC fixation	8330	0001	            36	PC	PC	000010	680780334	42155882	1000415	8300	L14	9999	8330	19.08.2024	17.06.2024	0020	56287427	1000415	D333450005	0013333450	            0005	12.06.2024	       0
		4051470957		10300540	4536888503	00001	2272068	Angle connector MT-C-GS A OC adjustable	8330	0001	            10	PC	PC	000010	680780343	42155862	1000415	8300	L14	9999	8330	19.08.2024	17.06.2024	0030	56284494	1000415	D328263003	0013328263	            0003	11.06.2024	       0
		4051470958		10300540	4536888505	00001	2251606	Cordl. imp. wrench SIW 6-22 1/2" case	8330	0001	             9	PC	PC	000010	680780345	42157327	1000415	8300	L15	9999	8330	19.08.2024	17.06.2024	0010	56286919	1000415	D332882001	0013332882	            0001	12.06.2024	       0
		4051470960		10300966	4536889236	00001	2004350	Rotary hammer TE 2 220V case	8330	0001	            30	PC	PC	000010	680780957	56400001090	HAT0564	8300	L08	9999	8330	19.08.2024	17.06.2024	0010	56240871	HAT0564	D241507003	0013241507	            0003	26.04.2024	       0
		4051470961		10300966	4536889239	00001	2119066	Angle grinder AG 125-19SE	8330	0001	            20	PC	PC	000010	680780959	56400001101	HAT0564	8300	L08	9999	8330	19.08.2024	17.06.2024	0010	56283594	HAT0564	D325479002	0013325479	            0002	07.06.2024	       0
		4051478484		10338648	4537020686	00001	412689	DX Cartridge 6.8/11 M10 STD brown	8330	0001	        10.000	PC	PC	000010	680889269	1151778555	HUS4701	8300	L04	9999	8330	14.08.2024	10.07.2024	0010	56296375	HUS4701	D352821001	0013352821	            0001	20.06.2024	      13
		4051478484		10338648	4537020687	00001	50397	DX Cartridge 5.5/16 .22 green	8330	0001	         1.000	PC	PC	000010	680889270	1151778557	HUS4701	8300	L04	9999	8330	14.08.2024	10.07.2024	0010	56302468	HUS4701	D364708001	0013364708	            0001	26.06.2024	       7
		4051483355		10365637	4537060499	00001	2251185	Cordl. orbital jig saw SJD 6-22 case	8750	0001	             2	PC	PC	000010	680920729	56400005876	HAT0564	8750	L15	9999	8750	20.08.2024	17.07.2024	0010	56305089	HAT0564	D368252003	0013368252	            0003	28.06.2024	       0
		4051483651		10366663	4537060895	00001	416483	DX Cartridge 6.8/18 M10 STD yellow	8750	0001	         2.000	PC	PC	000010	680921047	58132400	HLI055C	8750	L04	9999	8750	15.08.2024	17.07.2024	0010	56321291	HLI055C	D397966001	0013397966	            0001	11.07.2024	-13
		4051483651		10366663	4537060898	00001	416484	DX Cartridge 6.8/18 M10 STD red	8750	0001	        10.000	PC	PC	000010	680921050	58132447	HLI055C	8750	L04	9999	8750	15.08.2024	17.07.2024	0010	56321290	HLI055C	D397965001	0013397965	            0001	11.07.2024	-13
		4051483652		10367404	4537060903	00001	2229027	DX Cartridge 6,8/11 M10 T titanium	8750	0001	        10.000	PC	PC	000010	680921054	58131571	HLI055C	8750	L04	9999	8750	15.08.2024	17.07.2024	0010	56312383	HLI055C	D386422001	0013386422	            0001	05.07.2024	       0
		4051483652		10367404	4537060927	00001	2229029	DX Cartridge 6,8/11 M10 BK black	8750	0001	         1.000	PC	PC	000010	680921075	58131873	HLI055C	8750	L04	9999	8750	15.08.2024	17.07.2024	0010	56302568	HLI055C	D364707001	0013364707	            0001	26.06.2024	       0
		4051483356		10366274	4537061265	00001	2252510	Cordl. cable cutter NCT 53 C-22 case	8750	0001	             3	PC	PC	000010	680921269	42290554	1000415	8750	L15	9999	8750	20.08.2024	17.07.2024	0010	56312491	1000415	D386289001	0013386289	            0001	05.07.2024	       0
		4051483357		10366275	4537061266	00001	378544	Flush anchor HKD M12x50	8750	0001	           300	PC	PC	000010	680921270	42291403	1000415	8750	L02	9999	8750	20.08.2024	17.07.2024	0010	56303092	1000415	D365150001	0013365150	            0001	27.06.2024	-42
		4051462468		10257761	4536772436	00001	2322753	Combilaser PM 20-CGE	8330	0001	             1	PC	PC	000010	680685386	42059695	1000415	8300	L07	9999	8330	14.08.2024	27.05.2024	0030	56265722	1000415	D289752019	0013289752	            0019	23.05.2024	       0
		4051462470		10257761	4536772453	00001	2251347	Battery pack B 22-55 Li-ion	8330	0001	            16	PC	PC	000010	680685405	42060409	1000415	8300	L15	9999	8330	14.08.2024	27.05.2024	0040	56221875	1000415	D207549016	0013207549	            0016	10.04.2024	       0
		4051462470		10257761	4536772456	00001	2152385	Multi line laser PM 40-MG	8330	0001	             2	PC	PC	000010	680685408	42060813	1000415	8300	L07	9999	8330	14.08.2024	27.05.2024	0020	56261544	1000415	D282817027	0013282817	            0027	18.05.2024	       0
		4051462470		10257761	4536772472	00001	2388394	Battery charger C 4-22 220V box	8330	0001	            54	PC	PC	000010	680685423	42060839	1000415	8300	L15	9999	8330	14.08.2024	27.05.2024	0040	56232778	1000415	D226779039	0013226779	            0039	19.04.2024	       0
		4051473388		10315444	4536928724	00001	2251351	Battery pack B 22-85 Li-ion	8750	0001	            12	PC	PC	000010	680813698	42162491	1000415	8750	L15	9999	8750	26.08.2024	24.06.2024	0010	56262581	1000415	D283220001	0013283220	            0001	20.05.2024	       0
		4051473388		10315444	4536928728	00001	2251351	Battery pack B 22-85 Li-ion	8750	0001	            72	PC	PC	000010	680813701	42162795	1000415	8750	L15	9999	8750	26.08.2024	24.06.2024	0070	56250492	1000415	D263297013	0013263297	            0013	07.05.2024	       0
		4051473389		10315444	4536928735	00001	2041609	Stud anchor HSV M12x120	8750	0001	         3.840	PC	PC	000010	680813708	42186470	1000415	8750	L02	9999	8750	26.08.2024	24.06.2024	0010	56268726	1000415	D294000001	0013294000	            0001	27.05.2024	       0
		4051473490		10315445	4536928756	00001	2159811	Water collector sys DD-WCS-122	8750	0001	             2	PC	PC	000010	680813726	42192616	1000415	8750	L05	9999	8750	26.08.2024	24.06.2024	0010	56270148	1000415	D298013010	0013298013	            0010	28.05.2024	       0
		4051473533		10315447	4536933956	00001	2008139	Threaded rod AM 8.8 M30x1000 zinced	8750	0001	            28	PC	PC	000010	680818629	56400002388	HAT0564	8750	L01	9999	8750	26.08.2024	25.06.2024	0010	56262580	HAT0564	D282267004	0013282267	            0004	17.05.2024	       0
		4051473535		10315447	4536933959	00001	2223881	Anchor rod HAS-U 5.8 M24x300	8750	0001	           320	PC	PC	000010	680818632	56400002378	HAT0564	8750	L01	9999	8750	26.08.2024	25.06.2024	0020	56183165	HAT0564	D131212	0013131212	            0000	05.03.2024	       0
		4051476598		10330426	4536967838	00001	2372878	Battery charger C 4/12-50 230V box	8330	0001	            80	PC	PC	000010	680846558	42216183	1000415	8300	L09	9999	8330	04.09.2024	01.07.2024	0050	56257323	1000415	D276539016	0013276539	            0016	14.05.2024	       0
		4051476600		10330427	4536967849	00001	2152385	Multi line laser PM 40-MG	8330	0001	             2	PC	PC	000010	680846568	42211990	1000415	8300	L07	9999	8330	04.09.2024	01.07.2024	0010	56284140	1000415	D327856002	0013327856	            0002	10.06.2024	       0
		4051476600		10330427	4536967853	00001	411287	Tripod PMA 20	8330	0001	            16	PC	PC	000010	680846572	42216033	1000415	8300	L07	9999	8330	04.09.2024	01.07.2024	0050	56274049	1000415	D304711046	0013304711	            0046	30.05.2024	       0
		4051476601		10330427	4536967870	00001	2241781	Cordl. drill driver SFE 2-A12 box	8330	0001	             3	PC	PC	000010	680846586	42216032	1000415	8300	L09	9999	8330	04.09.2024	01.07.2024	0010	56302124	1000415	D363982002	0013363982	            0002	26.06.2024	       0
		4051476606		10330681	4536970874	00001	2253086	Cordless rotary hammer TE 4-22 case	8330	0001	            32	PC	PC	000010	680849259	56400003242	HAT0564	8300	L15	9999	8330	04.09.2024	01.07.2024	0010	56295053	HAT0564	D348687001	0013348687	            0001	20.06.2024	       0
		4051479391		10345547	4537020708	00001	2322753	Combilaser PM 20-CGE	8330	0001	             4	PC	PC	000010	680889290	42239985	1000415	8300	L07	9999	8330	16.09.2024	10.07.2024	0020	56295124	1000415	D348922020	0013348922	            0020	20.06.2024	       7
		4051479391		10345547	4537020710	00001	2251347	Battery pack B 22-55 Li-ion	8330	0001	            16	PC	PC	000010	680889292	42239996	1000415	8300	L15	9999	8330	16.09.2024	10.07.2024	0050	56306828	1000415	D377495003	0013377495	            0003	02.07.2024	       0
		4051479392		10345547	4537020732	00001	2360540	Cordl. drill driver SF 8M-22 case	8330	0001	             5	PC	PC	000010	680889313	42242634	1000415	8300	L15	9999	8330	16.09.2024	10.07.2024	0010	56264104	1000415	D287583005	0013287583	            0005	21.05.2024	       0
		4051479392		10345547	4537020734	00001	2251351	Battery pack B 22-85 Li-ion	8330	0001	            84	PC	PC	000010	680889315	42242626	1000415	8300	L15	9999	8330	16.09.2024	10.07.2024	0050	56264104	1000415	D287583009	0013287583	            0009	21.05.2024	       0
		4051479394		10345547	4537020739	00001	2253853	Cordl. drill driver SF 4H-22 box	8330	0001	             4	PC	PC	000010	680889320	42239978	1000415	8300	L15	9999	8330	16.09.2024	10.07.2024	0020	56276853	1000415	D315834014	0013315834	            0014	03.06.2024	       0
		4051479385		10345552	4537020944	00001	2272096	2-hole Baseplate MT-B-O2 OC	8302	0001	           384	PC	PC	000010	680889506	56400004138	HAT0564	8300	L14	9999	8302	16.09.2024	10.07.2024	0010	56224644	HAT0564	D210970001	0013210970	            0001	12.04.2024	      70
		4051479386		10345550	4537020946	00001	2036444	Drywall screwdriver SD 5000 220V	8330	0001	             3	PC	PC	000010	680889508	56400004139	HAT0564	8300	L10	9999	8330	16.09.2024	10.07.2024	0010	56302480	HAT0564	D364670020	0013364670	            0020	27.06.2024	       0
		4051479387		10345550	4537020951	00001	2256703	Cordless rotary hammer TE 2-22 case	8330	0001	             4	PC	PC	000010	680889511	56400004144	HAT0564	8300	L15	9999	8330	16.09.2024	10.07.2024	0020	56280098	HAT0564	D321725006	0013321725	            0006	05.06.2024	       0
		4051479388		10345550	4537020960	00001	2253086	Cordless rotary hammer TE 4-22 case	8330	0001	            32	PC	PC	000010	680889518	56400004137	HAT0564	8300	L15	9999	8330	16.09.2024	10.07.2024	0020	56302952	HAT0564	D365242002	0013365242	            0002	27.06.2024	       0
		4051479388		10345550	4537020976	00001	2272096	2-hole Baseplate MT-B-O2 OC	8330	0001	            36	PC	PC	000010	680889528	56400004153	HAT0564	8300	L14	9999	8330	16.09.2024	10.07.2024	0010	56307785	HAT0564	D377495001	0013377495	            0001	02.07.2024	       0
		4051479389		10345550	4537020981	00001	2122713	Rotary hammer TE 3-ML 220V case	8330	0001	            32	PC	PC	000010	680889530	56400004146	HAT0564	8300	L08	9999	8330	16.09.2024	10.07.2024	0010	56262139	HAT0564	D283675002	0013283675	            0002	20.05.2024	       0
		4051482031		10359790	4537045023	00001	2251347	Battery pack B 22-55 Li-ion	8330	0001	            16	PC	PC	000010	680908205	42272511	1000415	8300	L15	9999	8330	12.09.2024	15.07.2024	0040	56306828	1000415	D377495002	0013377495	            0002	02.07.2024	       0
		4051482031		10359790	4537045026	00001	2149989	Concrete nail X-C 36 B3 MX	8330	0001	       180.000	PC	PC	000010	680908207	42269268	1000415	8300	L04	9999	8330	12.09.2024	15.07.2024	0060	56302463	1000415	D364782007	0013364782	            0007	27.06.2024	       0
		4051482035		10359795	4537046012	00001	2272096	2-hole Baseplate MT-B-O2 OC	8302	0001	           384	PC	PC	000010	680909047	56400005520	HAT0564	8300	L14	9999	8302	12.09.2024	15.07.2024	0010	56239644	HAT0564	D239738003	0013239738	            0003	25.04.2024	      70
		4051482036		10359793	4537047121	00001	2016889	Rotary hammer TE 1 220V box	8330	0001	            40	PC	PC	000010	680909924	56400005210	HAT0564	8300	L08	9999	8330	12.09.2024	15.07.2024	0010	56270676	HAT0564	D298166001	0013298166	            0001	27.05.2024	      42
		4051482037		10359793	4537047131	00001	2215458	Cordl. angle grinder AG 6D-22-125 case	8330	0001	             9	PC	PC	000010	680909931	56400005220	HAT0564	8300	L15	9999	8330	12.09.2024	15.07.2024	0010	56312462	HAT0564	D387188001	0013387188	            0001	08.07.2024	       0
		4051484753		10373354	4537081756	00001	2251351	Battery pack B 22-85 Li-ion	8750	0001	           180	PC	PC	000010	680937812	42302107	1000415	8750	L15	9999	8750	18.09.2024	22.07.2024	0020	56302203	1000415	D364134002	0013364134	            0002	26.06.2024	-6
		4051484753		10373354	4537081773	00001	2253848	Cordl. drill driver SF 4H-22 case	8750	0001	            18	PC	PC	000010	680937822	42301929	1000415	8750	L15	9999	8750	18.09.2024	22.07.2024	0010	56320638	1000415	D404447001	0013404447	            0001	15.07.2024	       0
		4051484782		10373378	4537081966	00001	2254882	Cordl. ham. dr. driver SF 6H-22 box	8330	0001	             2	PC	PC	000010	680938020	42301551	1000415	8300	L15	9999	8330	25.09.2024	22.07.2024	0010	56284221	1000415	D328226001	0013328226	            0001	10.06.2024	       0
		4051484783		10373378	4537081973	00001	2152385	Multi line laser PM 40-MG	8330	0001	             2	PC	PC	000010	680938027	42301942	1000415	8300	L07	9999	8330	25.09.2024	22.07.2024	0010	56323966	1000415	D408700003	0013408700	            0003	17.07.2024	       0
		4051484783		10373378	4537081977	00001	2388394	Battery charger C 4-22 220V box	8330	0001	            54	PC	PC	000010	680938031	42301936	1000415	8300	L15	9999	8330	25.09.2024	22.07.2024	0010	56321063	1000415	D405025003	0013405025	            0003	16.07.2024	       0
		4051484786		10373380	4537081989	00001	2215477	Water collector sys DD-WCS-500 V	8330	0001	             1	PC	PC	000010	680938043	42307253	1000415	8300	L09	9999	8330	25.09.2024	22.07.2024	0010	56320711	1000415	D403852014	0013403852	            0014	15.07.2024	       0
		4051484835		10373356	4537084283	00001	2273589	Beam clamp MT-BC-GXL T OC	8750	0001	           160	PC	PC	000010	680939742	56400006201	HAT0564	8750	L14	9999	8750	18.09.2024	22.07.2024	0010	56322686	HAT0564	D407206005	0013407206	            0005	17.07.2024	       0
		4051484777		10373376	4537084339	00001	2168492	A.-Channel HAC-C 40/25 250 F	8330	0001	           700	PC	PC	000010	680939758	56400006225	HAT0564	8300	L02	9999	8330	25.09.2024	22.07.2024	0010	56178895	HAT0564	D116554002	0013116554	            0002	29.02.2024	      28
		4051484778		10373376	4537084347	00001	2256703	Cordless rotary hammer TE 2-22 case	8330	0001	             2	PC	PC	000010	680939761	56400006404	HAT0564	8300	L15	9999	8330	25.09.2024	22.07.2024	0030	56280098	HAT0564	D321725009	0013321725	            0009	05.06.2024	       0
		4051484779		10373376	4537084352	00001	2251572	Rotary hammer TE 6-CL 220V case	8330	0001	             6	PC	PC	000010	680939763	56400006409	HAT0564	8300	L08	9999	8330	25.09.2024	22.07.2024	0040	56302952	HAT0564	D365242004	0013365242	            0004	27.06.2024	       0
		4051487494		10387856	4537118379	00001	2372878	Battery charger C 4/12-50 230V box	8330	0001	            80	PC	PC	000010	680967774	42334580	1000415	8300	L09	9999	8330	17.09.2024	29.07.2024	0020	56288771	1000415	D335878007	0013335878	            0007	13.06.2024	       0
		4051487497		10387857	4537118387	00001	2251351	Battery pack B 22-85 Li-ion	8330	0001	            12	PC	PC	000010	680967780	42323389	1000415	8300	L15	9999	8330	17.09.2024	29.07.2024	0050	56288771	1000415	D335878028	0013335878	            0028	13.06.2024	       0
		4051487497		10387857	4537118397	00001	436067	Concrete nail X-CS 27 P8 S23 C	8330	0001	        38.400	PC	PC	000010	680967789	42325994	1000415	8300	L04	9999	8330	17.09.2024	29.07.2024	0020	56323966	1000415	D408700001	0013408700	            0001	17.07.2024	       7
		4051487498		10387857	4537118403	00001	2207024	Conical washer X-CW S23	8330	0001	       115.200	PC	PC	000010	680967795	42327073	1000415	8300	L04	9999	8330	17.09.2024	29.07.2024	0040	56199183	1000415	D149744005	0013149744	            0005	14.03.2024	     121
		4051490494		10393852	4537150535	00001	228341	Ceiling hanger X-EHS W6 MX	8330	0001	        12.800	PC	PC	000010	680994086	1152366616	HUS4701	8300	L04	9999	8330	16.09.2024	02.08.2024	0010	56274050	HUS4701	D304711050	0013304711	            0050	30.05.2024	      35
		4051490403		10401437	4537152808	00001	2251347	Battery pack B 22-55 Li-ion	8330	0001	            16	PC	PC	000010	680995950	42356022	1000415	8300	L15	9999	8330	24.09.2024	05.08.2024	0010	56332358	1000415	D425118001	0013425118	            0001	25.07.2024	       0
		4051490403		10401437	4537152818	00001	2388394	Battery charger C 4-22 220V box	8330	0001	            54	PC	PC	000010	680995970	42356622	1000415	8300	L15	9999	8330	24.09.2024	05.08.2024	0010	56335043	1000415	D431794001	0013431794	            0001	30.07.2024	       0
		4051490396		10402228	4537155507	00001	2256703	Cordless rotary hammer TE 2-22 case	8330	0001	             6	PC	PC	000010	680998173	56400008537	HAT0564	8300	L15	9999	8330	24.09.2024	05.08.2024	0010	56293439	HAT0564	D345937004	0013345937	            0004	18.06.2024	       0
		4051490397		10402228	4537155514	00001	407501	Anchor rod HAS 8.8 M24x1000	8330	0001	            25	PC	PC	000010	680998180	56400008521	HAT0564	8300	L01	9999	8330	24.09.2024	05.08.2024	0010	56334905	HAT0564	D431785001	0013431785	            0001	29.07.2024	       0
		4051493068		10416157	4537186516	00001	2254882	Cordl. ham. dr. driver SF 6H-22 box	8330	0001	             2	PC	PC	000010	681023368	42382160	1000415	8300	L15	9999	8330	01.10.2024	12.08.2024	0010	56335745	1000415	D432993001	0013432993	            0001	30.07.2024	       0
		4051493068		10416157	4537186517	00001	2251351	Battery pack B 22-85 Li-ion	8330	0001	            12	PC	PC	000010	681023369	42382170	1000415	8300	L15	9999	8330	01.10.2024	12.08.2024	0050	56296329	1000415	D352701009	0013352701	            0009	20.06.2024	       0
		4051493068		10416157	4537186529	00001	2254883	Cordl. ham. dr. driver SF 6H-22 case	8330	0001	            10	PC	PC	000010	681023379	42383123	1000415	8300	L15	9999	8330	01.10.2024	12.08.2024	0070	56296329	1000415	D352701007	0013352701	            0007	20.06.2024	       0
		4051493070		10416162	4537189520	00001	2237090	Anchor rod HAS-U 8.8 M16x260	8330	0001	            80	PC	PC	000010	681025972	56400009277	HAT0564	8300	L01	9999	8330	01.10.2024	12.08.2024	0010	56343296	HAT0564	D451215002	0013451215	            0002	06.08.2024	       0
		4051493071		10416162	4537189530	00001	2004350	Rotary hammer TE 2 220V case	8330	0001	            30	PC	PC	000010	681025982	56400009302	HAT0564	8300	L08	9999	8330	01.10.2024	12.08.2024	0010	56255247	HAT0564	D269959001	0013269959	            0001	13.05.2024	      85
		4051493982		10421106	4537200768	00001	2330054	Circ. saw blade SCBM XCut Struct 165 A	8750	0001	            10	PC	PC	000010	681035181	56400009930	HAT0564	8750	L09	9999	8750	10.09.2024	14.08.2024	0010	56323938	HAT0564	D409415001	0013409415	            0001	17.07.2024	       0
		4051493980		10421105	4537201391	00001	2223822	Anchor rod HAS-U 5.8 M12x120	8750	0001	           180	PC	PC	000010	681035816	42399989	1000415	8750	L01	9999	8750	10.09.2024	14.08.2024	0010	56315133	1000415	D392696001	0013392696	            0001	09.07.2024	-14
		4051493981		10421105	4537201392	00001	2361528	Cordl. imp. wrench SIW 10-22 3/4" case	8750	0001	            10	PC	PC	000010	681035817	42401060	1000415	8750	L15	9999	8750	10.09.2024	14.08.2024	0010	56340691	1000415	D446351001	0013446351	            0001	05.08.2024	-36
		4051462469		10257761	4536772444	00001	2190184	Laser range meter PD-S	8330	0001	             1	PC	PC	000010	680685395	42060414	1000415	8300	L07	9999	8330	14.08.2024	27.05.2024	0010	56261544	1000415	D282817008	0013282817	            0008	18.05.2024	       0
		4051476597		10330426	4536967837	00001	2252534	Cordl. crimper NUN 54-22 case	8330	0001	             1	PC	PC	000010	680846557	42216165	1000415	8300	L15	9999	8330	04.09.2024	01.07.2024	0020	56302140	1000415	D363986010	0013363986	            0010	26.06.2024	       0
		4051476603		10330682	4536970878	00001	304003	I.-Channel MQ-41D-R 6m	8330	0001	           108	M	M	000010	680849264	56400003400	HAT0564	8300	L06	9999	8330	04.09.2024	01.07.2024	0010	56278514	HAT0564	D319228001	0013319228	            0001	04.06.2024	       7
		4051479384		10345551	4537020765	00001	2268367	I.-Girder MT-80 OC	8330	0001	           198	M	M	000010	680889346	56400004486	HAT0564	8300	L14	9999	8330	06.09.2024	10.07.2024	0010	56293557	HAT0564	D345873002	0013345873	            0002	18.06.2024	       0
		4051482034		10359791	4537045044	00001	2007059	Cartridge holder HIT-CR 500	8330	0001	            27	PC	PC	000010	680908217	42269439	1000415	8300	L01	9999	8330	12.09.2024	15.07.2024	0020	56315671	1000415	D394749002	0013394749	            0002	10.07.2024	       0
		4051482034		10359791	4537045046	00001	2252514	Cordl. cable cutter NCT 85 C-22 case	8330	0001	             1	PC	PC	000010	680908218	42279055	1000415	8300	L15	9999	8330	12.09.2024	15.07.2024	0010	56294136	1000415	D345300013	0013345300	            0013	18.06.2024	      21
		4051482038		10359794	4537045602	00001	2268369	I.-Girder MT-90 OC	8330	0001	           168	M	M	000010	680908714	56400005335	HAT0564	8300	L14	9999	8330	12.09.2024	15.07.2024	0030	56231143	HAT0564	D223013003	0013223013	            0003	18.04.2024	      77
		4051482039		10359794	4537045611	00001	2119867	Girder MIQ-90 6m	8330	0001	            90	M	M	000010	680908723	56400005544	HAT0564	8300	L06	9999	8330	12.09.2024	15.07.2024	0010	56303613	HAT0564	D366078001	0013366078	            0001	27.06.2024	       7
		4051484834		10373355	4537081782	00001	2007059	Cartridge holder HIT-CR 500	8750	0001	            15	PC	PC	000010	680937827	42300330	1000415	8750	L01	9999	8750	18.09.2024	22.07.2024	0010	56322955	1000415	D408092001	0013408092	            0001	17.07.2024	       0
		4051484786		10373380	4537081987	00001	2007059	Cartridge holder HIT-CR 500	8330	0001	            25	PC	PC	000010	680938041	42300350	1000415	8300	L01	9999	8330	25.09.2024	22.07.2024	0010	56322951	1000415	D408088001	0013408088	            0001	17.07.2024	       0
		4051484755		10373357	4537084277	00001	2268367	I.-Girder MT-80 OC	8750	0001	           198	M	M	000010	680939738	56400006437	HAT0564	8750	L14	9999	8750	18.09.2024	22.07.2024	0020	56322683	HAT0564	D407206004	0013407206	            0004	17.07.2024	       0
		4051489872		10393851	4537143361	00001	416475	DX Cartridge 6.8/11 M10 STD black	8330	0001	        10.000	PC	PC	000010	680988169	1152366596	HUS4701	8300	L04	9999	8330	19.08.2024	01.08.2024	0010	56302469	HUS4701	D364709001	0013364709	            0001	26.06.2024	      35
		4051493067		10416156	4537186515	00001	2163394	Crimping jaw NCR J SU BULK	8330	0001	             5	PC	PC	000010	681023367	42383349	1000415	8300	L09	9999	8330	01.10.2024	12.08.2024	0010	56340006	1000415	D444898001	0013444898	            0001	02.08.2024	       0
		4051493073		10416243	4537189534	00001	2268365	I.-Girder MT-70 OC	8330	0001	           324	M	M	000010	681025985	56400009253	HAT0564	8300	L14	9999	8330	01.10.2024	12.08.2024	0050	56293557	HAT0564	D345873014	0013345873	            0014	18.06.2024	      35
		4051493863		10419828	4537197432	00001	360486	Mesh sleeve HIT-SC 18x85	8750	0001	            60	PC	PC	000010	681032294	42396003	1000415	8750	L03	9999	8750	20.08.2024	13.08.2024	0010	56347102	1000415	D456978001	0013456978	            0001	09.08.2024	       1
		4051493983		10421106	4537200770	00001	2404612	Int. conc. vibrator NCV 58x3000-2.25x10	8750	0001	             2	PC	PC	000010	681035182	56400009945	HAT0564	8750	L15	9999	8750	10.09.2024	14.08.2024	0010	56338937	HAT0564	D442796001	0013442796	            0001	01.08.2024	       0
		4051462469		10257761	4536772451	00001	2183180	Battery pack B 22/4.0 Li-ion	8330	0001	            50	PC	PC	000010	680685402	42060840	1000415	8300	L15	9999	8330	14.08.2024	27.05.2024	0050	56234822	1000415	D232352006	0013232352	            0006	22.04.2024	       0
		4051466033		10265118	4536816319	00001	2197990	Anchor rod HAS-E-55 1/2"x4-1/2"	8330	0001	            20	PC	PC	000010	680721301	1150968456	HUS4701	8300	L01	9999	8330	21.08.2024	04.06.2024	0020	56267070	HUS4701	D292005002	0013292005	            0002	23.05.2024	-21
		4051466034		10265118	4536816324	00001	2198001	Anchor rod HAS-E-55 3/4"x12"	8330	0001	            20	PC	PC	000010	680721306	1150968455	HUS4701	8300	L01	9999	8330	21.08.2024	04.06.2024	0010	56255420	HUS4701	D273730001	0013273730	            0001	13.05.2024	-7
		4051466034		10265118	4536816334	00001	2062739	Flush anchor HDI-L+ 3/8"	8330	0001	         1.200	PC	PC	000010	680721320	1150968453	HUS4701	8300	L02	9999	8330	21.08.2024	04.06.2024	0010	56261325	HUS4701	D281431001	0013281431	            0001	17.05.2024	      13
		4051466034		10265118	4536816335	00001	2062739	Flush anchor HDI-L+ 3/8"	8330	0001	         1.200	PC	PC	000010	680721322	1150968452	HUS4701	8300	L02	9999	8330	21.08.2024	04.06.2024	0020	56261396	HUS4701	D282520003	0013282520	            0003	17.05.2024	-14
		4051466034		10265118	4536816337	00001	315703	Impact socket S-NSD 1/2"-15/16" S	8330	0001	             2	PC	PC	000010	680721324	1150968459	HUS4701	8300	L09	9999	8330	21.08.2024	04.06.2024	0010	56261409	HUS4701	D282806010	0013282806	            0010	17.05.2024	-14
		4051466034		10265118	4536816338	00001	2197996	Anchor rod HAS-E-55 5/8"x9"	8330	0001	            90	PC	PC	000010	680721326	1150968454	HUS4701	8300	L01	9999	8330	21.08.2024	04.06.2024	0020	56157993	HUS4701	D079758087	0013079758	            0087	12.02.2024	      84
		4051466034		10265118	4536816339	00001	409499	Flush anchor HDI-P 3/8"	8330	0001	         9.600	PC	PC	000010	680721328	1150968449	HUS4701	8300	L02	9999	8330	21.08.2024	04.06.2024	0050	56231039	HUS4701	D225004006	0013225004	            0006	18.04.2024	      14
		4051473627		10308447	4536925061	00001	385473	Anchor rod HAS-R 304 SS 7/8"x10"	8330	0001	            10	PC	PC	000010	680810678	1151449718	HUS4701	8300	L01	9999	8330	16.09.2024	21.06.2024	0020	56281620	HUS4701	D324076003	0013324076	            0003	07.06.2024	       7
		4051473627		10308447	4536925063	00001	385465	Anchor rod HAS-R 304 SS 1/2"x8"	8330	0001	            10	PC	PC	000010	680810680	1151449720	HUS4701	8300	L01	9999	8330	16.09.2024	21.06.2024	0010	56271947	HUS4701	D300240001	0013300240	            0001	28.05.2024	      21
		4051473627		10308447	4536925064	00001	2221951	Screw anchor KH-EZ CRC 3/8"x4"	8330	0001	         1.000	PC	PC	000010	680810681	1151449727	HUS4701	8300	L02	9999	8330	16.09.2024	21.06.2024	0050	56281620	HUS4701	D324076007	0013324076	            0007	07.06.2024	-7
		4051473627		10308447	4536925065	00001	2198008	Anchor rod HAS-E-55 7/8"x13"	8330	0001	            16	PC	PC	000010	680810682	1151449729	HUS4701	8300	L01	9999	8330	16.09.2024	21.06.2024	0010	56271832	HUS4701	D301253001	0013301253	            0001	29.05.2024	       0
		4051473627		10308447	4536925068	00001	385464	Anchor rod HAS-R 304 SS 1/2"x6-1/2"	8330	0001	           100	PC	PC	000010	680810685	1151449731	HUS4701	8300	L01	9999	8330	16.09.2024	21.06.2024	0010	56267070	HUS4701	D292005001	0013292005	            0001	23.05.2024	       0
		4051473627		10308447	4536925069	00001	434438	Screw anchor KH 3/8"x3 1/2"	8330	0001	           500	PC	PC	000010	680810686	1151449732	HUS4701	8300	L02	9999	8330	16.09.2024	21.06.2024	0020	56274124	HUS4701	D304769004	0013304769	            0004	31.05.2024	-7
		4051473628		10308447	4536925073	00001	2197997	Anchor rod HAS-E-55 5/8"x12"	8330	0001	           180	PC	PC	000010	680810690	1151449722	HUS4701	8300	L01	9999	8330	16.09.2024	21.06.2024	0020	56261348	HUS4701	D281433003	0013281433	            0003	17.05.2024	       7
		4051473628		10308447	4536925074	00001	2197996	Anchor rod HAS-E-55 5/8"x9"	8330	0001	            90	PC	PC	000010	680810691	1151449728	HUS4701	8300	L01	9999	8330	16.09.2024	21.06.2024	0030	56157993	HUS4701	D079758	0013079758	            0000	12.02.2024	       0
		4051473490		10315445	4536928754	00001	2351668	Wall saw blade DS-BT 1000x4.5/60H MCL	8750	0001	             2	PC	PC	000010	680813724	42185080	1000415	8750	L12	9999	8750	26.08.2024	24.06.2024	0020	56270148	1000415	D298013013	0013298013	            0013	28.05.2024	       0
		4051476604		10330681	4536970869	00001	293411	Hammer drill bit TE-YX 32/130	8330	0001	             1	PC	PC	000010	680849254	56400003116	HAT0564	8300	L09	9999	8330	04.09.2024	01.07.2024	0020	56298421	HAT0564	D354163001	0013354163	            0001	21.06.2024	       0
		4051478731		10338936	4537020688	00001	434438	Screw anchor KH 3/8"x3 1/2"	8330	0001	            50	PC	PC	000010	680889271	1151782456	HUS4701	8300	L02	9999	8330	16.09.2024	10.07.2024	0010	56291823	HUS4701	D343528001	0013343528	            0001	17.06.2024	-7
		4051478731		10338936	4537020689	00001	385462	Anchor rod HAS-R 304 SS 3/8"x5-1/8"	8330	0001	           120	PC	PC	000010	680889272	1151782458	HUS4701	8300	L01	9999	8330	16.09.2024	10.07.2024	0010	56290259	HUS4701	D337863010	0013337863	            0010	14.06.2024	-7
		4051478731		10338936	4537020691	00001	385469	Anchor rod HAS-R 304 SS 3/4"x9-5/8"	8330	0001	            10	PC	PC	000010	680889274	1151782468	HUS4701	8300	L01	9999	8330	16.09.2024	10.07.2024	0010	56302227	HUS4701	D363795007	0013363795	            0007	26.06.2024	-21
		4051478731		10338936	4537020696	00001	385464	Anchor rod HAS-R 304 SS 1/2"x6-1/2"	8330	0001	           160	PC	PC	000010	680889278	1151782452	HUS4701	8300	L01	9999	8330	16.09.2024	10.07.2024	0010	56302237	HUS4701	D364284001	0013364284	            0001	26.06.2024	       7
		4051478732		10338936	4537020700	00001	2221951	Screw anchor KH-EZ CRC 3/8"x4"	8330	0001	           350	PC	PC	000010	680889282	1151782457	HUS4701	8300	L02	9999	8330	16.09.2024	10.07.2024	0010	56281620	HUS4701	D324076001	0013324076	            0001	07.06.2024	       0
		4051478733		10338936	4537020701	00001	2045002	Anchor rod HAS-R 316 SS 3/8"x8"	8330	0001	            30	PC	PC	000010	680889283	1151782467	HUS4701	8300	L01	9999	8330	16.09.2024	10.07.2024	0070	56255420	HUS4701	D273730008	0013273730	            0008	13.05.2024	      28
		4051479393		10345547	4537020735	00001	2190184	Laser range meter PD-S	8330	0001	             4	PC	PC	000010	680889316	42242650	1000415	8300	L07	9999	8330	16.09.2024	10.07.2024	0020	56302479	1000415	D364670023	0013364670	            0023	27.06.2024	       0
		4051479395		10345548	4537020742	00001	2351661	Wall saw blade DS-BT 600x4.8/60H MCL	8330	0001	             2	PC	PC	000010	680889323	42241328	1000415	8300	L12	9999	8330	16.09.2024	10.07.2024	0020	56305167	1000415	D368562011	0013368562	            0011	29.06.2024	       0
		4051479386		10345550	4537020945	00001	293230	Hammer drill bit TE-YX 25/130	8330	0001	             2	PC	PC	000010	680889507	56400004142	HAT0564	8300	L09	9999	8330	16.09.2024	10.07.2024	0010	56308318	HAT0564	D380542002	0013380542	            0002	02.07.2024	       0
		4051484650		10366874	4537074233	00001	2198009	Anchor rod HAS-E-55 1"x12"	8330	0001	           224	PC	PC	000010	680931336	1152079166	HUS4701	8300	L01	9999	8330	16.09.2024	19.07.2024	0010	56264038	HUS4701	D286614001	0013286614	            0001	21.05.2024	      56
		4051484652		10366874	4537074236	00001	2291201	Adaptive torque module SI-AT-22 inch	8330	0001	             2	PC	PC	000010	680931339	1152079172	HUS4701	8300	L15	9999	8330	16.09.2024	19.07.2024	0010	56308213	HUS4701	D380372013	0013380372	            0013	02.07.2024	-28
		4051484652		10366874	4537074237	00001	2080046	Flush anchor HDI+ 1/2"	8330	0001	           250	PC	PC	000010	680931340	1152079170	HUS4701	8300	L02	9999	8330	16.09.2024	19.07.2024	0010	56308330	HUS4701	D379434003	0013379434	            0003	03.07.2024	-14
		4051484652		10366874	4537074238	00001	2291201	Adaptive torque module SI-AT-22 inch	8330	0001	             3	PC	PC	000010	680931341	1152079171	HUS4701	8300	L15	9999	8330	16.09.2024	19.07.2024	0010	56309434	HUS4701	D381938002	0013381938	            0002	03.07.2024	-35
		4051484652		10366874	4537074239	00001	2210272	Ultimate exp anc KB-TZ2 5/8x5 1/2	8330	0001	            75	PC	PC	000010	680931342	1152079173	HUS4701	8300	L02	9999	8330	16.09.2024	19.07.2024	0010	56319277	HUS4701	D399583001	0013399583	            0001	12.07.2024	       6
		4051484652		10366874	4537074240	00001	2198013	Anchor rod HAS-E-55 1-1/4"x16"	8330	0001	            16	PC	PC	000010	680931343	1152079169	HUS4701	8300	L01	9999	8330	16.09.2024	19.07.2024	0010	56303832	HUS4701	D366705004	0013366705	            0004	28.06.2024	-7
		4051484652		10366874	4537074241	00001	418071	Screw anchor KH-EZ 1/2"x3"	8330	0001	         1.500	PC	PC	000010	680931344	1152079168	HUS4701	8300	L02	9999	8330	16.09.2024	19.07.2024	0010	56305037	HUS4701	D368309001	0013368309	            0001	28.06.2024	      20
		4051484834		10373355	4537081805	00001	2330982	Pipe shoe MP-PS L2-2 88-94 3" OC	8750	0001	            16	PC	PC	000010	680937839	42307290	1000415	8750	L06	9999	8750	18.09.2024	22.07.2024	0160	56320959	1000415	D404679008	0013404679	            0008	15.07.2024	      56
		4051484781		10373377	4537084312	00001	2268512	I.-Channel MT-50 OC	8330	0001	           300	M	M	000010	680939747	56400006414	HAT0564	8300	L14	9999	8330	25.09.2024	22.07.2024	0030	56293557	HAT0564	D345873004	0013345873	            0004	18.06.2024	       0
		4051490495		10393852	4537150536	00001	2221951	Screw anchor KH-EZ CRC 3/8"x4"	8330	0001	         3.050	PC	PC	000010	680994087	1152366618	HUS4701	8300	L02	9999	8330	16.09.2024	02.08.2024	0010	56293558	HUS4701	D345873001	0013345873	            0001	18.06.2024	      42
		4051490495		10393852	4537150537	00001	2198007	Anchor rod HAS-E-55 7/8"x10"	8330	0001	            80	PC	PC	000010	680994088	1152366619	HUS4701	8300	L01	9999	8330	16.09.2024	02.08.2024	0060	56329489	HUS4701	D421027006	0013421027	            0006	23.07.2024	-14
		4051490495		10393852	4537150538	00001	2411242	Screw anchor KH-EZ 1/2"X3 1/2"	8330	0001	           500	PC	PC	000010	680994089	1152366620	HUS4701	8300	L02	9999	8330	16.09.2024	02.08.2024	0010	56303676	HUS4701	D365525001	0013365525	            0001	27.06.2024	      70
		4051490495		10393852	4537150539	00001	2197968	Anchor rod HAS-B-105 1 1/4"x23"	8330	0001	            10	PC	PC	000010	680994090	1152366623	HUS4701	8300	L01	9999	8330	16.09.2024	02.08.2024	0010	56332103	HUS4701	D425264003	0013425264	            0003	25.07.2024	-14
		4051490495		10393852	4537150540	00001	2210175	Ultimate exp anc KB-TZ2 1/4x3 1/4	8330	0001	           100	PC	PC	000010	680994091	1152366624	HUS4701	8300	L02	9999	8330	16.09.2024	02.08.2024	0050	56329489	HUS4701	D421027005	0013421027	            0005	23.07.2024	-14
		4051490495		10393852	4537150543	00001	418059	Screw anchor KH-EZ 3/8"x4"	8330	0001	           300	PC	PC	000010	680994094	1152366625	HUS4701	8300	L02	9999	8330	16.09.2024	02.08.2024	0010	56305038	HUS4701	D368310001	0013368310	            0001	28.06.2024	      34
		4051490495		10393852	4537150544	00001	2113273	Impact socket SI-S 3/4" - 1-1/2 L	8330	0001	             1	PC	PC	000010	680994095	1152366626	HUS4701	8300	L09	9999	8330	16.09.2024	02.08.2024	0010	56320713	HUS4701	D403852004	0013403852	            0004	15.07.2024	-7
		4051490495		10393852	4537150549	00001	385464	Anchor rod HAS-R 304 SS 1/2"x6-1/2"	8330	0001	            40	PC	PC	000010	680994100	1152366631	HUS4701	8300	L01	9999	8330	16.09.2024	02.08.2024	0020	56322418	HUS4701	D407246002	0013407246	            0002	16.07.2024	-7
		4051490496		10393852	4537150550	00001	2198011	Anchor rod HAS-E-55 1"x16"	8330	0001	            30	PC	PC	000010	680994101	1152366621	HUS4701	8300	L01	9999	8330	16.09.2024	02.08.2024	0030	56208423	HUS4701	D176799003	0013176799	            0003	27.03.2024	      63
		4051493066		10416155	4537186505	00001	2183183	Battery pack B 22/8.0 Li-ion	8330	0001	            11	PC	PC	000010	681023357	42382182	1000415	8300	L15	9999	8330	01.10.2024	12.08.2024	0020	56299277	1000415	D358499005	0013358499	            0005	24.06.2024	       0
		4051493067		10416156	4537186508	00001	304198	Bored plate MQZ-L13-F	8330	0001	           100	PC	PC	000010	681023360	42379987	1000415	8300	L06	9999	8330	01.10.2024	12.08.2024	0030	56339006	1000415	D442988018	0013442988	            0018	01.08.2024	       0
		4051493069		10416157	4537186541	00001	2183180	Battery pack B 22/4.0 Li-ion	8330	0001	            10	PC	PC	000010	681023389	42382173	1000415	8300	L15	9999	8330	01.10.2024	12.08.2024	0060	56296329	1000415	D352701013	0013352701	            0013	20.06.2024	       0
		4051462469		10257761	4536772442	00001	2388380	Cordless data module IC CDM-22	8330	0001	            15	PC	PC	000010	680685392	42059696	1000415	8300	L15	9999	8330	14.08.2024	27.05.2024	0010	56221875	1000415	D207549015	0013207549	            0015	10.04.2024	       0
		4051466034		10265118	4536816328	00001	2213356	Cast-in device CP 680-P 3''	8330	0001	            32	PC	PC	000010	680721310	1150968450	HUS4701	8300	L03	9999	8330	21.08.2024	04.06.2024	0020	56252619	HUS4701	D266760003	0013266760	            0003	09.05.2024	-7
		4051466034		10265118	4536816346	00001	2191164	Circ. saw blade SPX FI 7 1/4" T40	8330	0001	             5	PC	PC	000010	680721343	1150968457	HUS4701	8300	L09	9999	8330	21.08.2024	04.06.2024	0010	56264082	HUS4701	D287461004	0013287461	            0004	21.05.2024	-14
		4051473627		10308447	4536925070	00001	2158772	Hollow wall met. anchor HTB-2-S 1/4 SRH	8330	0001	         1.500	PC	PC	000010	680810687	1151449733	HUS4701	8300	L02	9999	8330	16.09.2024	21.06.2024	0010	56267075	HUS4701	D291460001	0013291460	            0001	23.05.2024	      28
		4051476596		10330426	4536967831	00001	2174664	Connector MIC-CU-MAH concrete	8330	0001	             4	PC	PC	000010	680846551	42215744	1000415	8300	L06	9999	8330	04.09.2024	01.07.2024	0010	56281305	1000415	D319584003	0013319584	            0003	04.06.2024	       7
		4051478731		10338936	4537020693	00001	340645	Firestop mortar CP 637 FS	8330	0001	             1	PC	PC	000010	680889275	1151782469	HUS4701	8300	L03	9999	8330	16.09.2024	10.07.2024	0010	56288722	HUS4701	D335764001	0013335764	            0001	13.06.2024	      21
		4051478731		10338936	4537020694	00001	2213356	Cast-in device CP 680-P 3''	8330	0001	           416	PC	PC	000010	680889276	1151782451	HUS4701	8300	L03	9999	8330	16.09.2024	10.07.2024	0020	56290259	HUS4701	D337863014	0013337863	            0014	14.06.2024	-7
		4051478731		10338936	4537020697	00001	2158774	Hollow wall met. anchor HTB-2-S 3/8 SRH	8330	0001	           700	PC	PC	000010	680889279	1151782462	HUS4701	8300	L02	9999	8330	16.09.2024	10.07.2024	0010	56297594	HUS4701	D353694001	0013353694	            0001	21.06.2024	      13
		4051479393		10345547	4537020737	00001	2332169	Telematics gateway TU600-25	8330	0001	             1	PC	PC	000010	680889318	42239998	1000415	8300	L13	9999	8330	16.09.2024	10.07.2024	0040	56302479	1000415	D364670029	0013364670	            0029	27.06.2024	       0
		4051479395		10345548	4537020748	00001	2220067	Univ. vacuum cleaner VC 40L-X 230V	8330	0001	             4	PC	PC	000010	680889329	42245179	1000415	8300	L05	9999	8330	16.09.2024	10.07.2024	0010	56306828	1000415	D377495005	0013377495	            0005	02.07.2024	       0
		4051479396		10345548	4537020749	00001	2220067	Univ. vacuum cleaner VC 40L-X 230V	8330	0001	             4	PC	PC	000010	680889330	42245180	1000415	8300	L05	9999	8330	16.09.2024	10.07.2024	0010	56274049	1000415	D304711001	0013304711	            0001	30.05.2024	       0
		4051483880		10366560	4537062511	00001	2210796	DX Cartridge 6.8/11 M10 red	8750	0001	       240.000	PC	PC	000010	680922344	1152077840	HUS4701	8750	L04	9999	8750	15.08.2024	17.07.2024	0010	56260096	HUS4701	D281172001	0013281172	            0001	16.05.2024	      33
		4051484785		10373380	4537081981	00001	2300626	Battery charger C 8-22 220V box	8330	0001	             4	PC	PC	000010	680938035	42298450	1000415	8300	L15	9999	8330	25.09.2024	22.07.2024	0010	56278560	1000415	D319098008	0013319098	            0008	04.06.2024	       0
		4051487494		10387856	4537118377	00001	2300626	Battery charger C 8-22 220V box	8330	0001	             8	PC	PC	000010	680967772	42325454	1000415	8300	L15	9999	8330	17.09.2024	29.07.2024	0010	56288771	1000415	D335878006	0013335878	            0006	13.06.2024	       0
		4051487496		10387857	4537118386	00001	2388380	Cordless data module IC CDM-22	8330	0001	            33	PC	PC	000010	680967779	42323400	1000415	8300	L15	9999	8330	17.09.2024	29.07.2024	0030	56288771	1000415	D335878033	0013335878	            0033	13.06.2024	       0
		4051489391		10395276	4537136994	00001	2213357	Cast-in device CP 680-P 6''	8330	0001	           128	PC	PC	000010	680983137	1152373818	HUS4701	8300	L03	9999	8330	16.09.2024	31.07.2024	0030	56322418	HUS4701	D407246003	0013407246	            0003	16.07.2024	-7
		4051489394		10395273	4537137011	00001	2172997	Cast-in device CP 680-P 4"	8330	0001	           288	PC	PC	000010	680983154	1152372723	HUS4701	8300	L03	9999	8330	16.09.2024	31.07.2024	0010	56332081	HUS4701	D424555002	0013424555	            0002	25.07.2024	-14
		4051490495		10393852	4537150547	00001	2172997	Cast-in device CP 680-P 4"	8330	0001	             2	PC	PC	000010	680994098	1152366629	HUS4701	8300	L03	9999	8330	16.09.2024	02.08.2024	0040	56322418	HUS4701	D407246004	0013407246	            0004	16.07.2024	-7
		4051490495		10393852	4537150548	00001	2191164	Circ. saw blade SPX FI 7 1/4" T40	8330	0001	             5	PC	PC	000010	680994099	1152366630	HUS4701	8300	L09	9999	8330	16.09.2024	02.08.2024	0010	56333239	HUS4701	D426804002	0013426804	            0002	26.07.2024	-21
		4051490400		10401436	4537152806	00001	2220067	Univ. vacuum cleaner VC 40L-X 230V	8330	0001	             4	PC	PC	000010	680995948	42360364	1000415	8300	L05	9999	8330	24.09.2024	05.08.2024	0040	56335043	1000415	D431794002	0013431794	            0002	30.07.2024	       0
		4051493069		10416157	4537186544	00001	2388380	Cordless data module IC CDM-22	8330	0001	            33	PC	PC	000010	681023392	42382192	1000415	8300	L15	9999	8330	01.10.2024	12.08.2024	0010	56299277	1000415	D358499013	0013358499	            0013	24.06.2024	       0
		4051493072		10416162	4537189533	00001	339795	Threaded rod AM10x1000 4.8 zinced	8330	0001	           960	PC	PC	000010	681025984	56400009249	HAT0564	8300	L06	9999	8330	01.10.2024	12.08.2024	0010	56339007	HAT0564	D442988024	0013442988	            0024	01.08.2024	       0
		4051462470		10257761	4536772459	00001	2152385	Multi line laser PM 40-MG	8330	0001	             2	PC	PC	000010	680685410	42060814	1000415	8300	L07	9999	8330	14.08.2024	27.05.2024	0020	56261544	1000415	D282817027	0013282817	            0027	18.05.2024	       0
		4051462470		10257761	4536772467	00001	2361528	Cordl. imp. wrench SIW 10-22 3/4" case	8330	0001	             3	PC	PC	000010	680685418	42061265	1000415	8300	L15	9999	8330	14.08.2024	27.05.2024	0020	56232778	1000415	D226779035	0013226779	            0035	19.04.2024	       0
		4051465083		10267853	4536807957	00001	2149989	Concrete nail X-C 36 B3 MX	8330	0001	       216.000	PC	PC	000010	680714288	42088957	1000415	8300	L04	9999	8330	02.09.2024	03.06.2024	0030	56250902	1000415	D264364005	0013264364	            0005	08.05.2024	      15
		4051465084		10267853	4536807964	00001	2272104	4-hole Baseplate MT-B-GXL O4 OC	8330	0001	            18	PC	PC	000010	680714296	42089400	1000415	8300	L14	9999	8330	02.09.2024	03.06.2024	0010	56271861	1000415	D300951001	0013300951	            0001	28.05.2024	       0
		4051465084		10267853	4536807970	00001	2127986	Flush anchor HKV 5/16"x30	8330	0001	         8.000	PC	PC	000010	680714301	42090077	1000415	8300	L02	9999	8330	02.09.2024	03.06.2024	0010	56267062	1000415	D291695001	0013291695	            0001	23.05.2024	-112
		4051470955		10300540	4536888484	00001	2251347	Battery pack B 22-55 Li-ion	8330	0001	            16	PC	PC	000010	680780324	42155032	1000415	8300	L15	9999	8330	19.08.2024	17.06.2024	0020	56242625	1000415	D245716002	0013245716	            0002	29.04.2024	       0
		4051470955		10300540	4536888486	00001	2251625	Cordl. imp. wrench SIW 8-22 1/2" case	8330	0001	             3	PC	PC	000010	680780326	42155048	1000415	8300	L15	9999	8330	19.08.2024	17.06.2024	0020	56247278	1000415	D256625002	0013256625	            0002	03.05.2024	       0
		4051470956		10300540	4536888492	00001	2272074	Connector MT-C-GSP T OC plate	8330	0001	            20	PC	PC	000010	680780333	42155882	1000415	8300	L14	9999	8330	19.08.2024	17.06.2024	0010	56287427	1000415	D333450001	0013333450	            0001	12.06.2024	       0
		4051470957		10300540	4536888502	00001	2127987	Flush anchor HKV 3/8"x30	8330	0001	        16.000	PC	PC	000010	680780342	42155875	1000415	8300	L02	9999	8330	19.08.2024	17.06.2024	0020	56284494	1000415	D328263002	0013328263	            0002	11.06.2024	       0
		4051470960		10300966	4536889237	00001	2352793	Int. conc. vibrator NCV 4-22 cordl.	8330	0001	             2	PC	PC	000010	680780958	56400001090	HAT0564	8300	L15	9999	8330	19.08.2024	17.06.2024	0030	56240871	HAT0564	D241507002	0013241507	            0002	26.04.2024	       0
		4051483357		10366275	4537061267	00001	378544	Flush anchor HKD M12x50	8750	0001	           300	PC	PC	000010	680921271	42291404	1000415	8750	L02	9999	8750	20.08.2024	17.07.2024	0010	56303092	1000415	D365150001	0013365150	            0001	27.06.2024	-42
		4051465092		10267856	4536811973	00001	2268365	I.-Girder MT-70 OC	8330	0001	           324	M	M	000010	680718020	42094257	HAT0564	8300	L14	9999	8330	14.08.2024	03.06.2024	0010	56231143	HAT0564	D223013001	0013223013	            0001	18.04.2024	      21
		4051473388		10315444	4536928725	00001	2251351	Battery pack B 22-85 Li-ion	8750	0001	            12	PC	PC	000010	680813699	42162492	1000415	8750	L15	9999	8750	26.08.2024	24.06.2024	0010	56262581	1000415	D283220001	0013283220	            0001	20.05.2024	       0
		4051473389		10315444	4536928730	00001	2251351	Battery pack B 22-85 Li-ion	8750	0001	            72	PC	PC	000010	680813703	42186964	1000415	8750	L15	9999	8750	26.08.2024	24.06.2024	0010	56283297	1000415	D325472001	0013325472	            0001	07.06.2024	       0
		4051473389		10315444	4536928731	00001	2251625	Cordl. imp. wrench SIW 8-22 1/2" case	8750	0001	            32	PC	PC	000010	680813704	42186965	1000415	8750	L15	9999	8750	26.08.2024	24.06.2024	0010	56196658	1000415	D153781001	0013153781	            0001	18.03.2024	      17
		4051473535		10315447	4536933958	00001	2223881	Anchor rod HAS-U 5.8 M24x300	8750	0001	           100	PC	PC	000010	680818631	56400002383	HAT0564	8750	L01	9999	8750	26.08.2024	25.06.2024	0020	56183165	HAT0564	D131212	0013131212	            0000	05.03.2024	       0
		4051476599		10330427	4536967841	00001	2207024	Conical washer X-CW S23	8330	0001	       115.200	PC	PC	000010	680846561	42216734	1000415	8300	L04	9999	8330	04.09.2024	01.07.2024	0020	56208130	1000415	D176636002	0013176636	            0002	27.03.2024	      77
		4051476600		10330427	4536967850	00001	2152385	Multi line laser PM 40-MG	8330	0001	             2	PC	PC	000010	680846569	42211991	1000415	8300	L07	9999	8330	04.09.2024	01.07.2024	0010	56284140	1000415	D327856002	0013327856	            0002	10.06.2024	       0
		4051476600		10330427	4536967851	00001	2149989	Concrete nail X-C 36 B3 MX	8330	0001	       180.000	PC	PC	000010	680846570	42216731	1000415	8300	L04	9999	8330	04.09.2024	01.07.2024	0070	56274033	1000415	D304811017	0013304811	            0017	30.05.2024	      14
		4051476601		10330427	4536967861	00001	2365081	Cordl. imp. wrench SIW 6AT-22 1/2'' case	8330	0001	             8	PC	PC	000010	680846579	42216032	1000415	8300	L15	9999	8330	04.09.2024	01.07.2024	0010	56296232	1000415	D352347001	0013352347	            0001	20.06.2024	       0
		4051476605		10330681	4536970870	00001	2288419	U-bolt MP-UB 273 10" M12 OC	8330	0001	            60	PC	PC	000010	680849255	56400003137	HAT0564	8300	L14	9999	8330	04.09.2024	01.07.2024	0010	56271856	HAT0564	D300956001	0013300956	            0001	28.05.2024	      21
		4051476606		10330681	4536970875	00001	2253086	Cordless rotary hammer TE 4-22 case	8330	0001	             3	PC	PC	000010	680849260	56400003161	HAT0564	8300	L15	9999	8330	04.09.2024	01.07.2024	0010	56295053	HAT0564	D348687001	0013348687	            0001	20.06.2024	       0
		4051479391		10345547	4537020709	00001	2322753	Combilaser PM 20-CGE	8330	0001	             3	PC	PC	000010	680889291	42239985	1000415	8300	L07	9999	8330	16.09.2024	10.07.2024	0020	56302463	1000415	D364782017	0013364782	            0017	27.06.2024	       0
		4051479391		10345547	4537020711	00001	2251347	Battery pack B 22-55 Li-ion	8330	0001	            16	PC	PC	000010	680889293	42239997	1000415	8300	L15	9999	8330	16.09.2024	10.07.2024	0050	56306828	1000415	D377495003	0013377495	            0003	02.07.2024	       0
		4051479392		10345547	4537020733	00001	2365081	Cordl. imp. wrench SIW 6AT-22 1/2'' case	8330	0001	             8	PC	PC	000010	680889314	42242634	1000415	8300	L15	9999	8330	16.09.2024	10.07.2024	0020	56264104	1000415	D287583007	0013287583	            0007	21.05.2024	       0
		4051479394		10345547	4537020740	00001	2253853	Cordl. drill driver SF 4H-22 box	8330	0001	             4	PC	PC	000010	680889321	42239979	1000415	8300	L15	9999	8330	16.09.2024	10.07.2024	0020	56276853	1000415	D315834014	0013315834	            0014	03.06.2024	       0
		4051479395		10345548	4537020745	00001	2182583	Accessory kit VC box	8330	0001	             1	PC	PC	000010	680889326	42245767	1000415	8300	L05	9999	8330	16.09.2024	10.07.2024	0030	56302479	1000415	D364670031	0013364670	            0031	27.06.2024	       0
		4051479385		10345552	4537020943	00001	2272096	2-hole Baseplate MT-B-O2 OC	8302	0001	           120	PC	PC	000010	680889505	56400004160	HAT0564	8300	L14	9999	8302	16.09.2024	10.07.2024	0010	56224644	HAT0564	D210970001	0013210970	            0001	12.04.2024	      70
		4051479388		10345550	4537020954	00001	2268002	Dust removal system TE DRS-4/6 box	8330	0001	             1	PC	PC	000010	680889514	56400004153	HAT0564	8300	L15	9999	8330	16.09.2024	10.07.2024	0010	56308212	HAT0564	D380372015	0013380372	            0015	02.07.2024	       0
		4051479388		10345550	4537020961	00001	2253086	Cordless rotary hammer TE 4-22 case	8330	0001	            32	PC	PC	000010	680889519	56400004149	HAT0564	8300	L15	9999	8330	16.09.2024	10.07.2024	0010	56303324	HAT0564	D364963001	0013364963	            0001	27.06.2024	       0
		4051479389		10345550	4537020978	00001	2016889	Rotary hammer TE 1 220V box	8330	0001	            50	PC	PC	000010	680889529	56400004154	HAT0564	8300	L08	9999	8330	16.09.2024	10.07.2024	0030	56224013	HAT0564	D209896003	0013209896	            0003	12.04.2024	       0
		4051482031		10359790	4537045024	00001	2251347	Battery pack B 22-55 Li-ion	8330	0001	            16	PC	PC	000010	680908206	42272512	1000415	8300	L15	9999	8330	12.09.2024	15.07.2024	0040	56306828	1000415	D377495002	0013377495	            0002	02.07.2024	       0
		4051482035		10359795	4537046013	00001	2272096	2-hole Baseplate MT-B-O2 OC	8302	0001	           384	PC	PC	000010	680909048	56400005518	HAT0564	8300	L14	9999	8302	12.09.2024	15.07.2024	0010	56239644	HAT0564	D239738003	0013239738	            0003	25.04.2024	      70
		4051482036		10359793	4537047122	00001	2288404	U-bolt MP-UB 26 3/4" M8 OC	8330	0001	            40	PC	PC	000010	680909925	56400005210	HAT0564	8300	L06	9999	8330	12.09.2024	15.07.2024	0010	56273430	HAT0564	D303399001	0013303399	            0001	29.05.2024	      35
		4051484753		10373354	4537081775	00001	2241416	Cordl. drill driver SFE 2-A12 case	8750	0001	             1	PC	PC	000010	680937823	42301929	1000415	8750	L09	9999	8750	18.09.2024	22.07.2024	0010	56322321	1000415	D407069002	0013407069	            0002	16.07.2024	       0
		4051484783		10373378	4537081974	00001	2152385	Multi line laser PM 40-MG	8330	0001	             2	PC	PC	000010	680938028	42301943	1000415	8300	L07	9999	8330	25.09.2024	22.07.2024	0010	56323966	1000415	D408700003	0013408700	            0003	17.07.2024	       0
		4051484777		10373376	4537084341	00001	2168492	A.-Channel HAC-C 40/25 250 F	8330	0001	           515	PC	PC	000010	680939759	56400006224	HAT0564	8300	L02	9999	8330	25.09.2024	22.07.2024	0010	56178895	HAT0564	D116554002	0013116554	            0002	29.02.2024	      28
		4051484779		10373376	4537084354	00001	2256703	Cordless rotary hammer TE 2-22 case	8330	0001	             2	PC	PC	000010	680939764	56400006409	HAT0564	8300	L15	9999	8330	25.09.2024	22.07.2024	0030	56313578	HAT0564	D390224003	0013390224	            0003	08.07.2024	       0
		4051487497		10387857	4537118388	00001	2251351	Battery pack B 22-85 Li-ion	8330	0001	            12	PC	PC	000010	680967781	42323390	1000415	8300	L15	9999	8330	17.09.2024	29.07.2024	0050	56288771	1000415	D335878028	0013335878	            0028	13.06.2024	       0
		4051487497		10387857	4537118398	00001	436067	Concrete nail X-CS 27 P8 S23 C	8330	0001	        38.400	PC	PC	000010	680967790	42325995	1000415	8300	L04	9999	8330	17.09.2024	29.07.2024	0020	56323966	1000415	D408700001	0013408700	            0001	17.07.2024	       7
		4051487498		10387857	4537118404	00001	2207024	Conical washer X-CW S23	8330	0001	       115.200	PC	PC	000010	680967796	42327092	1000415	8300	L04	9999	8330	17.09.2024	29.07.2024	0040	56199183	1000415	D149744005	0013149744	            0005	14.03.2024	     121
		4051487492		10387861	4537120243	00001	2256703	Cordless rotary hammer TE 2-22 case	8330	0001	             3	PC	PC	000010	680969187	56400007439	HAT0564	8300	L15	9999	8330	17.09.2024	29.07.2024	0020	56293439	HAT0564	D345937005	0013345937	            0005	18.06.2024	       0
		4051490403		10401437	4537152809	00001	2251347	Battery pack B 22-55 Li-ion	8330	0001	            16	PC	PC	000010	680995952	42356023	1000415	8300	L15	9999	8330	24.09.2024	05.08.2024	0010	56332358	1000415	D425118001	0013425118	            0001	25.07.2024	       0
		4051490403		10401437	4537152812	00001	2365081	Cordl. imp. wrench SIW 6AT-22 1/2'' case	8330	0001	             2	PC	PC	000010	680995958	42356622	1000415	8300	L15	9999	8330	24.09.2024	05.08.2024	0040	56296329	1000415	D352701019	0013352701	            0019	20.06.2024	       0
		4051490396		10402228	4537155508	00001	2256703	Cordless rotary hammer TE 2-22 case	8330	0001	             2	PC	PC	000010	680998174	56400008537	HAT0564	8300	L15	9999	8330	24.09.2024	05.08.2024	0090	56313578	HAT0564	D390224009	0013390224	            0009	08.07.2024	       0
		4051493067		10416156	4537186510	00001	386407	Resid. pipe ring MP-HI 31-38 M8/M10	8330	0001	            75	PC	PC	000010	681023362	42383349	1000415	8300	L06	9999	8330	01.10.2024	12.08.2024	0040	56339006	1000415	D442988025	0013442988	            0025	01.08.2024	       0
		4051493068		10416157	4537186519	00001	2251351	Battery pack B 22-85 Li-ion	8330	0001	            12	PC	PC	000010	681023370	42382171	1000415	8300	L15	9999	8330	01.10.2024	12.08.2024	0050	56296329	1000415	D352701009	0013352701	            0009	20.06.2024	       0
		4051493068		10416157	4537186537	00001	2251625	Cordl. imp. wrench SIW 8-22 1/2" case	8330	0001	             2	PC	PC	000010	681023386	42383123	1000415	8300	L15	9999	8330	01.10.2024	12.08.2024	0020	56341674	1000415	D449151004	0013449151	            0004	06.08.2024	       0
		4051493070		10416162	4537189525	00001	2256703	Cordless rotary hammer TE 2-22 case	8330	0001	             3	PC	PC	000010	681025977	56400009306	HAT0564	8300	L15	9999	8330	01.10.2024	12.08.2024	0110	56313578	HAT0564	D390224011	0013390224	            0011	08.07.2024	       0
		4051470951		10300539	4536888478	00001	60579	Blow-out pump	8330	0001	            20	PC	PC	000010	680780318	42150937	1000415	8300	L01	9999	8330	19.08.2024	17.06.2024	0010	56271862	1000415	D301135001	0013301135	            0001	29.05.2024	       0
		4051476603		10330682	4536970879	00001	304101	I.-Channel MQ-41-HDG plus 6m	8330	0001	           300	M	M	000010	680849265	56400003399	HAT0564	8300	L06	9999	8330	04.09.2024	01.07.2024	0010	56278567	HAT0564	D319584007	0013319584	            0007	04.06.2024	       7
		4051479384		10345551	4537020769	00001	2268367	I.-Girder MT-80 OC	8330	0001	           198	M	M	000010	680889350	56400004506	HAT0564	8300	L14	9999	8330	06.09.2024	10.07.2024	0010	56293557	HAT0564	D345873002	0013345873	            0002	18.06.2024	       0
		4051482038		10359794	4537045603	00001	2268369	I.-Girder MT-90 OC	8330	0001	           168	M	M	000010	680908715	56400005329	HAT0564	8300	L14	9999	8330	12.09.2024	15.07.2024	0030	56231143	HAT0564	D223013003	0013223013	            0003	18.04.2024	      77
		4051482039		10359794	4537045610	00001	2119867	Girder MIQ-90 6m	8330	0001	            90	M	M	000010	680908722	56400005543	HAT0564	8300	L06	9999	8330	12.09.2024	15.07.2024	0010	56303613	HAT0564	D366078001	0013366078	            0001	27.06.2024	       7
		4051483651		10366663	4537060896	00001	416483	DX Cartridge 6.8/18 M10 STD yellow	8750	0001	        10.000	PC	PC	000010	680921048	58132442	HLI055C	8750	L04	9999	8750	15.08.2024	17.07.2024	0010	56321291	HLI055C	D397966001	0013397966	            0001	11.07.2024	-13
		4051483651		10366663	4537060899	00001	416484	DX Cartridge 6.8/18 M10 STD red	8750	0001	        10.000	PC	PC	000010	680921051	58132448	HLI055C	8750	L04	9999	8750	15.08.2024	17.07.2024	0010	56321290	HLI055C	D397965001	0013397965	            0001	11.07.2024	-13
		4051483652		10367404	4537060904	00001	2229027	DX Cartridge 6,8/11 M10 T titanium	8750	0001	        10.000	PC	PC	000010	680921055	58131572	HLI055C	8750	L04	9999	8750	15.08.2024	17.07.2024	0010	56312383	HLI055C	D386422001	0013386422	            0001	05.07.2024	       0
		4051484755		10373357	4537084274	00001	2268508	I.-Channel MT-40 OC	8750	0001	           300	M	M	000010	680939736	56400006438	HAT0564	8750	L14	9999	8750	18.09.2024	22.07.2024	0010	56322683	HAT0564	D407206003	0013407206	            0003	17.07.2024	       0
		4051493073		10416243	4537189535	00001	2268508	I.-Channel MT-40 OC	8330	0001	           600	M	M	000010	681025986	56400009257	HAT0564	8300	L14	9999	8330	01.10.2024	12.08.2024	0010	56339008	HAT0564	D442988007	0013442988	            0007	01.08.2024	       0
		4051465087		10267854	4536807981	00001	2163395	Cutting jaw NCT J CUAL BULK	8330	0001	             4	PC	PC	000010	680714311	42097550	1000415	8300	L09	9999	8330	02.09.2024	03.06.2024	0060	56206903	1000415	D175482015	0013175482	            0015	26.03.2024	      49
		4051465090		10267855	4536811370	00001	2250117	Cordl. dispenser CD 4-22 box	8330	0001	             1	PC	PC	000010	680717401	42094264	HAT0564	8300	L15	9999	8330	02.09.2024	03.06.2024	0030	56255406	HAT0564	D273742010	0013273742	            0010	13.05.2024	      15
		4051473491		10315445	4536928757	00001	2163395	Cutting jaw NCT J CUAL BULK	8750	0001	             2	PC	PC	000010	680813727	42192616	1000415	8750	L09	9999	8750	26.08.2024	24.06.2024	0010	56161375	1000415	D084598001	0013084598	            0001	14.02.2024	     112
		4051476597		10330426	4536967836	00001	2252478	Cordl. crimper NCR 60 D-22 case	8330	0001	             1	PC	PC	000010	680846556	42216165	1000415	8300	L15	9999	8330	04.09.2024	01.07.2024	0010	56297486	1000415	D354163004	0013354163	            0004	21.06.2024	       0
		4051482034		10359791	4537045040	00001	60579	Blow-out pump	8330	0001	            20	PC	PC	000010	680908215	42269439	1000415	8300	L01	9999	8330	12.09.2024	15.07.2024	0020	56308329	1000415	D379434004	0013379434	            0004	03.07.2024	       0
		4051462469		10257761	4536772447	00001	2183180	Battery pack B 22/4.0 Li-ion	8330	0001	            30	PC	PC	000010	680685399	42060840	1000415	8300	L15	9999	8330	14.08.2024	27.05.2024	0050	56221875	1000415	D207549023	0013207549	            0023	10.04.2024	       0
		4051465086		10267854	4536807975	00001	304037	Connector MQV-12-R	8330	0001	            20	PC	PC	000010	680714305	42083142	1000415	8300	L06	9999	8330	02.09.2024	03.06.2024	0050	56268520	1000415	D294355009	0013294355	            0009	24.05.2024	       0
		4051465086		10267854	4536807977	00001	304047	Rail support MQP-21-72-R	8330	0001	            12	PC	PC	000010	680714307	42097523	1000415	8300	L06	9999	8330	02.09.2024	03.06.2024	0060	56268520	1000415	D294355011	0013294355	            0011	24.05.2024	       0
		4051466033		10265118	4536816321	00001	2197970	Anchor rod HAS-B-105 3/4"x10"	8330	0001	            10	PC	PC	000010	680721304	1150968456	HUS4701	8300	L01	9999	8330	21.08.2024	04.06.2024	0030	56267070	HUS4701	D292005003	0013292005	            0003	23.05.2024	-21
		4051466034		10265118	4536816326	00001	2197993	Anchor rod HAS-E-55 1/2"x10"	8330	0001	            20	PC	PC	000010	680721309	1150968455	HUS4701	8300	L01	9999	8330	21.08.2024	04.06.2024	0030	56255420	HUS4701	D273730003	0013273730	            0003	13.05.2024	-7
		4051466034		10265118	4536816330	00001	2204311	Self-drill screw S-MD10-16x3/4" HWH3 M9	8330	0001	         2.000	PC	PC	000010	680721312	1150968450	HUS4701	8300	L10	9999	8330	21.08.2024	04.06.2024	0050	56253927	HUS4701	D266169021	0013266169	            0021	09.05.2024	-7
		4051466034		10265118	4536816340	00001	418081	Screw anchor KH-EZ 5/8"x6 1/2"	8330	0001	            60	PC	PC	000010	680721330	1150968449	HUS4701	8300	L02	9999	8330	21.08.2024	04.06.2024	0010	56261348	HUS4701	D281433001	0013281433	            0001	17.05.2024	-14
		4051466034		10265118	4536816344	00001	2198009	Anchor rod HAS-E-55 1"x12"	8330	0001	           448	PC	PC	000010	680721338	1150968447	HUS4701	8300	L01	9999	8330	21.08.2024	04.06.2024	0010	56261396	HUS4701	D282520001	0013282520	            0001	17.05.2024	-14
		4051470954		10300540	4536888481	00001	2388380	Cordless data module IC CDM-22	8330	0001	            15	PC	PC	000010	680780321	42155018	1000415	8300	L15	9999	8330	19.08.2024	17.06.2024	0010	56242625	1000415	D245716004	0013245716	            0004	29.04.2024	       0
		4051473627		10308447	4536925062	00001	2198031	Anchor rod HAS-V-36 3/4"x12"	8330	0001	            10	PC	PC	000010	680810679	1151449718	HUS4701	8300	L01	9999	8330	16.09.2024	21.06.2024	0030	56281620	HUS4701	D324076004	0013324076	            0004	07.06.2024	-7
		4051473627		10308447	4536925066	00001	2198025	Anchor rod HAS-V-36 5/8"x8"	8330	0001	            60	PC	PC	000010	680810683	1151449729	HUS4701	8300	L01	9999	8330	16.09.2024	21.06.2024	0020	56271832	HUS4701	D301253002	0013301253	            0002	29.05.2024	       0
		4051473627		10308447	4536925071	00001	409499	Flush anchor HDI-P 3/8"	8330	0001	         1.200	PC	PC	000010	680810688	1151449733	HUS4701	8300	L02	9999	8330	16.09.2024	21.06.2024	0030	56274124	HUS4701	D304769005	0013304769	            0005	31.05.2024	-35
		4051473490		10315445	4536928753	00001	2288462	Battery charger C 8-22 220V box	8750	0001	            32	PC	PC	000010	680813723	42188554	1000415	8750	L15	9999	8750	26.08.2024	24.06.2024	0010	56250492	1000415	D263297002	0013263297	            0002	07.05.2024	       0
		4051476596		10330426	4536967832	00001	2174664	Connector MIC-CU-MAH concrete	8330	0001	             4	PC	PC	000010	680846552	42215745	1000415	8300	L06	9999	8330	04.09.2024	01.07.2024	0010	56281305	1000415	D319584003	0013319584	            0003	04.06.2024	       7
		4051478731		10338936	4537020690	00001	2158774	Hollow wall met. anchor HTB-2-S 3/8 SRH	8330	0001	            75	PC	PC	000010	680889273	1151782466	HUS4701	8300	L02	9999	8330	16.09.2024	10.07.2024	0010	56302073	HUS4701	D363923001	0013363923	            0001	26.06.2024	       7
		4051478731		10338936	4537020695	00001	2213357	Cast-in device CP 680-P 6''	8330	0001	           453	PC	PC	000010	680889277	1151782451	HUS4701	8300	L03	9999	8330	16.09.2024	10.07.2024	0030	56290259	HUS4701	D337863018	0013337863	            0018	14.06.2024	-7
		4051478732		10338936	4537020698	00001	2221951	Screw anchor KH-EZ CRC 3/8"x4"	8330	0001	            50	PC	PC	000010	680889280	1151782457	HUS4701	8300	L02	9999	8330	16.09.2024	10.07.2024	0040	56281620	HUS4701	D324076006	0013324076	            0006	07.06.2024	-7
		4051478732		10338936	4537020699	00001	385473	Anchor rod HAS-R 304 SS 7/8"x10"	8330	0001	            20	PC	PC	000010	680889281	1151782465	HUS4701	8300	L01	9999	8330	16.09.2024	10.07.2024	0020	56281620	HUS4701	D324076003	0013324076	            0003	07.06.2024	       7
		4051479393		10345547	4537020738	00001	2360726	Van gateway TU600-25	8330	0001	             5	PC	PC	000010	680889319	42243003	1000415	8300	L13	9999	8330	16.09.2024	10.07.2024	0010	56308217	1000415	D380421001	0013380421	            0001	02.07.2024	       0
		4051484652		10366874	4537074242	00001	434438	Screw anchor KH 3/8"x3 1/2"	8330	0001	           600	PC	PC	000010	680931345	1152079168	HUS4701	8300	L02	9999	8330	16.09.2024	19.07.2024	0010	56308130	HUS4701	D380205001	0013380205	            0001	02.07.2024	      14
		4051484834		10373355	4537081807	00001	2330982	Pipe shoe MP-PS L2-2 88-94 3" OC	8750	0001	            16	PC	PC	000010	680937840	42307291	1000415	8750	L06	9999	8750	18.09.2024	22.07.2024	0160	56320959	1000415	D404679008	0013404679	            0008	15.07.2024	      56
		4051484785		10373380	4537081982	00001	2300626	Battery charger C 8-22 220V box	8330	0001	             4	PC	PC	000010	680938036	42300301	1000415	8300	L15	9999	8330	25.09.2024	22.07.2024	0010	56278560	1000415	D319098008	0013319098	            0008	04.06.2024	       0
		4051484786		10373380	4537081984	00001	2300626	Battery charger C 8-22 220V box	8330	0001	            64	PC	PC	000010	680938038	42300350	1000415	8300	L15	9999	8330	25.09.2024	22.07.2024	0050	56322503	1000415	D407054010	0013407054	            0010	16.07.2024	       0
		4051484786		10373380	4537081991	00001	304171	2-hole Angle MQW-2-F	8330	0001	            80	PC	PC	000010	680938045	42307253	1000415	8300	L06	9999	8330	25.09.2024	22.07.2024	0010	56324059	1000415	D409962002	0013409962	            0002	18.07.2024	       0
		4051484781		10373377	4537084313	00001	2268512	I.-Channel MT-50 OC	8330	0001	           300	M	M	000010	680939748	56400006418	HAT0564	8300	L14	9999	8330	25.09.2024	22.07.2024	0030	56293557	HAT0564	D345873004	0013345873	            0004	18.06.2024	       0
		4051487494		10387856	4537118378	00001	2300626	Battery charger C 8-22 220V box	8330	0001	            16	PC	PC	000010	680967773	42325454	1000415	8300	L15	9999	8330	17.09.2024	29.07.2024	0060	56322503	1000415	D407054021	0013407054	            0021	16.07.2024	       0
		4051489391		10395276	4537136995	00001	2213357	Cast-in device CP 680-P 6''	8330	0001	           128	PC	PC	000010	680983138	1152373832	HUS4701	8300	L03	9999	8330	16.09.2024	31.07.2024	0030	56322418	HUS4701	D407246003	0013407246	            0003	16.07.2024	-7
		4051489394		10395273	4537137012	00001	2172997	Cast-in device CP 680-P 4"	8330	0001	           288	PC	PC	000010	680983155	1152372732	HUS4701	8300	L03	9999	8330	16.09.2024	31.07.2024	0010	56332081	HUS4701	D424555002	0013424555	            0002	25.07.2024	-14
		4051490495		10393852	4537150541	00001	2210236	Ultimate exp anc KB-TZ2 3/8x3	8330	0001	           200	PC	PC	000010	680994092	1152366624	HUS4701	8300	L02	9999	8330	16.09.2024	02.08.2024	0080	56329489	HUS4701	D421027011	0013421027	            0011	23.07.2024	-14
		4051490495		10393852	4537150546	00001	2113267	Impact socket SI-S 3/4" - 1-1/8 L	8330	0001	             1	PC	PC	000010	680994097	1152366626	HUS4701	8300	L09	9999	8330	16.09.2024	02.08.2024	0030	56320713	HUS4701	D403852021	0013403852	            0021	15.07.2024	-7
		4051493067		10416156	4537186507	00001	2300626	Battery charger C 8-22 220V box	8330	0001	            16	PC	PC	000010	681023359	42379987	1000415	8300	L15	9999	8330	01.10.2024	12.08.2024	0040	56322503	1000415	D407054009	0013407054	            0009	16.07.2024	       0
		4051493069		10416157	4537186542	00001	2183180	Battery pack B 22/4.0 Li-ion	8330	0001	            10	PC	PC	000010	681023390	42382174	1000415	8300	L15	9999	8330	01.10.2024	12.08.2024	0060	56296329	1000415	D352701013	0013352701	            0013	20.06.2024	       0
		4051493072		10416162	4537189531	00001	339795	Threaded rod AM10x1000 4.8 zinced	8330	0001	           220	PC	PC	000010	681025983	56400009305	HAT0564	8300	L06	9999	8330	01.10.2024	12.08.2024	0010	56339007	HAT0564	D442988024	0013442988	            0024	01.08.2024	       0
		4051462470		10257761	4536772474	00001	2365081	Cordl. imp. wrench SIW 6AT-22 1/2'' case	8330	0001	             4	PC	PC	000010	680685425	42061265	1000415	8300	L15	9999	8330	14.08.2024	27.05.2024	0120	56232778	1000415	D226779036	0013226779	            0036	19.04.2024	       0
		4051465083		10267853	4536807959	00001	436067	Concrete nail X-CS 27 P8 S23 C	8330	0001	        38.400	PC	PC	000010	680714290	42088958	1000415	8300	L04	9999	8330	02.09.2024	03.06.2024	0030	56261544	1000415	D282817017	0013282817	            0017	18.05.2024	       0
		4051465084		10267853	4536807965	00001	2272104	4-hole Baseplate MT-B-GXL O4 OC	8330	0001	            24	PC	PC	000010	680714297	42090052	1000415	8300	L14	9999	8330	02.09.2024	03.06.2024	0010	56271861	1000415	D300951001	0013300951	            0001	28.05.2024	       0
		4051465084		10267853	4536807971	00001	436062	Concrete nail X-CS 27 P8	8330	0001	         3.300	PC	PC	000010	680714302	42090077	1000415	8300	L04	9999	8330	02.09.2024	03.06.2024	0020	56270130	1000415	D298761009	0013298761	            0009	27.05.2024	       0
		4051465090		10267855	4536811371	00001	2203157	Drilling stand DD-ST 160 SFL	8330	0001	             6	PC	PC	000010	680717402	42094264	HAT0564	8300	L05	9999	8330	02.09.2024	03.06.2024	0010	56259425	HAT0564	D280136001	0013280136	            0001	16.05.2024	       0
		4051470955		10300540	4536888487	00001	2254883	Cordl. ham. dr. driver SF 6H-22 case	8330	0001	            10	PC	PC	000010	680780327	42156315	1000415	8300	L15	9999	8330	19.08.2024	17.06.2024	0020	56257323	1000415	D276539005	0013276539	            0005	14.05.2024	       0
		4051470957		10300540	4536888498	00001	2251626	Cordl. imp. wrench SIW 8-22 1/2" box	8330	0001	             1	PC	PC	000010	680780338	42156314	1000415	8300	L15	9999	8330	19.08.2024	17.06.2024	0020	56272126	1000415	D300650005	0013300650	            0005	28.05.2024	      14
		4051473627		10308447	4536925067	00001	32980	Setting tool HAND 1/2"	8330	0001	            25	PC	PC	000010	680810684	1151449729	HUS4701	8300	L02	9999	8330	16.09.2024	21.06.2024	0010	56271864	HUS4701	D301135002	0013301135	            0002	29.05.2024	       0
		4051483357		10366275	4537061268	00001	2127989	Flush anchor HKV 1/2"x50	8750	0001	           375	PC	PC	000010	680921272	42291406	1000415	8750	L02	9999	8750	20.08.2024	17.07.2024	0010	56303100	1000415	D365149001	0013365149	            0001	27.06.2024	-42
		4051473388		10315444	4536928726	00001	2251351	Battery pack B 22-85 Li-ion	8750	0001	            12	PC	PC	000010	680813700	42162493	1000415	8750	L15	9999	8750	26.08.2024	24.06.2024	0010	56262581	1000415	D283220001	0013283220	            0001	20.05.2024	       0
		4051473389		10315444	4536928732	00001	2251625	Cordl. imp. wrench SIW 8-22 1/2" case	8750	0001	             8	PC	PC	000010	680813705	42186966	1000415	8750	L15	9999	8750	26.08.2024	24.06.2024	0010	56196658	1000415	D153781001	0013153781	            0001	18.03.2024	      17
		4051473535		10315447	4536933964	00001	2352793	Int. conc. vibrator NCV 4-22 cordl.	8750	0001	             2	PC	PC	000010	680818637	56400002383	HAT0564	8750	L15	9999	8750	26.08.2024	25.06.2024	0030	56248893	HAT0564	D260624015	0013260624	            0015	06.05.2024	       0
		4051476597		10330426	4536967835	00001	2117966	Cutting disc EQD SPX 305/22 univ	8330	0001	             6	PC	PC	000010	680846555	42216165	1000415	8300	L05	9999	8330	04.09.2024	01.07.2024	0030	56295124	1000415	D348922004	0013348922	            0004	20.06.2024	       0
		4051476599		10330427	4536967839	00001	2207024	Conical washer X-CW S23	8330	0001	       115.200	PC	PC	000010	680846559	42216735	1000415	8300	L04	9999	8330	04.09.2024	01.07.2024	0010	56208130	1000415	D176636001	0013176636	            0001	27.03.2024	      77
		4051476600		10330427	4536967852	00001	2149989	Concrete nail X-C 36 B3 MX	8330	0001	        36.000	PC	PC	000010	680846571	42216732	1000415	8300	L04	9999	8330	04.09.2024	01.07.2024	0070	56274033	1000415	D304811017	0013304811	            0017	30.05.2024	      14
		4051476605		10330681	4536970871	00001	2288408	U-bolt MP-UB 60 2" M10 OC	8330	0001	            20	PC	PC	000010	680849256	56400003137	HAT0564	8300	L14	9999	8330	04.09.2024	01.07.2024	0010	56271859	HAT0564	D300952001	0013300952	            0001	28.05.2024	      21
		4051476606		10330681	4536970876	00001	2360721	Circ. saw blade SCBM XCut Struc 136 (5)	8330	0001	             5	PC	PC	000010	680849261	56400003161	HAT0564	8300	L09	9999	8330	04.09.2024	01.07.2024	0010	56295434	HAT0564	D348777001	0013348777	            0001	20.06.2024	       0
		4051479391		10345547	4537020714	00001	2291205	Cordl. imp. wrench SIW 4AT-22 1/2'' case	8330	0001	             7	PC	PC	000010	680889296	42242635	1000415	8300	L15	9999	8330	16.09.2024	10.07.2024	0020	56296329	1000415	D352701011	0013352701	            0011	20.06.2024	       0
		4051479394		10345547	4537020741	00001	2253853	Cordl. drill driver SF 4H-22 box	8330	0001	             4	PC	PC	000010	680889322	42239980	1000415	8300	L15	9999	8330	16.09.2024	10.07.2024	0020	56276853	1000415	D315834014	0013315834	            0014	03.06.2024	       0
		4051479388		10345550	4537020959	00001	2253086	Cordless rotary hammer TE 4-22 case	8330	0001	            13	PC	PC	000010	680889517	56400004150	HAT0564	8300	L15	9999	8330	16.09.2024	10.07.2024	0020	56302952	HAT0564	D365242002	0013365242	            0002	27.06.2024	       0
		4051479389		10345550	4537020983	00001	2363676	Cordl. RA imp wrench SIW 4R-22 3/8" case	8330	0001	             1	PC	PC	000010	680889531	56400004154	HAT0564	8300	L15	9999	8330	16.09.2024	10.07.2024	0020	56262139	HAT0564	D283675010	0013283675	            0010	20.05.2024	       0
		4051482031		10359790	4537045031	00001	2251625	Cordl. imp. wrench SIW 8-22 1/2" case	8330	0001	            15	PC	PC	000010	680908210	42271932	1000415	8300	L15	9999	8330	12.09.2024	15.07.2024	0010	56311082	1000415	D384365001	0013384365	            0001	04.07.2024	       0
		4051482036		10359793	4537047124	00001	2288403	U-bolt MP-UB 21 1/2" M8 OC	8330	0001	            40	PC	PC	000010	680909926	56400005210	HAT0564	8300	L06	9999	8330	12.09.2024	15.07.2024	0010	56273433	HAT0564	D303400001	0013303400	            0001	29.05.2024	      35
		4051482037		10359793	4537047130	00001	2215458	Cordl. angle grinder AG 6D-22-125 case	8330	0001	            18	PC	PC	000010	680909930	56400005514	HAT0564	8300	L15	9999	8330	12.09.2024	15.07.2024	0010	56312462	HAT0564	D387188001	0013387188	            0001	08.07.2024	       0
		4051483651		10366663	4537060897	00001	416483	DX Cartridge 6.8/18 M10 STD yellow	8750	0001	        10.000	PC	PC	000010	680921049	58132401	HLI055C	8750	L04	9999	8750	15.08.2024	17.07.2024	0010	56321291	HLI055C	D397966001	0013397966	            0001	11.07.2024	-13
		4051483651		10366663	4537060900	00001	416484	DX Cartridge 6.8/18 M10 STD red	8750	0001	        10.000	PC	PC	000010	680921052	58132449	HLI055C	8750	L04	9999	8750	15.08.2024	17.07.2024	0010	56321290	HLI055C	D397965001	0013397965	            0001	11.07.2024	-13
		4051483652		10367404	4537060905	00001	2229027	DX Cartridge 6,8/11 M10 T titanium	8750	0001	        10.000	PC	PC	000010	680921056	58131471	HLI055C	8750	L04	9999	8750	15.08.2024	17.07.2024	0010	56312383	HLI055C	D386422001	0013386422	            0001	05.07.2024	       0
		4051484753		10373354	4537081765	00001	2041606	Stud anchor HSV M10x100	8750	0001	         6.400	PC	PC	000010	680937817	42302239	1000415	8750	L02	9999	8750	18.09.2024	22.07.2024	0010	56312301	1000415	D386967001	0013386967	            0001	08.07.2024	-6
		4051484783		10373378	4537081976	00001	2253839	Cordl. drill driver SF 4-22 case	8330	0001	             2	PC	PC	000010	680938030	42303217	1000415	8300	L09	9999	8330	25.09.2024	22.07.2024	0020	56320711	1000415	D403852016	0013403852	            0016	15.07.2024	       0
		4051484786		10373380	4537081988	00001	2117966	Cutting disc EQD SPX 305/22 univ	8330	0001	             6	PC	PC	000010	680938042	42307253	1000415	8300	L05	9999	8330	25.09.2024	22.07.2024	0020	56312183	1000415	D386502002	0013386502	            0002	06.07.2024	       0
		4051484835		10373356	4537084280	00001	2223882	Anchor rod HAS-U 5.8 M24x450	8750	0001	           160	PC	PC	000010	680939740	56400006403	HAT0564	8750	L01	9999	8750	18.09.2024	22.07.2024	0010	56293679	HAT0564	D346366001	0013346366	            0001	19.06.2024	-6
		4051484778		10373376	4537084344	00001	2215458	Cordl. angle grinder AG 6D-22-125 case	8330	0001	            18	PC	PC	000010	680939760	56400006223	HAT0564	8300	L15	9999	8330	25.09.2024	22.07.2024	0010	56278561	HAT0564	D319098001	0013319098	            0001	04.06.2024	       0
		4051487497		10387857	4537118389	00001	2251351	Battery pack B 22-85 Li-ion	8330	0001	            12	PC	PC	000010	680967782	42323391	1000415	8300	L15	9999	8330	17.09.2024	29.07.2024	0050	56288771	1000415	D335878028	0013335878	            0028	13.06.2024	       0
		4051487497		10387857	4537118392	00001	2361528	Cordl. imp. wrench SIW 10-22 3/4" case	8330	0001	             2	PC	PC	000010	680967785	42326176	1000415	8300	L15	9999	8330	17.09.2024	29.07.2024	0060	56288771	1000415	D335878030	0013335878	            0030	13.06.2024	       0
		4051487498		10387857	4537118405	00001	2207024	Conical washer X-CW S23	8330	0001	       115.200	PC	PC	000010	680967797	42327093	1000415	8300	L04	9999	8330	17.09.2024	29.07.2024	0040	56199183	1000415	D149744005	0013149744	            0005	14.03.2024	     121
		4051487492		10387861	4537120244	00001	2256702	Cordless rotary hammer TE 2-22 box	8330	0001	             2	PC	PC	000010	680969188	56400007439	HAT0564	8300	L15	9999	8330	17.09.2024	29.07.2024	0010	56295058	HAT0564	D348767001	0013348767	            0001	20.06.2024	       0
		4051490403		10401437	4537152810	00001	2251347	Battery pack B 22-55 Li-ion	8330	0001	            16	PC	PC	000010	680995954	42356024	1000415	8300	L15	9999	8330	24.09.2024	05.08.2024	0010	56332358	1000415	D425118001	0013425118	            0001	25.07.2024	       0
		4051490403		10401437	4537152811	00001	2365081	Cordl. imp. wrench SIW 6AT-22 1/2'' case	8330	0001	             2	PC	PC	000010	680995956	42356622	1000415	8300	L15	9999	8330	24.09.2024	05.08.2024	0020	56292630	1000415	D341658011	0013341658	            0011	17.06.2024	       0
		4051493068		10416157	4537186520	00001	2251351	Battery pack B 22-85 Li-ion	8330	0001	            12	PC	PC	000010	681023371	42382172	1000415	8300	L15	9999	8330	01.10.2024	12.08.2024	0050	56296329	1000415	D352701009	0013352701	            0009	20.06.2024	       0
		4051493068		10416157	4537186530	00001	2365081	Cordl. imp. wrench SIW 6AT-22 1/2'' case	8330	0001	             1	PC	PC	000010	681023380	42383123	1000415	8300	L15	9999	8330	01.10.2024	12.08.2024	0080	56296329	1000415	D352701023	0013352701	            0023	20.06.2024	       0
		4051493070		10416162	4537189526	00001	2268002	Dust removal system TE DRS-4/6 box	8330	0001	             3	PC	PC	000010	681025978	56400009306	HAT0564	8300	L15	9999	8330	01.10.2024	12.08.2024	0010	56340007	HAT0564	D444898005	0013444898	            0005	02.08.2024	       0
		4051465092		10267856	4536811974	00001	2268365	I.-Girder MT-70 OC	8330	0001	           324	M	M	000010	680718021	42094258	HAT0564	8300	L14	9999	8330	14.08.2024	03.06.2024	0010	56231143	HAT0564	D223013001	0013223013	            0001	18.04.2024	      21
		4051466034		10265118	4536816331	00001	2204310	Sidelap connector S-SLC 02 M9	8330	0001	         2.000	PC	PC	000010	680721314	1150968450	HUS4701	8300	L10	9999	8330	21.08.2024	04.06.2024	0060	56253927	HUS4701	D266169060	0013266169	            0060	09.05.2024	-7
		4051473490		10315445	4536928755	00001	2163394	Crimping jaw NCR J SU BULK	8750	0001	             1	PC	PC	000010	680813725	42192616	1000415	8750	L09	9999	8750	26.08.2024	24.06.2024	0010	56268483	1000415	D293638007	0013293638	            0007	24.05.2024	       0
		4051479395		10345548	4537020744	00001	2163394	Crimping jaw NCR J SU BULK	8330	0001	             1	PC	PC	000010	680889325	42245786	1000415	8300	L09	9999	8330	16.09.2024	10.07.2024	0010	56302140	1000415	D363986006	0013363986	            0006	26.06.2024	       7
		4051479384		10345551	4537020766	00001	2268367	I.-Girder MT-80 OC	8330	0001	           198	M	M	000010	680889347	56400004505	HAT0564	8300	L14	9999	8330	06.09.2024	10.07.2024	0010	56293557	HAT0564	D345873002	0013345873	            0002	18.06.2024	       0
		4051482034		10359791	4537045038	00001	335506	Light-duty anchor HLD 2	8330	0001	           600	PC	PC	000010	680908214	42269439	1000415	8300	L02	9999	8330	12.09.2024	15.07.2024	0030	56306828	1000415	D377495007	0013377495	            0007	02.07.2024	       0
		4051482038		10359794	4537045604	00001	2268369	I.-Girder MT-90 OC	8330	0001	           168	M	M	000010	680908716	56400005332	HAT0564	8300	L14	9999	8330	12.09.2024	15.07.2024	0030	56231143	HAT0564	D223013003	0013223013	            0003	18.04.2024	      77
		4051484755		10373357	4537084275	00001	2268508	I.-Channel MT-40 OC	8750	0001	           300	M	M	000010	680939737	56400006439	HAT0564	8750	L14	9999	8750	18.09.2024	22.07.2024	0010	56322683	HAT0564	D407206003	0013407206	            0003	17.07.2024	       0
		4051465086		10267854	4536807978	00001	304016	Wing nut MQM-M10-R	8330	0001	            25	PC	PC	000010	680714308	42097525	1000415	8300	L06	9999	8330	02.09.2024	03.06.2024	0070	56268520	1000415	D294355005	0013294355	            0005	24.05.2024	       0
		4051466034		10265118	4536816341	00001	385474	Anchor rod HAS-R 304 SS 1"x12"	8330	0001	            24	PC	PC	000010	680721332	1150968449	HUS4701	8300	L01	9999	8330	21.08.2024	04.06.2024	0030	56261348	HUS4701	D281433007	0013281433	            0007	17.05.2024	-14
		4051466034		10265118	4536816345	00001	2080047	Flush anchor HDI-L+ 1/2"	8330	0001	           900	PC	PC	000010	680721340	1150968447	HUS4701	8300	L02	9999	8330	21.08.2024	04.06.2024	0010	56262169	HUS4701	D284145004	0013284145	            0004	20.05.2024	-21
		4051473627		10308447	4536925072	00001	385464	Anchor rod HAS-R 304 SS 1/2"x6-1/2"	8330	0001	           120	PC	PC	000010	680810689	1151449733	HUS4701	8300	L01	9999	8330	16.09.2024	21.06.2024	0010	56280027	HUS4701	D321403001	0013321403	            0001	05.06.2024	-7
		4051476596		10330426	4536967833	00001	2174664	Connector MIC-CU-MAH concrete	8330	0001	             4	PC	PC	000010	680846553	42215746	1000415	8300	L06	9999	8330	04.09.2024	01.07.2024	0010	56281305	1000415	D319584003	0013319584	            0003	04.06.2024	       7
		4051479393		10345547	4537020736	00001	2360726	Van gateway TU600-25	8330	0001	             1	PC	PC	000010	680889317	42243003	1000415	8300	L13	9999	8330	16.09.2024	10.07.2024	0010	56302479	1000415	D364670019	0013364670	            0019	27.06.2024	       0
		4051484834		10373355	4537081790	00001	2330984	Pipe shoe MP-PS L2-2 110-118 4" OC	8750	0001	            32	PC	PC	000010	680937831	42307292	1000415	8750	L06	9999	8750	18.09.2024	22.07.2024	0100	56320959	1000415	D404679003	0013404679	            0003	15.07.2024	       0
		4051484785		10373380	4537081983	00001	2300626	Battery charger C 8-22 220V box	8330	0001	             4	PC	PC	000010	680938037	42300302	1000415	8300	L15	9999	8330	25.09.2024	22.07.2024	0010	56278560	1000415	D319098008	0013319098	            0008	04.06.2024	       0
		4051484786		10373380	4537081985	00001	2300626	Battery charger C 8-22 220V box	8330	0001	             4	PC	PC	000010	680938039	42300503	1000415	8300	L15	9999	8330	25.09.2024	22.07.2024	0050	56322503	1000415	D407054010	0013407054	            0010	16.07.2024	       0
		4051484781		10373377	4537084323	00001	2268516	I.-Channel MT-60 OC	8330	0001	           300	M	M	000010	680939752	56400006427	HAT0564	8300	L14	9999	8330	25.09.2024	22.07.2024	0040	56293557	HAT0564	D345873005	0013345873	            0005	18.06.2024	       0
		4051489391		10395276	4537136996	00001	2213357	Cast-in device CP 680-P 6''	8330	0001	            12	PC	PC	000010	680983139	1152373833	HUS4701	8300	L03	9999	8330	16.09.2024	31.07.2024	0030	56322418	HUS4701	D407246003	0013407246	            0003	16.07.2024	-7
		4051489394		10395273	4537137013	00001	2172997	Cast-in device CP 680-P 4"	8330	0001	           288	PC	PC	000010	680983156	1152372734	HUS4701	8300	L03	9999	8330	16.09.2024	31.07.2024	0010	56332081	HUS4701	D424555002	0013424555	            0002	25.07.2024	-14
		4051493067		10416156	4537186509	00001	2273631	Twist-Lock MT-TL M8 OC	8330	0001	           550	PC	PC	000010	681023361	42383349	1000415	8300	L14	9999	8330	01.10.2024	12.08.2024	0020	56339006	1000415	D442988016	0013442988	            0016	01.08.2024	       0
		4051493069		10416157	4537186543	00001	2183180	Battery pack B 22/4.0 Li-ion	8330	0001	            10	PC	PC	000010	681023391	42382175	1000415	8300	L15	9999	8330	01.10.2024	12.08.2024	0060	56296329	1000415	D352701013	0013352701	            0013	20.06.2024	       0
		4051462470		10257761	4536772478	00001	2365081	Cordl. imp. wrench SIW 6AT-22 1/2'' case	8330	0001	             7	PC	PC	000010	680685430	42061265	1000415	8300	L15	9999	8330	14.08.2024	27.05.2024	0020	56234822	1000415	D232352014	0013232352	            0014	22.04.2024	       0
		4051465083		10267853	4536807953	00001	436064	Concrete nail X-CS 47 P8	8330	0001	        96.000	PC	PC	000010	680714284	42088980	1000415	8300	L04	9999	8330	02.09.2024	03.06.2024	0050	56196032	1000415	D152018006	0013152018	            0006	17.03.2024	      65
		4051465084		10267853	4536807960	00001	2272064	Angle connector MT-C-GS OC	8330	0001	            20	PC	PC	000010	680714292	42090063	1000415	8300	L14	9999	8330	02.09.2024	03.06.2024	0010	56271834	1000415	D300950001	0013300950	            0001	28.05.2024	       0
		4051470957		10300540	4536888497	00001	2251626	Cordl. imp. wrench SIW 8-22 1/2" box	8330	0001	             2	PC	PC	000010	680780337	42156314	1000415	8300	L15	9999	8330	19.08.2024	17.06.2024	0010	56269524	1000415	D293637009	0013293637	            0009	24.05.2024	      14
		4051476599		10330427	4536967846	00001	2100958	Gas nail X-C 39 G3 MX	8330	0001	       153.600	PC	PC	000010	680846566	42217460	1000415	8300	L04	9999	8330	04.09.2024	01.07.2024	0020	56262323	1000415	D284306003	0013284306	            0003	21.05.2024	      35
		4051476600		10330427	4536967854	00001	2149989	Concrete nail X-C 36 B3 MX	8330	0001	       144.000	PC	PC	000010	680846573	42216732	1000415	8300	L04	9999	8330	04.09.2024	01.07.2024	0140	56274049	1000415	D304711067	0013304711	            0067	30.05.2024	-7
		4051476601		10330427	4536967863	00001	2251625	Cordl. imp. wrench SIW 8-22 1/2" case	8330	0001	            20	PC	PC	000010	680846580	42216036	1000415	8300	L15	9999	8330	04.09.2024	01.07.2024	0010	56296233	1000415	D352348001	0013352348	            0001	20.06.2024	       0
		4051476606		10330681	4536970877	00001	2330123	Circ. saw blade SCBM MU Steel 165(5)	8330	0001	             5	PC	PC	000010	680849263	56400003161	HAT0564	8300	L09	9999	8330	04.09.2024	01.07.2024	0010	56298421	HAT0564	D354163006	0013354163	            0006	21.06.2024	       0
		4051479391		10345547	4537020718	00001	2251626	Cordl. imp. wrench SIW 8-22 1/2" box	8330	0001	             1	PC	PC	000010	680889300	42242635	1000415	8300	L15	9999	8330	16.09.2024	10.07.2024	0010	56303475	1000415	D363993002	0013363993	            0002	26.06.2024	       7
		4051479395		10345548	4537020747	00001	2159812	Water collector sys DD-WCS-142	8330	0001	             1	PC	PC	000010	680889328	42245791	1000415	8300	L05	9999	8330	16.09.2024	10.07.2024	0010	56305167	1000415	D368562014	0013368562	            0014	29.06.2024	       0
		4051479387		10345550	4537020949	00001	2215458	Cordl. angle grinder AG 6D-22-125 case	8330	0001	            18	PC	PC	000010	680889509	56400004134	HAT0564	8300	L15	9999	8330	16.09.2024	10.07.2024	0010	56268478	HAT0564	D293637010	0013293637	            0010	24.05.2024	       0
		4051479388		10345550	4537020962	00001	2253086	Cordless rotary hammer TE 4-22 case	8330	0001	            19	PC	PC	000010	680889520	56400004150	HAT0564	8300	L15	9999	8330	16.09.2024	10.07.2024	0010	56303324	HAT0564	D364963001	0013364963	            0001	27.06.2024	       0
		4051482031		10359790	4537045030	00001	2388394	Battery charger C 4-22 220V box	8330	0001	            54	PC	PC	000010	680908209	42271932	1000415	8300	L15	9999	8330	12.09.2024	15.07.2024	0020	56306828	1000415	D377495006	0013377495	            0006	02.07.2024	       0
		4051482036		10359793	4537047125	00001	2288404	U-bolt MP-UB 26 3/4" M8 OC	8330	0001	            40	PC	PC	000010	680909927	56400005210	HAT0564	8300	L06	9999	8330	12.09.2024	15.07.2024	0010	56275222	HAT0564	D305721001	0013305721	            0001	31.05.2024	      35
		4051482037		10359793	4537047136	00001	2256703	Cordless rotary hammer TE 2-22 case	8330	0001	            23	PC	PC	000010	680909934	56400005211	HAT0564	8300	L15	9999	8330	12.09.2024	15.07.2024	0080	56313578	HAT0564	D390224008	0013390224	            0008	08.07.2024	       0
		4051483651		10366663	4537060901	00001	416484	DX Cartridge 6.8/18 M10 STD red	8750	0001	        10.000	PC	PC	000010	680921053	58132399	HLI055C	8750	L04	9999	8750	15.08.2024	17.07.2024	0010	56321290	HLI055C	D397965001	0013397965	            0001	11.07.2024	-13
		4051483652		10367404	4537060906	00001	2229027	DX Cartridge 6,8/11 M10 T titanium	8750	0001	        10.000	PC	PC	000010	680921057	58131580	HLI055C	8750	L04	9999	8750	15.08.2024	17.07.2024	0010	56312383	HLI055C	D386422001	0013386422	            0001	05.07.2024	       0
		4051484753		10373354	4537081767	00001	2041606	Stud anchor HSV M10x100	8750	0001	         6.400	PC	PC	000010	680937818	42302240	1000415	8750	L02	9999	8750	18.09.2024	22.07.2024	0010	56312301	1000415	D386967001	0013386967	            0001	08.07.2024	-6
		4051484783		10373378	4537081978	00001	2253839	Cordl. drill driver SF 4-22 case	8330	0001	             2	PC	PC	000010	680938032	42303217	1000415	8300	L09	9999	8330	25.09.2024	22.07.2024	0010	56322503	1000415	D407054002	0013407054	            0002	16.07.2024	       0
		4051484835		10373356	4537084285	00001	2273589	Beam clamp MT-BC-GXL T OC	8750	0001	            30	PC	PC	000010	680939743	56400006403	HAT0564	8750	L14	9999	8750	18.09.2024	22.07.2024	0010	56322686	HAT0564	D407206005	0013407206	            0005	17.07.2024	       0
		4051487497		10387857	4537118390	00001	2251347	Battery pack B 22-55 Li-ion	8330	0001	            16	PC	PC	000010	680967783	42326159	1000415	8300	L15	9999	8330	17.09.2024	29.07.2024	0020	56328101	1000415	D418440001	0013418440	            0001	23.07.2024	       0
		4051487497		10387857	4537118394	00001	2365081	Cordl. imp. wrench SIW 6AT-22 1/2'' case	8330	0001	             2	PC	PC	000010	680967786	42326176	1000415	8300	L15	9999	8330	17.09.2024	29.07.2024	0070	56288771	1000415	D335878031	0013335878	            0031	13.06.2024	       0
		4051487498		10387857	4537118406	00001	2207024	Conical washer X-CW S23	8330	0001	       115.200	PC	PC	000010	680967798	42327094	1000415	8300	L04	9999	8330	17.09.2024	29.07.2024	0040	56199183	1000415	D149744005	0013149744	            0005	14.03.2024	     121
		4051487492		10387861	4537120245	00001	2256702	Cordless rotary hammer TE 2-22 box	8330	0001	             2	PC	PC	000010	680969189	56400007439	HAT0564	8300	L15	9999	8330	17.09.2024	29.07.2024	0030	56302952	HAT0564	D365242003	0013365242	            0003	27.06.2024	       0
		4051490396		10402228	4537155510	00001	2168438	A.-Channel HAC-C 38/17 250 F	8330	0001	             5	PC	PC	000010	680998176	56400008537	HAT0564	8300	L02	9999	8330	24.09.2024	05.08.2024	0010	56332360	HAT0564	D425264001	0013425264	            0001	25.07.2024	       0
		4051493067		10416156	4537186511	00001	386408	Resid. pipe ring MP-HI 38-45 M8/M10	8330	0001	           150	PC	PC	000010	681023363	42383349	1000415	8300	L06	9999	8330	01.10.2024	12.08.2024	0050	56339006	1000415	D442988026	0013442988	            0026	01.08.2024	       0
		4051493068		10416157	4537186528	00001	2360540	Cordl. drill driver SF 8M-22 case	8330	0001	             1	PC	PC	000010	681023378	42383123	1000415	8300	L15	9999	8330	01.10.2024	12.08.2024	0010	56296329	1000415	D352701003	0013352701	            0003	20.06.2024	       0
		4051493070		10416162	4537189527	00001	2360721	Circ. saw blade SCBM XCut Struc 136 (5)	8330	0001	            10	PC	PC	000010	681025979	56400009306	HAT0564	8300	L09	9999	8330	01.10.2024	12.08.2024	0020	56340007	HAT0564	D444898002	0013444898	            0002	02.08.2024	       0
		4051465092		10267856	4536811975	00001	2268365	I.-Girder MT-70 OC	8330	0001	           324	M	M	000010	680718022	42094259	HAT0564	8300	L14	9999	8330	14.08.2024	03.06.2024	0010	56231143	HAT0564	D223013001	0013223013	            0001	18.04.2024	      21
		4051479384		10345551	4537020768	00001	2268367	I.-Girder MT-80 OC	8330	0001	           198	M	M	000010	680889349	56400004501	HAT0564	8300	L14	9999	8330	06.09.2024	10.07.2024	0010	56293557	HAT0564	D345873002	0013345873	            0002	18.06.2024	       0
		4051482034		10359791	4537045042	00001	335506	Light-duty anchor HLD 2	8330	0001	           300	PC	PC	000010	680908216	42269439	1000415	8300	L02	9999	8330	12.09.2024	15.07.2024	0010	56315671	1000415	D394749001	0013394749	            0001	10.07.2024	       0
		4051482038		10359794	4537045605	00001	2268369	I.-Girder MT-90 OC	8330	0001	           168	M	M	000010	680908717	56400005328	HAT0564	8300	L14	9999	8330	12.09.2024	15.07.2024	0030	56231143	HAT0564	D223013003	0013223013	            0003	18.04.2024	      77
		4051484755		10373357	4537084278	00001	2268367	I.-Girder MT-80 OC	8750	0001	           198	M	M	000010	680939739	56400006436	HAT0564	8750	L14	9999	8750	18.09.2024	22.07.2024	0020	56322683	HAT0564	D407206004	0013407206	            0004	17.07.2024	       0
		4051465086		10267854	4536807976	00001	304048	Rail support MQP-82-R	8330	0001	             8	PC	PC	000010	680714306	42098906	1000415	8300	L06	9999	8330	02.09.2024	03.06.2024	0040	56268520	1000415	D294355007	0013294355	            0007	24.05.2024	       0
		4051466034		10265118	4536816332	00001	418045	Screw anchor KH-EZ 1/4"x2 5/8"	8330	0001	         4.000	PC	PC	000010	680721316	1150968450	HUS4701	8300	L02	9999	8330	21.08.2024	04.06.2024	0020	56255420	HUS4701	D273730002	0013273730	            0002	13.05.2024	-14
		4051476596		10330426	4536967830	00001	2220067	Univ. vacuum cleaner VC 40L-X 230V	8330	0001	             4	PC	PC	000010	680846550	42215747	1000415	8300	L05	9999	8330	04.09.2024	01.07.2024	0030	56274049	1000415	D304711038	0013304711	            0038	30.05.2024	-14
		4051476597		10330426	4536967834	00001	2145825	Water management sys DD-WMS 100	8330	0001	             4	PC	PC	000010	680846554	42216166	1000415	8300	L05	9999	8330	04.09.2024	01.07.2024	0010	56288897	1000415	D335928002	0013335928	            0002	14.06.2024	       0
		4051484834		10373355	4537081804	00001	2330979	Pipe shoe MP-PS L2-2 59-65 2" OC	8750	0001	            32	PC	PC	000010	680937838	42307293	1000415	8750	L06	9999	8750	18.09.2024	22.07.2024	0150	56320959	1000415	D404679007	0013404679	            0007	15.07.2024	      56
		4051484786		10373380	4537081986	00001	2300626	Battery charger C 8-22 220V box	8330	0001	             4	PC	PC	000010	680938040	42300504	1000415	8300	L15	9999	8330	25.09.2024	22.07.2024	0050	56322503	1000415	D407054010	0013407054	            0010	16.07.2024	       0
		4051484786		10373380	4537081990	00001	2220067	Univ. vacuum cleaner VC 40L-X 230V	8330	0001	             4	PC	PC	000010	680938044	42307274	1000415	8300	L05	9999	8330	25.09.2024	22.07.2024	0020	56321063	1000415	D405025002	0013405025	            0002	16.07.2024	       0
		4051484781		10373377	4537084326	00001	2268516	I.-Channel MT-60 OC	8330	0001	           300	M	M	000010	680939753	56400006426	HAT0564	8300	L14	9999	8330	25.09.2024	22.07.2024	0040	56293557	HAT0564	D345873005	0013345873	            0005	18.06.2024	       0
		4051484779		10373376	4537084359	00001	2218784	Cartridge holder CD 4 310ml plastic	8330	0001	             1	PC	PC	000010	680939766	56400006409	HAT0564	8300	L09	9999	8330	25.09.2024	22.07.2024	0010	56320712	HAT0564	D403852007	0013403852	            0007	15.07.2024	       0
		4051487493		10387855	4537118375	00001	2183172	Battery pack B 36/9.0 Li-ion	8330	0001	             3	PC	PC	000010	680967771	42326172	1000415	8300	L15	9999	8330	17.09.2024	29.07.2024	0020	56329435	1000415	D420859001	0013420859	            0001	23.07.2024	       0
		4051489391		10395276	4537137000	00001	2213357	Cast-in device CP 680-P 6''	8330	0001	           116	PC	PC	000010	680983143	1152373833	HUS4701	8300	L03	9999	8330	16.09.2024	31.07.2024	0100	56329489	HUS4701	D421027013	0013421027	            0013	23.07.2024	-14
		4051489394		10395273	4537137014	00001	2172997	Cast-in device CP 680-P 4"	8330	0001	           288	PC	PC	000010	680983157	1152373437	HUS4701	8300	L03	9999	8330	16.09.2024	31.07.2024	0010	56332081	HUS4701	D424555002	0013424555	            0002	25.07.2024	-14
		4051462470		10257761	4536772469	00001	2361528	Cordl. imp. wrench SIW 10-22 3/4" case	8330	0001	             1	PC	PC	000010	680685420	42061273	1000415	8300	L15	9999	8330	14.08.2024	27.05.2024	0020	56232778	1000415	D226779035	0013226779	            0035	19.04.2024	       0
		4051465083		10267853	4536807954	00001	2100958	Gas nail X-C 39 G3 MX	8330	0001	       153.600	PC	PC	000010	680714285	42088981	1000415	8300	L04	9999	8330	02.09.2024	03.06.2024	0010	56228108	1000415	D219960011	0013219960	            0011	17.04.2024	      35
		4051465084		10267853	4536807961	00001	2273702	Pipe shoe MT-FPS-GS OC fixation	8330	0001	            12	PC	PC	000010	680714293	42090063	1000415	8300	L14	9999	8330	02.09.2024	03.06.2024	0010	56271857	1000415	D300953001	0013300953	            0001	28.05.2024	       0
		4051470957		10300540	4536888501	00001	2253853	Cordl. drill driver SF 4H-22 box	8330	0001	            16	PC	PC	000010	680780341	42156314	1000415	8300	L15	9999	8330	19.08.2024	17.06.2024	0040	56276853	1000415	D315834023	0013315834	            0023	03.06.2024	       0
		4051470959		10300966	4536889233	00001	2203157	Drilling stand DD-ST 160 SFL	8330	0001	             6	PC	PC	000010	680780955	56400001075	HAT0564	8300	L05	9999	8330	19.08.2024	17.06.2024	0010	56278375	HAT0564	D318635001	0013318635	            0001	04.06.2024	       0
		4051473389		10315444	4536928741	00001	2041606	Stud anchor HSV M10x100	8750	0001	         6.400	PC	PC	000010	680813712	42187222	1000415	8750	L02	9999	8750	26.08.2024	24.06.2024	0010	56272249	1000415	D301419001	0013301419	            0001	29.05.2024	       0
		4051476599		10330427	4536967844	00001	2149988	Concrete nail X-C 30 B3 MX	8330	0001	       144.000	PC	PC	000010	680846564	42217564	1000415	8300	L04	9999	8330	04.09.2024	01.07.2024	0040	56255655	1000415	D273656003	0013273656	            0003	14.05.2024	      43
		4051476600		10330427	4536967857	00001	2100958	Gas nail X-C 39 G3 MX	8330	0001	       153.600	PC	PC	000010	680846576	42217459	1000415	8300	L04	9999	8330	04.09.2024	01.07.2024	0010	56284494	1000415	D328263001	0013328263	            0001	11.06.2024	      14
		4051476601		10330427	4536967866	00001	2149988	Concrete nail X-C 30 B3 MX	8330	0001	       144.000	PC	PC	000010	680846582	42216985	1000415	8300	L04	9999	8330	04.09.2024	01.07.2024	0010	56296584	1000415	D352903001	0013352903	            0001	20.06.2024	       0
		4051479391		10345547	4537020719	00001	2246799	Cordl. impact driver SID 6-22 case	8330	0001	            11	PC	PC	000010	680889301	42242635	1000415	8300	L15	9999	8330	16.09.2024	10.07.2024	0010	56303677	1000415	D365775001	0013365775	            0001	27.06.2024	       0
		4051479395		10345548	4537020746	00001	2305015	Hose 32mm x 3m anti-static	8330	0001	             4	PC	PC	000010	680889327	42246209	1000415	8300	L05	9999	8330	16.09.2024	10.07.2024	0050	56302479	1000415	D364670010	0013364670	            0010	27.06.2024	       0
		4051479388		10345550	4537020953	00001	2122713	Rotary hammer TE 3-ML 220V case	8330	0001	             2	PC	PC	000010	680889513	56400004168	HAT0564	8300	L08	9999	8330	16.09.2024	10.07.2024	0070	56288772	HAT0564	D335878029	0013335878	            0029	13.06.2024	      14
		4051482031		10359790	4537045033	00001	258017	Int. threaded sleeve HIS-N M12x125	8330	0001	            10	PC	PC	000010	680908211	42271724	1000415	8300	L01	9999	8330	12.09.2024	15.07.2024	0010	56311625	1000415	D384545001	0013384545	            0001	04.07.2024	       0
		4051482034		10359791	4537045037	00001	2287820	Univ. anchor HUD-2 6x30 (500)	8330	0001	         4.000	PC	PC	000010	680908213	42269439	1000415	8300	L02	9999	8330	12.09.2024	15.07.2024	0010	56302564	1000415	D363795002	0013363795	            0002	26.06.2024	       0
		4051482036		10359793	4537047127	00001	2256703	Cordless rotary hammer TE 2-22 case	8330	0001	             3	PC	PC	000010	680909928	56400005210	HAT0564	8300	L15	9999	8330	12.09.2024	15.07.2024	0010	56280098	HAT0564	D321725001	0013321725	            0001	05.06.2024	       0
		4051482037		10359793	4537047128	00001	2272096	2-hole Baseplate MT-B-O2 OC	8330	0001	            24	PC	PC	000010	680909929	56400005237	HAT0564	8300	L14	9999	8330	12.09.2024	15.07.2024	0020	56307785	HAT0564	D377495011	0013377495	            0011	02.07.2024	       0
		4051483652		10367404	4537060907	00001	2229027	DX Cartridge 6,8/11 M10 T titanium	8750	0001	        10.000	PC	PC	000010	680921058	58131581	HLI055C	8750	L04	9999	8750	15.08.2024	17.07.2024	0010	56312383	HLI055C	D386422001	0013386422	            0001	05.07.2024	       0
		4051484753		10373354	4537081768	00001	2041606	Stud anchor HSV M10x100	8750	0001	         6.400	PC	PC	000010	680937819	42302241	1000415	8750	L02	9999	8750	18.09.2024	22.07.2024	0010	56312301	1000415	D386967001	0013386967	            0001	08.07.2024	-6
		4051484782		10373378	4537081971	00001	2136393	Battery pack B 22/2.6 Li-ion	8330	0001	            16	PC	PC	000010	680938025	42301912	1000415	8300	L15	9999	8330	25.09.2024	22.07.2024	0030	56278560	1000415	D319098006	0013319098	            0006	04.06.2024	       0
		4051487497		10387857	4537118391	00001	2251347	Battery pack B 22-55 Li-ion	8330	0001	            16	PC	PC	000010	680967784	42326160	1000415	8300	L15	9999	8330	17.09.2024	29.07.2024	0020	56328101	1000415	D418440001	0013418440	            0001	23.07.2024	       0
		4051487498		10387857	4537118407	00001	2207024	Conical washer X-CW S23	8330	0001	       115.200	PC	PC	000010	680967799	42327095	1000415	8300	L04	9999	8330	17.09.2024	29.07.2024	0040	56199183	1000415	D149744005	0013149744	            0005	14.03.2024	     121
		4051490396		10402228	4537155511	00001	2223885	Anchor rod HAS-U 8.8 M16x380	8330	0001	            10	PC	PC	000010	680998177	56400008537	HAT0564	8300	L01	9999	8330	24.09.2024	05.08.2024	0020	56332360	HAT0564	D425264019	0013425264	            0019	25.07.2024	       0
		4051493067		10416156	4537186512	00001	386403	Resid. pipe ring MP-HI 12-16 M8/M10	8330	0001	         1.000	PC	PC	000010	681023364	42383349	1000415	8300	L06	9999	8330	01.10.2024	12.08.2024	0060	56339006	1000415	D442988029	0013442988	            0029	01.08.2024	       0
		4051493070		10416162	4537189528	00001	2203157	Drilling stand DD-ST 160 SFL	8330	0001	             6	PC	PC	000010	681025980	56400009306	HAT0564	8300	L05	9999	8330	01.10.2024	12.08.2024	0010	56341675	HAT0564	D449151001	0013449151	            0001	06.08.2024	       0
		4051479384		10345551	4537020767	00001	2268367	I.-Girder MT-80 OC	8330	0001	           198	M	M	000010	680889348	56400004504	HAT0564	8300	L14	9999	8330	06.09.2024	10.07.2024	0010	56293557	HAT0564	D345873002	0013345873	            0002	18.06.2024	       0
		4051482038		10359794	4537045606	00001	2268369	I.-Girder MT-90 OC	8330	0001	           168	M	M	000010	680908718	56400005331	HAT0564	8300	L14	9999	8330	12.09.2024	15.07.2024	0030	56231143	HAT0564	D223013003	0013223013	            0003	18.04.2024	      77
		4051484779		10373376	4537084361	00001	2218556	Cartridge holder CD 4 600ml aluminium	8330	0001	             1	PC	PC	000010	680939767	56400006409	HAT0564	8300	L09	9999	8330	25.09.2024	22.07.2024	0020	56320712	HAT0564	D403852024	0013403852	            0024	15.07.2024	       0
		4051466034		10265118	4536816333	00001	423473	Screw anchor KH-EZ 1/4"x1 7/8"	8330	0001	           400	PC	PC	000010	680721318	1150968450	HUS4701	8300	L02	9999	8330	21.08.2024	04.06.2024	0040	56255420	HUS4701	D273730004	0013273730	            0004	13.05.2024	-7
		4051484834		10373355	4537081798	00001	2330993	Pipe shoe MP-PS L2-2 318-328 12" OC	8750	0001	            16	PC	PC	000010	680937835	42307294	1000415	8750	L06	9999	8750	18.09.2024	22.07.2024	0140	56320959	1000415	D404679006	0013404679	            0006	15.07.2024	      56
		4051484781		10373377	4537084315	00001	2268512	I.-Channel MT-50 OC	8330	0001	           300	M	M	000010	680939749	56400006415	HAT0564	8300	L14	9999	8330	25.09.2024	22.07.2024	0030	56293557	HAT0564	D345873004	0013345873	            0004	18.06.2024	       0
		4051489391		10395276	4537137001	00001	2213357	Cast-in device CP 680-P 6''	8330	0001	            38	PC	PC	000010	680983144	1152374285	HUS4701	8300	L03	9999	8330	16.09.2024	31.07.2024	0100	56329489	HUS4701	D421027013	0013421027	            0013	23.07.2024	-14
		4051489394		10395273	4537137015	00001	2172997	Cast-in device CP 680-P 4"	8330	0001	           288	PC	PC	000010	680983158	1152373442	HUS4701	8300	L03	9999	8330	16.09.2024	31.07.2024	0010	56332081	HUS4701	D424555002	0013424555	            0002	25.07.2024	-14
		4051462470		10257761	4536772488	00001	2254883	Cordl. ham. dr. driver SF 6H-22 case	8330	0001	            15	PC	PC	000010	680685443	42061273	1000415	8300	L15	9999	8330	14.08.2024	27.05.2024	0010	56257323	1000415	D276539004	0013276539	            0004	14.05.2024	       0
		4051465083		10267853	4536807955	00001	2100958	Gas nail X-C 39 G3 MX	8330	0001	       153.600	PC	PC	000010	680714286	42088982	1000415	8300	L04	9999	8330	02.09.2024	03.06.2024	0010	56228108	1000415	D219960011	0013219960	            0011	17.04.2024	      35
		4051465084		10267853	4536807962	00001	2272074	Connector MT-C-GSP T OC plate	8330	0001	            20	PC	PC	000010	680714294	42090063	1000415	8300	L14	9999	8330	02.09.2024	03.06.2024	0010	56271860	1000415	D300949001	0013300949	            0001	28.05.2024	       0
		4051473389		10315444	4536928752	00001	2041606	Stud anchor HSV M10x100	8750	0001	         6.400	PC	PC	000010	680813722	42187223	1000415	8750	L02	9999	8750	26.08.2024	24.06.2024	0010	56292177	1000415	D344344001	0013344344	            0001	18.06.2024	       0
		4051473535		10315447	4536933969	00001	2366391	Multi-Tool SMT 6-22 box	8750	0001	             1	PC	PC	000010	680818642	56400002383	HAT0564	8750	L09	9999	8750	26.08.2024	25.06.2024	0010	56284232	HAT0564	D328228001	0013328228	            0001	10.06.2024	       0
		4051476599		10330427	4536967840	00001	2207024	Conical washer X-CW S23	8330	0001	       115.200	PC	PC	000010	680846560	42219258	1000415	8300	L04	9999	8330	04.09.2024	01.07.2024	0010	56208130	1000415	D176636001	0013176636	            0001	27.03.2024	      77
		4051476600		10330427	4536967855	00001	2149989	Concrete nail X-C 36 B3 MX	8330	0001	        72.000	PC	PC	000010	680846574	42219257	1000415	8300	L04	9999	8330	04.09.2024	01.07.2024	0140	56274049	1000415	D304711067	0013304711	            0067	30.05.2024	-7
		4051476601		10330427	4536967867	00001	2149988	Concrete nail X-C 30 B3 MX	8330	0001	        36.000	PC	PC	000010	680846583	42216985	1000415	8300	L04	9999	8330	04.09.2024	01.07.2024	0010	56296585	1000415	D352904001	0013352904	            0001	20.06.2024	       0
		4051479392		10345547	4537020728	00001	2207024	Conical washer X-CW S23	8330	0001	       115.200	PC	PC	000010	680889309	42246408	1000415	8300	L04	9999	8330	16.09.2024	10.07.2024	0010	56208141	1000415	D176637001	0013176637	            0001	27.03.2024	      84
		4051479395		10345548	4537020743	00001	2305015	Hose 32mm x 3m anti-static	8330	0001	             2	PC	PC	000010	680889324	42246210	1000415	8300	L05	9999	8330	16.09.2024	10.07.2024	0050	56302479	1000415	D364670010	0013364670	            0010	27.06.2024	       0
		4051479388		10345550	4537020957	00001	2203157	Drilling stand DD-ST 160 SFL	8330	0001	             6	PC	PC	000010	680889516	56400004168	HAT0564	8300	L05	9999	8330	16.09.2024	10.07.2024	0010	56301942	HAT0564	D363199001	0013363199	            0001	26.06.2024	       0
		4051482031		10359790	4537045028	00001	2149989	Concrete nail X-C 36 B3 MX	8330	0001	        36.000	PC	PC	000010	680908208	42273623	1000415	8300	L04	9999	8330	12.09.2024	15.07.2024	0060	56302463	1000415	D364782007	0013364782	            0007	27.06.2024	       0
		4051482037		10359793	4537047133	00001	2352793	Int. conc. vibrator NCV 4-22 cordl.	8330	0001	             9	PC	PC	000010	680909932	56400005237	HAT0564	8300	L15	9999	8330	12.09.2024	15.07.2024	0030	56312462	HAT0564	D387188003	0013387188	            0003	08.07.2024	       0
		4051483652		10367404	4537060908	00001	2229027	DX Cartridge 6,8/11 M10 T titanium	8750	0001	        10.000	PC	PC	000010	680921059	58131582	HLI055C	8750	L04	9999	8750	15.08.2024	17.07.2024	0010	56312383	HLI055C	D386422001	0013386422	            0001	05.07.2024	       0
		4051484753		10373354	4537081770	00001	2041607	Stud anchor HSV M12x100	8750	0001	         3.840	PC	PC	000010	680937820	42302801	1000415	8750	L02	9999	8750	18.09.2024	22.07.2024	0010	56312349	1000415	D386899001	0013386899	            0001	08.07.2024	-6
		4051484782		10373378	4537081972	00001	2136393	Battery pack B 22/2.6 Li-ion	8330	0001	            16	PC	PC	000010	680938026	42301913	1000415	8300	L15	9999	8330	25.09.2024	22.07.2024	0030	56278560	1000415	D319098006	0013319098	            0006	04.06.2024	       0
		4051484779		10373376	4537084363	00001	2222482	Cartridge holder CD 4 310ml PL short	8330	0001	             1	PC	PC	000010	680939768	56400006409	HAT0564	8300	L09	9999	8330	25.09.2024	22.07.2024	0030	56320712	HAT0564	D403852025	0013403852	            0025	15.07.2024	       0
		4051487497		10387857	4537118395	00001	2291205	Cordl. imp. wrench SIW 4AT-22 1/2'' case	8330	0001	             7	PC	PC	000010	680967787	42326176	1000415	8300	L15	9999	8330	17.09.2024	29.07.2024	0030	56296329	1000415	D352701018	0013352701	            0018	20.06.2024	       0
		4051487492		10387861	4537120247	00001	2256703	Cordless rotary hammer TE 2-22 case	8330	0001	             3	PC	PC	000010	680969191	56400007439	HAT0564	8300	L15	9999	8330	17.09.2024	29.07.2024	0100	56313578	HAT0564	D390224010	0013390224	            0010	08.07.2024	       0
		4051490396		10402228	4537155512	00001	2251326	Cordl. orbital jig saw SJT 6-22 case	8330	0001	             1	PC	PC	000010	680998178	56400008537	HAT0564	8300	L15	9999	8330	24.09.2024	05.08.2024	0020	56336378	HAT0564	D434327003	0013434327	            0003	30.07.2024	       0
		4051493070		10416162	4537189529	00001	2268002	Dust removal system TE DRS-4/6 box	8330	0001	             1	PC	PC	000010	681025981	56400009306	HAT0564	8300	L15	9999	8330	01.10.2024	12.08.2024	0010	56342857	HAT0564	D451016003	0013451016	            0003	06.08.2024	       0
		4051479398		10345819	4537020985	00001	2268367	I.-Girder MT-80 OC	8330	0001	           198	M	M	000010	680889532	56400004488	HAT0564	8300	L14	9999	8330	16.09.2024	10.07.2024	0010	56293557	HAT0564	D345873002	0013345873	            0002	18.06.2024	       0
		4051482038		10359794	4537045607	00001	2268369	I.-Girder MT-90 OC	8330	0001	           168	M	M	000010	680908719	56400005334	HAT0564	8300	L14	9999	8330	12.09.2024	15.07.2024	0030	56231143	HAT0564	D223013003	0013223013	            0003	18.04.2024	      77
		4051484834		10373355	4537081799	00001	2330993	Pipe shoe MP-PS L2-2 318-328 12" OC	8750	0001	            16	PC	PC	000010	680937836	42307295	1000415	8750	L06	9999	8750	18.09.2024	22.07.2024	0140	56320959	1000415	D404679006	0013404679	            0006	15.07.2024	      56
		4051484781		10373377	4537084318	00001	2268512	I.-Channel MT-50 OC	8330	0001	           300	M	M	000010	680939750	56400006416	HAT0564	8300	L14	9999	8330	25.09.2024	22.07.2024	0030	56293557	HAT0564	D345873004	0013345873	            0004	18.06.2024	       0
		4051489391		10395276	4537137002	00001	2213357	Cast-in device CP 680-P 6''	8330	0001	            90	PC	PC	000010	680983145	1152374285	HUS4701	8300	L03	9999	8330	16.09.2024	31.07.2024	0020	56332103	HUS4701	D425264004	0013425264	            0004	25.07.2024	-14
		4051489394		10395273	4537137016	00001	2172997	Cast-in device CP 680-P 4"	8330	0001	           288	PC	PC	000010	680983159	1152373445	HUS4701	8300	L03	9999	8330	16.09.2024	31.07.2024	0010	56332081	HUS4701	D424555002	0013424555	            0002	25.07.2024	-14
		4051493067		10416156	4537186513	00001	2220067	Univ. vacuum cleaner VC 40L-X 230V	8330	0001	             4	PC	PC	000010	681023365	42383350	1000415	8300	L05	9999	8330	01.10.2024	12.08.2024	0010	56339685	1000415	D442575001	0013442575	            0001	01.08.2024	       0
		4051462470		10257761	4536772464	00001	2253848	Cordl. drill driver SF 4H-22 case	8330	0001	            12	PC	PC	000010	680685415	42061273	1000415	8300	L15	9999	8330	14.08.2024	27.05.2024	0030	56221875	1000415	D207549031	0013207549	            0031	10.04.2024	       0
		4051465083		10267853	4536807956	00001	2100958	Gas nail X-C 39 G3 MX	8330	0001	       153.600	PC	PC	000010	680714287	42088983	1000415	8300	L04	9999	8330	02.09.2024	03.06.2024	0010	56228108	1000415	D219960011	0013219960	            0011	17.04.2024	      35
		4051465084		10267853	4536807966	00001	2272104	4-hole Baseplate MT-B-GXL O4 OC	8330	0001	            24	PC	PC	000010	680714298	42090078	1000415	8300	L14	9999	8330	02.09.2024	03.06.2024	0010	56271861	1000415	D300951001	0013300951	            0001	28.05.2024	       0
		4051473389		10315444	4536928743	00001	2223830	Anchor rod HAS-U 5.8 M16x190	8750	0001	         1.440	PC	PC	000010	680813714	42187236	1000415	8750	L01	9999	8750	26.08.2024	24.06.2024	0010	56275081	1000415	D305845001	0013305845	            0001	31.05.2024	       0
		4051473535		10315447	4536933965	00001	2232909	Cordl. circular saw SC 30WR-22 case	8750	0001	             4	PC	PC	000010	680818638	56400002400	HAT0564	8750	L15	9999	8750	26.08.2024	25.06.2024	0040	56248893	HAT0564	D260624017	0013260624	            0017	06.05.2024	       0
		4051476599		10330427	4536967842	00001	2207024	Conical washer X-CW S23	8330	0001	       115.200	PC	PC	000010	680846562	42219260	1000415	8300	L04	9999	8330	04.09.2024	01.07.2024	0020	56208130	1000415	D176636002	0013176636	            0002	27.03.2024	      77
		4051476600		10330427	4536967856	00001	2149988	Concrete nail X-C 30 B3 MX	8330	0001	       108.000	PC	PC	000010	680846575	42219257	1000415	8300	L04	9999	8330	04.09.2024	01.07.2024	0050	56277098	1000415	D316680002	0013316680	            0002	04.06.2024	      21
		4051476601		10330427	4536967868	00001	2149988	Concrete nail X-C 30 B3 MX	8330	0001	        72.000	PC	PC	000010	680846584	42216986	1000415	8300	L04	9999	8330	04.09.2024	01.07.2024	0010	56296585	1000415	D352904001	0013352904	            0001	20.06.2024	       0
		4051479391		10345547	4537020712	00001	2272069	Angle connector MT-C-GL A OC adjustable	8330	0001	           400	PC	PC	000010	680889294	42245954	1000415	8300	L14	9999	8330	16.09.2024	10.07.2024	0030	56294803	1000415	D348026003	0013348026	            0003	19.06.2024	-43
		4051479392		10345547	4537020729	00001	2207024	Conical washer X-CW S23	8330	0001	       115.200	PC	PC	000010	680889310	42246409	1000415	8300	L04	9999	8330	16.09.2024	10.07.2024	0010	56208141	1000415	D176637001	0013176637	            0001	27.03.2024	      84
		4051479388		10345550	4537020963	00001	2253086	Cordless rotary hammer TE 4-22 case	8330	0001	             9	PC	PC	000010	680889521	56400004168	HAT0564	8300	L15	9999	8330	16.09.2024	10.07.2024	0010	56303324	HAT0564	D364963001	0013364963	            0001	27.06.2024	       0
		4051482037		10359793	4537047135	00001	2327361	Cordless rotary hammer TE 5-22 case	8330	0001	             1	PC	PC	000010	680909933	56400005237	HAT0564	8300	L15	9999	8330	12.09.2024	15.07.2024	0040	56313578	HAT0564	D390224004	0013390224	            0004	08.07.2024	       0
		4051483652		10367404	4537060909	00001	2229027	DX Cartridge 6,8/11 M10 T titanium	8750	0001	        10.000	PC	PC	000010	680921060	58131583	HLI055C	8750	L04	9999	8750	15.08.2024	17.07.2024	0010	56312383	HLI055C	D386422001	0013386422	            0001	05.07.2024	       0
		4051484753		10373354	4537081771	00001	2041607	Stud anchor HSV M12x100	8750	0001	         3.840	PC	PC	000010	680937821	42302806	1000415	8750	L02	9999	8750	18.09.2024	22.07.2024	0010	56312349	1000415	D386899001	0013386899	            0001	08.07.2024	-6
		4051484779		10373376	4537084365	00001	2330126	Circ. saw blade SCBM XCut Struct 165A(5)	8330	0001	            20	PC	PC	000010	680939769	56400006409	HAT0564	8300	L09	9999	8330	25.09.2024	22.07.2024	0040	56320712	HAT0564	D403852009	0013403852	            0009	15.07.2024	       0
		4051490396		10402228	4537155513	00001	2366391	Multi-Tool SMT 6-22 box	8330	0001	             1	PC	PC	000010	680998179	56400008537	HAT0564	8300	L15	9999	8330	24.09.2024	05.08.2024	0030	56336378	HAT0564	D434327005	0013434327	            0005	30.07.2024	       0
		4051493070		10416162	4537189522	00001	2122713	Rotary hammer TE 3-ML 220V case	8330	0001	            30	PC	PC	000010	681025974	56400009309	HAT0564	8300	L08	9999	8330	01.10.2024	12.08.2024	0010	56291816	HAT0564	D341658004	0013341658	            0004	17.06.2024	       7
		4051479398		10345819	4537020988	00001	2268367	I.-Girder MT-80 OC	8330	0001	           198	M	M	000010	680889533	56400004487	HAT0564	8300	L14	9999	8330	16.09.2024	10.07.2024	0010	56293557	HAT0564	D345873002	0013345873	            0002	18.06.2024	       0
		4051482038		10359794	4537045608	00001	2268369	I.-Girder MT-90 OC	8330	0001	           168	M	M	000010	680908720	56400005336	HAT0564	8300	L14	9999	8330	12.09.2024	15.07.2024	0030	56231143	HAT0564	D223013003	0013223013	            0003	18.04.2024	      77
		4051484834		10373355	4537081784	00001	2145824	Water management sys DD-WMS 100	8750	0001	             4	PC	PC	000010	680937828	42308357	1000415	8750	L05	9999	8750	18.09.2024	22.07.2024	0010	56284145	1000415	D327858012	0013327858	            0012	10.06.2024	      22
		4051484781		10373377	4537084327	00001	2268516	I.-Channel MT-60 OC	8330	0001	           300	M	M	000010	680939754	56400006422	HAT0564	8300	L14	9999	8330	25.09.2024	22.07.2024	0040	56293557	HAT0564	D345873005	0013345873	            0005	18.06.2024	       0
		4051487497		10387857	4537118401	00001	2169074	T-head bolt HBC-40/22 M12x60 8.8F	8330	0001	         1.600	PC	PC	000010	680967793	42327071	1000415	8300	L02	9999	8330	17.09.2024	29.07.2024	0010	56328388	1000415	D417575001	0013417575	            0001	22.07.2024	       0
		4051489394		10395273	4537137009	00001	434444	Screw anchor KH 1/2"x4 1/2"	8330	0001	           300	PC	PC	000010	680983152	1152373449	HUS4701	8300	L02	9999	8330	16.09.2024	31.07.2024	0050	56322418	HUS4701	D407246005	0013407246	            0005	16.07.2024	-7
		4051493067		10416156	4537186514	00001	2220067	Univ. vacuum cleaner VC 40L-X 230V	8330	0001	             4	PC	PC	000010	681023366	42384251	1000415	8300	L05	9999	8330	01.10.2024	12.08.2024	0020	56339685	1000415	D442575002	0013442575	            0002	01.08.2024	       0
		4051489391		10395276	4537137003	00001	2213357	Cast-in device CP 680-P 6''	8330	0001	           128	PC	PC	000010	680983146	1152374289	HUS4701	8300	L03	9999	8330	16.09.2024	31.07.2024	0020	56332103	HUS4701	D425264004	0013425264	            0004	25.07.2024	-14
		4051473389		10315444	4536928746	00001	2223830	Anchor rod HAS-U 5.8 M16x190	8750	0001	         1.440	PC	PC	000010	680813717	42187237	1000415	8750	L01	9999	8750	26.08.2024	24.06.2024	0020	56280861	1000415	D322858002	0013322858	            0002	06.06.2024	       0
		4051476599		10330427	4536967848	00001	2254882	Cordl. ham. dr. driver SF 6H-22 box	8330	0001	             6	PC	PC	000010	680846567	42219292	1000415	8300	L15	9999	8330	04.09.2024	01.07.2024	0030	56264104	1000415	D287583010	0013287583	            0010	21.05.2024	       0
		4051476601		10330427	4536967869	00001	2149988	Concrete nail X-C 30 B3 MX	8330	0001	       108.000	PC	PC	000010	680846585	42216986	1000415	8300	L04	9999	8330	04.09.2024	01.07.2024	0010	56296586	1000415	D352905001	0013352905	            0001	20.06.2024	       0
		4051479391		10345547	4537020723	00001	2127987	Flush anchor HKV 3/8"x30	8330	0001	         8.000	PC	PC	000010	680889305	42245999	1000415	8300	L02	9999	8330	16.09.2024	10.07.2024	0010	56308329	1000415	D379434002	0013379434	            0002	03.07.2024	       0
		4051479392		10345547	4537020730	00001	2207024	Conical washer X-CW S23	8330	0001	       115.200	PC	PC	000010	680889311	42246826	1000415	8300	L04	9999	8330	16.09.2024	10.07.2024	0010	56208141	1000415	D176637001	0013176637	            0001	27.03.2024	      84
		4051479388		10345550	4537020974	00001	2203158	Drilling stand DD-ST 120 SFM	8330	0001	             1	PC	PC	000010	680889527	56400004168	HAT0564	8300	L05	9999	8330	16.09.2024	10.07.2024	0010	56307680	HAT0564	D364670032	0013364670	            0032	27.06.2024	       0
		4051483652		10367404	4537060910	00001	2229027	DX Cartridge 6,8/11 M10 T titanium	8750	0001	        10.000	PC	PC	000010	680921061	58131584	HLI055C	8750	L04	9999	8750	15.08.2024	17.07.2024	0010	56312383	HLI055C	D386422001	0013386422	            0001	05.07.2024	       0
		4051484753		10373354	4537081778	00001	2272069	Angle connector MT-C-GL A OC adjustable	8750	0001	           300	PC	PC	000010	680937825	42302814	1000415	8750	L14	9999	8750	18.09.2024	22.07.2024	0020	56322685	1000415	D407206009	0013407206	            0009	17.07.2024	       0
		4051484779		10373376	4537084368	00001	2203157	Drilling stand DD-ST 160 SFL	8330	0001	             6	PC	PC	000010	680939770	56400006409	HAT0564	8300	L05	9999	8330	25.09.2024	22.07.2024	0010	56321064	HAT0564	D405025001	0013405025	            0001	16.07.2024	       0
		4051493068		10416157	4537186531	00001	2149988	Concrete nail X-C 30 B3 MX	8330	0001	       180.000	PC	PC	000010	681023381	42383578	1000415	8300	L04	9999	8330	01.10.2024	12.08.2024	0010	56338853	1000415	D442788001	0013442788	            0001	01.08.2024	       0
		4051493070		10416162	4537189521	00001	2122713	Rotary hammer TE 3-ML 220V case	8330	0001	            30	PC	PC	000010	681025973	56400009251	HAT0564	8300	L08	9999	8330	01.10.2024	12.08.2024	0050	56288772	HAT0564	D335878029	0013335878	            0029	13.06.2024	      14
		4051479398		10345819	4537020990	00001	2268367	I.-Girder MT-80 OC	8330	0001	           198	M	M	000010	680889534	56400004493	HAT0564	8300	L14	9999	8330	16.09.2024	10.07.2024	0010	56293557	HAT0564	D345873002	0013345873	            0002	18.06.2024	       0
		4051482038		10359794	4537045609	00001	2268369	I.-Girder MT-90 OC	8330	0001	           168	M	M	000010	680908721	56400005337	HAT0564	8300	L14	9999	8330	12.09.2024	15.07.2024	0030	56231143	HAT0564	D223013003	0013223013	            0003	18.04.2024	      77
		4051484834		10373355	4537081792	00001	2330984	Pipe shoe MP-PS L2-2 110-118 4" OC	8750	0001	            16	PC	PC	000010	680937832	42308358	1000415	8750	L06	9999	8750	18.09.2024	22.07.2024	0100	56320959	1000415	D404679003	0013404679	            0003	15.07.2024	       0
		4051484781		10373377	4537084321	00001	2268512	I.-Channel MT-50 OC	8330	0001	           300	M	M	000010	680939751	56400006419	HAT0564	8300	L14	9999	8330	25.09.2024	22.07.2024	0030	56293557	HAT0564	D345873004	0013345873	            0004	18.06.2024	       0
		4051487492		10387861	4537120249	00001	2222481	Cartridge holder CD 4 600ml Al long	8330	0001	             1	PC	PC	000010	680969193	56400007439	HAT0564	8300	L09	9999	8330	17.09.2024	29.07.2024	0010	56324807	HAT0564	D409543001	0013409543	            0001	17.07.2024	       0
		4051489391		10395276	4537137004	00001	2213357	Cast-in device CP 680-P 6''	8330	0001	           128	PC	PC	000010	680983147	1152374290	HUS4701	8300	L03	9999	8330	16.09.2024	31.07.2024	0020	56332103	HUS4701	D425264004	0013425264	            0004	25.07.2024	-14
		4051489394		10395273	4537137010	00001	2172996	Cast-in device CP 680-P 2"	8330	0001	            53	PC	PC	000010	680983153	1152373449	HUS4701	8300	L03	9999	8330	16.09.2024	31.07.2024	0010	56329489	HUS4701	D421027001	0013421027	            0001	23.07.2024	-14
		4051473389		10315444	4536928744	00001	2253848	Cordl. drill driver SF 4H-22 case	8750	0001	            39	PC	PC	000010	680813715	42186997	1000415	8750	L15	9999	8750	26.08.2024	24.06.2024	0010	56275303	1000415	D305859001	0013305859	            0001	02.06.2024	       0
		4051473534		10315447	4536933957	00001	2122714	Rotary hammer TE 3-ML 220V case	8750	0001	            12	PC	PC	000010	680818630	56400002394	HAT0564	8750	L08	9999	8750	26.08.2024	25.06.2024	0010	56176791	HAT0564	D114663002	0013114663	            0002	28.02.2024	       3
		4051476599		10330427	4536967843	00001	2293871	Threaded stud F-BT-MR M12x50 (10)	8330	0001	           400	PC	PC	000010	680846563	42219295	1000415	8300	L04	9999	8330	04.09.2024	01.07.2024	0050	56252185	1000415	D266169016	0013266169	            0016	09.05.2024	      43
		4051476601		10330427	4536967864	00001	2100958	Gas nail X-C 39 G3 MX	8330	0001	       153.600	PC	PC	000010	680846581	42217461	1000415	8300	L04	9999	8330	04.09.2024	01.07.2024	0010	56296376	1000415	D352822001	0013352822	            0001	20.06.2024	       0
		4051479392		10345547	4537020731	00001	2207024	Conical washer X-CW S23	8330	0001	       115.200	PC	PC	000010	680889312	42246827	1000415	8300	L04	9999	8330	16.09.2024	10.07.2024	0010	56208141	1000415	D176637001	0013176637	            0001	27.03.2024	      84
		4051479388		10345550	4537020955	00001	2256702	Cordless rotary hammer TE 2-22 box	8330	0001	             3	PC	PC	000010	680889515	56400004158	HAT0564	8300	L15	9999	8330	16.09.2024	10.07.2024	0020	56295058	HAT0564	D348767002	0013348767	            0002	20.06.2024	       0
		4051487497		10387857	4537118400	00001	2100955	Gas nail X-C 20 G3 MX	8330	0001	       115.200	PC	PC	000010	680967792	42327088	1000415	8300	L04	9999	8330	17.09.2024	29.07.2024	0010	56328101	1000415	D418440002	0013418440	            0002	23.07.2024	       0
		4051487492		10387861	4537120250	00001	2123719	Cordl. drill SF BT 22-A	8330	0001	             3	PC	PC	000010	680969194	56400007439	HAT0564	8300	L04	9999	8330	17.09.2024	29.07.2024	0010	56325389	HAT0564	D412014003	0013412014	            0003	18.07.2024	       0
		4051479384		10345551	4537020757	00001	2268367	I.-Girder MT-80 OC	8330	0001	           198	M	M	000010	680889339	56400004495	HAT0564	8300	L14	9999	8330	06.09.2024	10.07.2024	0010	56293557	HAT0564	D345873002	0013345873	            0002	18.06.2024	       0
		4051483652		10367404	4537060911	00001	2229027	DX Cartridge 6,8/11 M10 T titanium	8750	0001	        10.000	PC	PC	000010	680921062	58131585	HLI055C	8750	L04	9999	8750	15.08.2024	17.07.2024	0010	56312383	HLI055C	D386422001	0013386422	            0001	05.07.2024	       0
		4051493068		10416157	4537186533	00001	2149988	Concrete nail X-C 30 B3 MX	8330	0001	        72.000	PC	PC	000010	681023382	42383579	1000415	8300	L04	9999	8330	01.10.2024	12.08.2024	0010	56338853	1000415	D442788001	0013442788	            0001	01.08.2024	       0
		4051493070		10416162	4537189523	00001	2122713	Rotary hammer TE 3-ML 220V case	8330	0001	             2	PC	PC	000010	681025975	56400009251	HAT0564	8300	L08	9999	8330	01.10.2024	12.08.2024	0010	56291816	HAT0564	D341658004	0013341658	            0004	17.06.2024	       7
		4051484834		10373355	4537081794	00001	2330984	Pipe shoe MP-PS L2-2 110-118 4" OC	8750	0001	            16	PC	PC	000010	680937833	42308359	1000415	8750	L06	9999	8750	18.09.2024	22.07.2024	0100	56320959	1000415	D404679003	0013404679	            0003	15.07.2024	       0
		4051484781		10373377	4537084330	00001	2268516	I.-Channel MT-60 OC	8330	0001	           300	M	M	000010	680939755	56400006421	HAT0564	8300	L14	9999	8330	25.09.2024	22.07.2024	0040	56293557	HAT0564	D345873005	0013345873	            0005	18.06.2024	       0
		4051489391		10395276	4537136993	00001	2213356	Cast-in device CP 680-P 3''	8330	0001	           224	PC	PC	000010	680983136	1152374292	HUS4701	8300	L03	9999	8330	16.09.2024	31.07.2024	0010	56322418	HUS4701	D407246001	0013407246	            0001	16.07.2024	-7
		4051489394		10395273	4537137017	00001	2172997	Cast-in device CP 680-P 4"	8330	0001	            84	PC	PC	000010	680983160	1152373449	HUS4701	8300	L03	9999	8330	16.09.2024	31.07.2024	0010	56332081	HUS4701	D424555002	0013424555	            0002	25.07.2024	-14
		4051473389		10315444	4536928749	00001	2291205	Cordl. imp. wrench SIW 4AT-22 1/2'' case	8750	0001	            32	PC	PC	000010	680813719	42188669	1000415	8750	L15	9999	8750	26.08.2024	24.06.2024	0010	56289851	1000415	D336556001	0013336556	            0001	14.06.2024	       0
		4051473535		10315447	4536933966	00001	2122681	Rotary hammer TE 3-CL 220V case	8750	0001	             8	PC	PC	000010	680818639	56400002394	HAT0564	8750	L08	9999	8750	26.08.2024	25.06.2024	0020	56255408	HAT0564	D273743002	0013273743	            0002	13.05.2024	       0
		4051479391		10345547	4537020720	00001	2272064	Angle connector MT-C-GS OC	8330	0001	           110	PC	PC	000010	680889302	42245999	1000415	8300	L14	9999	8330	16.09.2024	10.07.2024	0030	56287427	1000415	D333450003	0013333450	            0003	12.06.2024	      21
		4051479392		10345547	4537020725	00001	2207024	Conical washer X-CW S23	8330	0001	       115.200	PC	PC	000010	680889307	42247197	1000415	8300	L04	9999	8330	16.09.2024	10.07.2024	0040	56208130	1000415	D176636004	0013176636	            0004	27.03.2024	      84
		4051479388		10345550	4537020964	00001	2298509	Dust removal system SJD 6 DRS	8330	0001	             1	PC	PC	000010	680889522	56400004158	HAT0564	8300	L15	9999	8330	16.09.2024	10.07.2024	0010	56303329	HAT0564	D363986009	0013363986	            0009	26.06.2024	       0
		4051483652		10367404	4537060912	00001	2229027	DX Cartridge 6,8/11 M10 T titanium	8750	0001	        10.000	PC	PC	000010	680921063	58131586	HLI055C	8750	L04	9999	8750	15.08.2024	17.07.2024	0010	56312383	HLI055C	D386422001	0013386422	            0001	05.07.2024	       0
		4051484753		10373354	4537081758	00001	2323710	Tool bag S	8750	0001	             1	PC	PC	000010	680937813	42303205	1000415	8750	L09	9999	8750	18.09.2024	22.07.2024	0010	56205154	1000415	D171698005	0013171698	            0005	25.03.2024	     108
		4051487492		10387861	4537120251	00001	2223882	Anchor rod HAS-U 5.8 M24x450	8330	0001	            25	PC	PC	000010	680969195	56400007439	HAT0564	8300	L01	9999	8330	17.09.2024	29.07.2024	0010	56327298	HAT0564	D414722001	0013414722	            0001	22.07.2024	       0
		4051493068		10416157	4537186534	00001	2149988	Concrete nail X-C 30 B3 MX	8330	0001	       108.000	PC	PC	000010	681023383	42383579	1000415	8300	L04	9999	8330	01.10.2024	12.08.2024	0020	56338853	1000415	D442788002	0013442788	            0002	01.08.2024	       0
		4051479384		10345551	4537020758	00001	2268367	I.-Girder MT-80 OC	8330	0001	           198	M	M	000010	680889340	56400004509	HAT0564	8300	L14	9999	8330	06.09.2024	10.07.2024	0010	56293557	HAT0564	D345873002	0013345873	            0002	18.06.2024	       0
		4051484834		10373355	4537081802	00001	2330993	Pipe shoe MP-PS L2-2 318-328 12" OC	8750	0001	            16	PC	PC	000010	680937837	42308360	1000415	8750	L06	9999	8750	18.09.2024	22.07.2024	0140	56320959	1000415	D404679006	0013404679	            0006	15.07.2024	      56
		4051484781		10373377	4537084334	00001	2268516	I.-Channel MT-60 OC	8330	0001	           300	M	M	000010	680939756	56400006424	HAT0564	8300	L14	9999	8330	25.09.2024	22.07.2024	0040	56293557	HAT0564	D345873005	0013345873	            0005	18.06.2024	       0
		4051487497		10387857	4537118402	00001	2217520	Stand-up handle SDT 9	8330	0001	             1	PC	PC	000010	680967794	42327305	1000415	8300	L10	9999	8330	17.09.2024	29.07.2024	0010	56328452	1000415	D418058015	0013418058	            0015	22.07.2024	       0
		4051489391		10395276	4537136997	00001	2213356	Cast-in device CP 680-P 3''	8330	0001	           160	PC	PC	000010	680983140	1152374292	HUS4701	8300	L03	9999	8330	16.09.2024	31.07.2024	0020	56329489	HUS4701	D421027002	0013421027	            0002	23.07.2024	-14
		4051489394		10395273	4537137018	00001	2172996	Cast-in device CP 680-P 2"	8330	0001	           153	PC	PC	000010	680983161	1152373449	HUS4701	8300	L03	9999	8330	16.09.2024	31.07.2024	0040	56332103	HUS4701	D425264007	0013425264	            0007	25.07.2024	-14
		4051473389		10315444	4536928750	00001	2291205	Cordl. imp. wrench SIW 4AT-22 1/2'' case	8750	0001	            24	PC	PC	000010	680813720	42188670	1000415	8750	L15	9999	8750	26.08.2024	24.06.2024	0010	56289851	1000415	D336556001	0013336556	            0001	14.06.2024	       0
		4051479391		10345547	4537020713	00001	2272069	Angle connector MT-C-GL A OC adjustable	8330	0001	            20	PC	PC	000010	680889295	42245999	1000415	8300	L14	9999	8330	16.09.2024	10.07.2024	0030	56294803	1000415	D348026003	0013348026	            0003	19.06.2024	-43
		4051479392		10345547	4537020727	00001	2207024	Conical washer X-CW S23	8330	0001	       115.200	PC	PC	000010	680889308	42247198	1000415	8300	L04	9999	8330	16.09.2024	10.07.2024	0040	56208130	1000415	D176636004	0013176636	            0004	27.03.2024	      84
		4051479388		10345550	4537020965	00001	2288405	U-bolt MP-UB 33 1" M8 OC	8330	0001	            40	PC	PC	000010	680889523	56400004158	HAT0564	8300	L14	9999	8330	16.09.2024	10.07.2024	0010	56303619	HAT0564	D366079001	0013366079	            0001	27.06.2024	       0
		4051483652		10367404	4537060914	00001	2229027	DX Cartridge 6,8/11 M10 T titanium	8750	0001	        10.000	PC	PC	000010	680921064	58131587	HLI055C	8750	L04	9999	8750	15.08.2024	17.07.2024	0010	56312383	HLI055C	D386422001	0013386422	            0001	05.07.2024	       0
		4051487492		10387861	4537120252	00001	2248355	Cordl. dryw. screwdr. SD 5000-22 box	8330	0001	             1	PC	PC	000010	680969196	56400007439	HAT0564	8300	L10	9999	8330	17.09.2024	29.07.2024	0010	56328450	HAT0564	D418058019	0013418058	            0019	22.07.2024	       0
		4051490403		10401437	4537152827	00001	2149989	Concrete nail X-C 36 B3 MX	8330	0001	       144.000	PC	PC	000010	680995984	42356632	1000415	8300	L04	9999	8330	24.09.2024	05.08.2024	0020	56335060	1000415	D431655040	0013431655	            0040	30.07.2024	       0
		4051493068		10416157	4537186536	00001	2149989	Concrete nail X-C 36 B3 MX	8330	0001	       108.000	PC	PC	000010	681023385	42383580	1000415	8300	L04	9999	8330	01.10.2024	12.08.2024	0010	56341674	1000415	D449151002	0013449151	            0002	06.08.2024	       0
		4051462470		10257761	4536772494	00001	2149989	Concrete nail X-C 36 B3 MX	8330	0001	       108.000	PC	PC	000010	680685448	42063010	1000415	8300	L04	9999	8330	14.08.2024	27.05.2024	0050	56262323	1000415	D284306006	0013284306	            0006	21.05.2024	       0
		4051479384		10345551	4537020759	00001	2268367	I.-Girder MT-80 OC	8330	0001	           198	M	M	000010	680889341	56400004502	HAT0564	8300	L14	9999	8330	06.09.2024	10.07.2024	0010	56293557	HAT0564	D345873002	0013345873	            0002	18.06.2024	       0
		4051484834		10373355	4537081809	00001	2330982	Pipe shoe MP-PS L2-2 88-94 3" OC	8750	0001	            16	PC	PC	000010	680937841	42308361	1000415	8750	L06	9999	8750	18.09.2024	22.07.2024	0160	56320959	1000415	D404679008	0013404679	            0008	15.07.2024	      56
		4051484781		10373377	4537084336	00001	2268516	I.-Channel MT-60 OC	8330	0001	           300	M	M	000010	680939757	56400006425	HAT0564	8300	L14	9999	8330	25.09.2024	22.07.2024	0040	56293557	HAT0564	D345873005	0013345873	            0005	18.06.2024	       0
		4051489391		10395276	4537136998	00001	2213356	Cast-in device CP 680-P 3''	8330	0001	           256	PC	PC	000010	680983141	1152374295	HUS4701	8300	L03	9999	8330	16.09.2024	31.07.2024	0020	56329489	HUS4701	D421027002	0013421027	            0002	23.07.2024	-14
		4051473389		10315444	4536928738	00001	2388396	Battery charger C 4-22 220V box	8750	0001	           108	PC	PC	000010	680813710	42188685	1000415	8750	L15	9999	8750	26.08.2024	24.06.2024	0010	56271781	1000415	D300236001	0013300236	            0001	28.05.2024	       0
		4051479391		10345547	4537020716	00001	2149989	Concrete nail X-C 36 B3 MX	8330	0001	       180.000	PC	PC	000010	680889298	42246414	1000415	8300	L04	9999	8330	16.09.2024	10.07.2024	0050	56302463	1000415	D364782006	0013364782	            0006	27.06.2024	       0
		4051479388		10345550	4537020967	00001	2288420	U-bolt MP-UB 324 12" M12 OC	8330	0001	            12	PC	PC	000010	680889524	56400004158	HAT0564	8300	L06	9999	8330	16.09.2024	10.07.2024	0010	56303620	HAT0564	D366080001	0013366080	            0001	27.06.2024	       0
		4051483652		10367404	4537060915	00001	2229027	DX Cartridge 6,8/11 M10 T titanium	8750	0001	        10.000	PC	PC	000010	680921065	58131588	HLI055C	8750	L04	9999	8750	15.08.2024	17.07.2024	0010	56312383	HLI055C	D386422001	0013386422	            0001	05.07.2024	       0
		4051487492		10387861	4537120253	00001	2203158	Drilling stand DD-ST 120 SFM	8330	0001	             1	PC	PC	000010	680969197	56400007439	HAT0564	8300	L05	9999	8330	17.09.2024	29.07.2024	0020	56328450	HAT0564	D418058047	0013418058	            0047	22.07.2024	       0
		4051490403		10401437	4537152828	00001	2149989	Concrete nail X-C 36 B3 MX	8330	0001	       180.000	PC	PC	000010	680995985	42356633	1000415	8300	L04	9999	8330	24.09.2024	05.08.2024	0020	56335060	1000415	D431655040	0013431655	            0040	30.07.2024	       0
		4051493068		10416157	4537186535	00001	2149988	Concrete nail X-C 30 B3 MX	8330	0001	       144.000	PC	PC	000010	681023384	42383581	1000415	8300	L04	9999	8330	01.10.2024	12.08.2024	0020	56338853	1000415	D442788002	0013442788	            0002	01.08.2024	       0
		4051462470		10257761	4536772491	00001	228342	Ceiling clip X-ECC MX	8330	0001	        28.800	PC	PC	000010	680685446	42063011	1000415	8300	L04	9999	8330	14.08.2024	27.05.2024	0010	56262323	1000415	D284306002	0013284306	            0002	21.05.2024	       0
		4051479384		10345551	4537020760	00001	2268367	I.-Girder MT-80 OC	8330	0001	           198	M	M	000010	680889342	56400004497	HAT0564	8300	L14	9999	8330	06.09.2024	10.07.2024	0010	56293557	HAT0564	D345873002	0013345873	            0002	18.06.2024	       0
		4051484753		10373354	4537081760	00001	2314164	Cutting disc 115/22mm SPX metal	8750	0001	            15	PC	PC	000010	680937814	42303205	1000415	8750	L05	9999	8750	18.09.2024	22.07.2024	0030	56252163	1000415	D265880005	0013265880	            0005	09.05.2024	      50
		4051484834		10373355	4537081796	00001	2330984	Pipe shoe MP-PS L2-2 110-118 4" OC	8750	0001	            48	PC	PC	000010	680937834	42308362	1000415	8750	L06	9999	8750	18.09.2024	22.07.2024	0100	56320959	1000415	D404679003	0013404679	            0003	15.07.2024	       0
		4051489391		10395276	4537137006	00001	2213356	Cast-in device CP 680-P 3''	8330	0001	           128	PC	PC	000010	680983149	1152374295	HUS4701	8300	L03	9999	8330	16.09.2024	31.07.2024	0030	56332103	HUS4701	D425264005	0013425264	            0005	25.07.2024	-14
		4051473389		10315444	4536928733	00001	2360540	Cordl. drill driver SF 8M-22 case	8750	0001	             4	PC	PC	000010	680813706	42189355	1000415	8750	L15	9999	8750	26.08.2024	24.06.2024	0020	56250492	1000415	D263297006	0013263297	            0006	07.05.2024	       0
		4051473535		10315447	4536933968	00001	2223878	Anchor rod HAS-U 5.8 M20x350	8750	0001	           160	PC	PC	000010	680818641	56400002366	HAT0564	8750	L01	9999	8750	26.08.2024	25.06.2024	0010	56275254	HAT0564	D310733001	0013310733	            0001	03.06.2024	       0
		4051479391		10345547	4537020717	00001	2149989	Concrete nail X-C 36 B3 MX	8330	0001	       180.000	PC	PC	000010	680889299	42246415	1000415	8300	L04	9999	8330	16.09.2024	10.07.2024	0050	56302463	1000415	D364782006	0013364782	            0006	27.06.2024	       0
		4051479388		10345550	4537020969	00001	2325739	Cordl. circular saw SC 6WL-22 box	8330	0001	             8	PC	PC	000010	680889525	56400004158	HAT0564	8300	L15	9999	8330	16.09.2024	10.07.2024	0010	56303691	HAT0564	D365700001	0013365700	            0001	27.06.2024	       0
		4051483652		10367404	4537060916	00001	2229027	DX Cartridge 6,8/11 M10 T titanium	8750	0001	        10.000	PC	PC	000010	680921066	58131589	HLI055C	8750	L04	9999	8750	15.08.2024	17.07.2024	0010	56312383	HLI055C	D386422001	0013386422	            0001	05.07.2024	       0
		4051493068		10416157	4537186540	00001	2169075	T-head bolt HBC-40/22 M12x80 8.8F	8330	0001	         2.000	PC	PC	000010	681023388	42383868	1000415	8300	L02	9999	8330	01.10.2024	12.08.2024	0010	56343182	1000415	D451531008	0013451531	            0008	06.08.2024	       0
		4051479384		10345551	4537020761	00001	2268367	I.-Girder MT-80 OC	8330	0001	           198	M	M	000010	680889343	56400004499	HAT0564	8300	L14	9999	8330	06.09.2024	10.07.2024	0010	56293557	HAT0564	D345873002	0013345873	            0002	18.06.2024	       0
		4051484834		10373355	4537081811	00001	2330982	Pipe shoe MP-PS L2-2 88-94 3" OC	8750	0001	            16	PC	PC	000010	680937842	42308363	1000415	8750	L06	9999	8750	18.09.2024	22.07.2024	0160	56320959	1000415	D404679008	0013404679	            0008	15.07.2024	      56
		4051489391		10395276	4537137007	00001	2213356	Cast-in device CP 680-P 3''	8330	0001	           384	PC	PC	000010	680983150	1152374298	HUS4701	8300	L03	9999	8330	16.09.2024	31.07.2024	0030	56332103	HUS4701	D425264005	0013425264	            0005	25.07.2024	-14
		4051479391		10345547	4537020722	00001	2149989	Concrete nail X-C 36 B3 MX	8330	0001	        72.000	PC	PC	000010	680889304	42246824	1000415	8300	L04	9999	8330	16.09.2024	10.07.2024	0050	56302463	1000415	D364782006	0013364782	            0006	27.06.2024	       0
		4051479384		10345551	4537020762	00001	2268367	I.-Girder MT-80 OC	8330	0001	           198	M	M	000010	680889344	56400004503	HAT0564	8300	L14	9999	8330	06.09.2024	10.07.2024	0010	56293557	HAT0564	D345873002	0013345873	            0002	18.06.2024	       0
		4051479388		10345550	4537020971	00001	2352793	Int. conc. vibrator NCV 4-22 cordl.	8330	0001	             8	PC	PC	000010	680889526	56400004158	HAT0564	8300	L15	9999	8330	16.09.2024	10.07.2024	0010	56307596	HAT0564	D378748001	0013378748	            0001	02.07.2024	       0
		4051483652		10367404	4537060917	00001	2229027	DX Cartridge 6,8/11 M10 T titanium	8750	0001	        10.000	PC	PC	000010	680921067	58131590	HLI055C	8750	L04	9999	8750	15.08.2024	17.07.2024	0010	56312383	HLI055C	D386422001	0013386422	            0001	05.07.2024	       0
		4051484754		10373354	4537081780	00001	2041604	Stud anchor HSV M8x75	8750	0001	         2.400	PC	PC	000010	680937826	42303205	1000415	8750	L02	9999	8750	18.09.2024	22.07.2024	0010	56323947	1000415	D408738001	0013408738	            0001	17.07.2024	       0
		4051490403		10401437	4537152821	00001	436067	Concrete nail X-CS 27 P8 S23 C	8330	0001	        38.400	PC	PC	000010	680995974	42356635	1000415	8300	L04	9999	8330	24.09.2024	05.08.2024	0030	56335043	1000415	D431794003	0013431794	            0003	30.07.2024	       0
		4051493068		10416157	4537186538	00001	2237085	Anchor rod HAS-U 8.8 M12x160	8330	0001	            20	PC	PC	000010	681023387	42383868	1000415	8300	L01	9999	8330	01.10.2024	12.08.2024	0010	56343181	1000415	D451215001	0013451215	            0001	06.08.2024	       0
		4051473389		10315444	4536928740	00001	2253848	Cordl. drill driver SF 4H-22 case	8750	0001	            20	PC	PC	000010	680813711	42189356	1000415	8750	L15	9999	8750	26.08.2024	24.06.2024	0010	56271974	1000415	D301239001	0013301239	            0001	28.05.2024	       0
		4051479391		10345547	4537020724	00001	2127987	Flush anchor HKV 3/8"x30	8330	0001	         8.000	PC	PC	000010	680889306	42246825	1000415	8300	L02	9999	8330	16.09.2024	10.07.2024	0010	56308329	1000415	D379434002	0013379434	            0002	03.07.2024	       0
		4051479384		10345551	4537020764	00001	2268367	I.-Girder MT-80 OC	8330	0001	           198	M	M	000010	680889345	56400004498	HAT0564	8300	L14	9999	8330	06.09.2024	10.07.2024	0010	56293557	HAT0564	D345873002	0013345873	            0002	18.06.2024	       0
		4051489391		10395276	4537136999	00001	2210239	Ultimate exp anc KB-TZ2 3/8x5	8330	0001	           200	PC	PC	000010	680983142	1152374299	HUS4701	8300	L02	9999	8330	16.09.2024	31.07.2024	0040	56329489	HUS4701	D421027004	0013421027	            0004	23.07.2024	-14
		4051473535		10315447	4536933960	00001	2223881	Anchor rod HAS-U 5.8 M24x300	8750	0001	           320	PC	PC	000010	680818633	56400002385	HAT0564	8750	L01	9999	8750	26.08.2024	25.06.2024	0020	56183165	HAT0564	D131212	0013131212	            0000	05.03.2024	       0
		4051483652		10367404	4537060918	00001	2229027	DX Cartridge 6,8/11 M10 T titanium	8750	0001	        10.000	PC	PC	000010	680921068	58131591	HLI055C	8750	L04	9999	8750	15.08.2024	17.07.2024	0010	56312383	HLI055C	D386422001	0013386422	            0001	05.07.2024	       0
		4051484753		10373354	4537081763	00001	2127989	Flush anchor HKV 1/2"x50	8750	0001	         1.000	PC	PC	000010	680937816	42303205	1000415	8750	L02	9999	8750	18.09.2024	22.07.2024	0010	56303101	1000415	D365156001	0013365156	            0001	27.06.2024	-6
		4051489391		10395276	4537137005	00001	2213357	Cast-in device CP 680-P 6''	8330	0001	           104	PC	PC	000010	680983148	1152374299	HUS4701	8300	L03	9999	8330	16.09.2024	31.07.2024	0020	56332103	HUS4701	D425264004	0013425264	            0004	25.07.2024	-14
		4051473389		10315444	4536928751	00001	2241416	Cordl. drill driver SFE 2-A12 case	8750	0001	             1	PC	PC	000010	680813721	42189356	1000415	8750	L09	9999	8750	26.08.2024	24.06.2024	0010	56291747	1000415	D342572007	0013342572	            0007	17.06.2024	       0
		4051479384		10345551	4537020770	00001	2268367	I.-Girder MT-80 OC	8330	0001	           198	M	M	000010	680889351	56400004508	HAT0564	8300	L14	9999	8330	06.09.2024	10.07.2024	0010	56293557	HAT0564	D345873002	0013345873	            0002	18.06.2024	       0
		4051483652		10367404	4537060920	00001	2229027	DX Cartridge 6,8/11 M10 T titanium	8750	0001	        10.000	PC	PC	000010	680921069	58131592	HLI055C	8750	L04	9999	8750	15.08.2024	17.07.2024	0010	56312383	HLI055C	D386422001	0013386422	            0001	05.07.2024	       0
		4051490403		10401437	4537152813	00001	228342	Ceiling clip X-ECC MX	8330	0001	        28.800	PC	PC	000010	680995961	42356642	1000415	8300	L04	9999	8330	24.09.2024	05.08.2024	0010	56312183	1000415	D386502010	0013386502	            0010	06.07.2024	      21
		4051479384		10345551	4537020771	00001	2268367	I.-Girder MT-80 OC	8330	0001	           198	M	M	000010	680889352	56400004507	HAT0564	8300	L14	9999	8330	06.09.2024	10.07.2024	0010	56293557	HAT0564	D345873002	0013345873	            0002	18.06.2024	       0
		4051484834		10373355	4537081787	00001	2331081	Connector pipe shoe MT-FPS-GL2 OC	8750	0001	            40	PC	PC	000010	680937830	42308369	1000415	8750	L06	9999	8750	18.09.2024	22.07.2024	0090	56320959	1000415	D404679011	0013404679	            0011	15.07.2024	       0
		4051489391		10395276	4537137008	00001	2213356	Cast-in device CP 680-P 3''	8330	0001	            48	PC	PC	000010	680983151	1152374299	HUS4701	8300	L03	9999	8330	16.09.2024	31.07.2024	0030	56332103	HUS4701	D425264005	0013425264	            0005	25.07.2024	-14
		4051473389		10315444	4536928748	00001	2223830	Anchor rod HAS-U 5.8 M16x190	8750	0001	           480	PC	PC	000010	680813718	42189146	1000415	8750	L01	9999	8750	26.08.2024	24.06.2024	0020	56280861	1000415	D322858002	0013322858	            0002	06.06.2024	       0
		4051479384		10345551	4537020772	00001	2268367	I.-Girder MT-80 OC	8330	0001	           198	M	M	000010	680889353	56400004510	HAT0564	8300	L14	9999	8330	06.09.2024	10.07.2024	0010	56293557	HAT0564	D345873002	0013345873	            0002	18.06.2024	       0
		4051483652		10367404	4537060921	00001	2229027	DX Cartridge 6,8/11 M10 T titanium	8750	0001	        10.000	PC	PC	000010	680921070	58131593	HLI055C	8750	L04	9999	8750	15.08.2024	17.07.2024	0010	56312383	HLI055C	D386422001	0013386422	            0001	05.07.2024	       0
		4051484753		10373354	4537081776	00001	2272076	Splice connector MT-ES-90 OC	8750	0001	            12	PC	PC	000010	680937824	42303205	1000415	8750	L14	9999	8750	18.09.2024	22.07.2024	0010	56322685	1000415	D407206002	0013407206	            0002	17.07.2024	       0
		4051490403		10401437	4537152816	00001	2273585	Angle brace MT-AB-LL2 45 OC	8330	0001	            10	PC	PC	000010	680995968	42357069	1000415	8300	L14	9999	8330	24.09.2024	05.08.2024	0010	56335026	1000415	D431684001	0013431684	            0001	29.07.2024	       0
		4051473535		10315447	4536933967	00001	2223878	Anchor rod HAS-U 5.8 M20x350	8750	0001	           160	PC	PC	000010	680818640	56400002361	HAT0564	8750	L01	9999	8750	26.08.2024	25.06.2024	0010	56267264	HAT0564	D292613001	0013292613	            0001	24.05.2024	       0
		4051483652		10367404	4537060922	00001	2229027	DX Cartridge 6,8/11 M10 T titanium	8750	0001	        10.000	PC	PC	000010	680921071	58131594	HLI055C	8750	L04	9999	8750	15.08.2024	17.07.2024	0010	56312383	HLI055C	D386422001	0013386422	            0001	05.07.2024	       0
		4051484834		10373355	4537081785	00001	2044213	Accessory kit VC case	8750	0001	             1	PC	PC	000010	680937829	42308369	1000415	8750	L05	9999	8750	18.09.2024	22.07.2024	0010	56302482	1000415	D364671005	0013364671	            0005	27.06.2024	-6
		4051490403		10401437	4537152819	00001	2127987	Flush anchor HKV 3/8"x30	8330	0001	         8.000	PC	PC	000010	680995972	42357069	1000415	8300	L02	9999	8330	24.09.2024	05.08.2024	0020	56335043	1000415	D431794004	0013431794	            0004	30.07.2024	       0
		4051483652		10367404	4537060924	00001	2229027	DX Cartridge 6,8/11 M10 T titanium	8750	0001	        10.000	PC	PC	000010	680921072	58131595	HLI055C	8750	L04	9999	8750	15.08.2024	17.07.2024	0010	56312383	HLI055C	D386422001	0013386422	            0001	05.07.2024	       0
		4051490403		10401437	4537152815	00001	2168780	T-head bolt HBC-38/17 M12x60 8.8F	8330	0001	            50	PC	PC	000010	680995966	42357069	1000415	8300	L02	9999	8330	24.09.2024	05.08.2024	0010	56332359	1000415	D425264006	0013425264	            0006	25.07.2024	       0
		4051473535		10315447	4536933961	00001	2223882	Anchor rod HAS-U 5.8 M24x450	8750	0001	            80	PC	PC	000010	680818634	56400002375	HAT0564	8750	L01	9999	8750	26.08.2024	25.06.2024	0020	56213679	HAT0564	D191688	0013191688	            0000	03.04.2024	       0
		4051483652		10367404	4537060925	00001	2229027	DX Cartridge 6,8/11 M10 T titanium	8750	0001	        10.000	PC	PC	000010	680921073	58131596	HLI055C	8750	L04	9999	8750	15.08.2024	17.07.2024	0010	56312383	HLI055C	D386422001	0013386422	            0001	05.07.2024	       0
		4051490403		10401437	4537152836	00001	2127987	Flush anchor HKV 3/8"x30	8330	0001	         8.000	PC	PC	000010	680995993	42357069	1000415	8300	L02	9999	8330	24.09.2024	05.08.2024	0010	56336563	1000415	D434314001	0013434314	            0001	31.07.2024	       0
		4051483652		10367404	4537060926	00001	2229027	DX Cartridge 6,8/11 M10 T titanium	8750	0001	        10.000	PC	PC	000010	680921074	58131472	HLI055C	8750	L04	9999	8750	15.08.2024	17.07.2024	0010	56312383	HLI055C	D386422001	0013386422	            0001	05.07.2024	       0
		4051484753		10373354	4537081762	00001	2091384	Concrete nail X-C 37 P8 BULK	8750	0001	         1.000	PC	PC	000010	680937815	42303205	1000415	8750	L04	9999	8750	18.09.2024	22.07.2024	0010	56295136	1000415	D348764004	0013348764	            0004	20.06.2024	      22
		4051473389		10315444	4536928736	00001	416746	Screw anchor HUS3-P 6x60/5/25	8750	0001	           100	PC	PC	000010	680813709	42190236	1000415	8750	L02	9999	8750	26.08.2024	24.06.2024	0010	56271624	1000415	D300858002	0013300858	            0002	28.05.2024	       0
		4051473389		10315444	4536928742	00001	2223824	Anchor rod HAS-U 5.8 M12x160 BULK	8750	0001	           100	PC	PC	000010	680813713	42190236	1000415	8750	L01	9999	8750	26.08.2024	24.06.2024	0020	56274136	1000415	D304655004	0013304655	            0004	31.05.2024	       0
		4051473389		10315444	4536928734	00001	2207450	Dia. polishing disc 130 SPX (6) G.50	8750	0001	            60	PC	PC	000010	680813707	42190236	1000415	8750	L05	9999	8750	26.08.2024	24.06.2024	0010	56266794	1000415	D289844001	0013289844	            0001	23.05.2024	      28
		4051473554		10310998	4536929315	00002	2164508	Adhesive capsule HVU2 M16x125	8750	0001	           200	PC	PC	000020	680814128	58085502	HLI0550	8750	L01	9999	8750	26.08.2024	24.06.2024	0010	56262651	HLI0550	D284317001	0013284317	            0001	21.05.2024	      28
		4051473554		10310998	4536929323	00002	338725	Firestop foam CP 620 US	8750	0001	            24	PC	PC	000020	680814133	58085614	HLI0550	8750	L03	9999	8750	26.08.2024	24.06.2024	0010	56212924	HLI0550	D189179002	0013189179	            0002	02.04.2024	      28
		4051473554		10310998	4536929327	00002	2031400	Injectable mortar HIT-MM PLUS 500/2	8750	0001	           160	PC	PC	000020	680814135	58110168	HLI0550	8750	L01	9999	8750	26.08.2024	24.06.2024	0030	56292283	HLI0550	D344530003	0013344530	            0003	18.06.2024	       0
		4051473646		10310999	4536929335	00002	2153651	ON!Track tag AI L5	8750	0001	           300	PC	PC	000020	680814140	58110839	HLI0550	8750	L13	9999	8750	26.08.2024	24.06.2024	0030	56284144	HLI0550	D327858011	0013327858	            0011	10.06.2024	       0
		4051484849		10369021	4537081714	00002	2325193	Carbide burr GDG-6mm cylindrical	8750	0001	            24	PC	PC	000020	680937776	58134254	HLI0550	8750	L09	9999	8750	18.09.2024	22.07.2024	0010	56322319	HLI0550	D407069003	0013407069	            0003	16.07.2024	       0
		4051473533		10315447	4536933956	00002	407500	Anchor rod HAS 8.8 M20x1000	8750	0001	           120	PC	PC	000020	680818629	56400002388	HAT0564	8750	L01	9999	8750	26.08.2024	25.06.2024	0010	56284411	HAT0564	D328556005	0013328556	            0005	11.06.2024	       0
		4051492620		10414496	4537177450	00002	2273698	Girder end cap MT-EC-80	8750	0001	           100	PC	PC	000020	681015863	58150288	HLI0550	8750	L14	9999	8750	15.08.2024	08.08.2024	0020	56344294	HLI0550	D454060002	0013454060	            0002	08.08.2024	       0
		4051493863		10419828	4537197432	00002	360485	Mesh sleeve HIT-SC 18x50	8750	0001	            60	PC	PC	000020	681032294	42396003	1000415	8750	L03	9999	8750	20.08.2024	13.08.2024	0020	56347102	1000415	D456978002	0013456978	            0002	09.08.2024	       1
		4051473389		10315444	4536928732	00002	2251625	Cordl. imp. wrench SIW 8-22 1/2" case	8750	0001	            24	PC	PC	000020	680813705	42186966	1000415	8750	L15	9999	8750	26.08.2024	24.06.2024	0020	56251355	1000415	D264869002	0013264869	            0002	08.05.2024	       0
		4051473554		10310998	4536929315	00003	2164509	Adhesive capsule HVU2 M20x170	8750	0001	            40	PC	PC	000030	680814128	58085502	HLI0550	8750	L01	9999	8750	26.08.2024	24.06.2024	0020	56262651	HLI0550	D284317002	0013284317	            0002	21.05.2024	      28
		4051473554		10310998	4536929315	00004	2164506	Adhesive capsule HVU2 M10x90	8750	0001	           200	PC	PC	000040	680814128	58085502	HLI0550	8750	L01	9999	8750	26.08.2024	24.06.2024	0030	56262651	HLI0550	D284317003	0013284317	            0003	21.05.2024	      28
		4051473554		10310998	4536929328	00002	2164506	Adhesive capsule HVU2 M10x90	8750	0001	           140	PC	PC	000020	680814136	58111167	HLI0550	8750	L01	9999	8750	26.08.2024	24.06.2024	0040	56274135	HLI0550	D304655007	0013304655	            0007	31.05.2024	       0
		4051473646		10310999	4536929339	00002	2335646	Circ. saw blade SCBW WU SPX 190 A	8750	0001	            10	PC	PC	000020	680814142	58110829	HLI0550	8750	L09	9999	8750	26.08.2024	24.06.2024	0120	56248891	HLI0550	D260624007	0013260624	            0007	06.05.2024	       0
		4051483650		10367403	4537061283	00002	2305657	Diamond wire DS-W 10.5-100m VB SPX-H C&S	8750	0001	           100	M	M	000020	680921287	58131508	HLI0550	8750	L12	9999	8750	20.08.2024	17.07.2024	0020	56318482	HLI0550	D398033002	0013398033	            0002	11.07.2024	       0
		4051484849		10369021	4537081709	00002	2341092	Hammer drill bit TE-CX 1/2"-6"	8750	0001	            29	PC	PC	000020	680937771	58134941	HLI0550	8750	L09	9999	8750	18.09.2024	22.07.2024	0050	56276852	HLI0550	D315835010	0013315835	            0010	03.06.2024	-6
		4051484849		10369021	4537081714	00003	2023990	Circ. saw blade SC-C MS 165 AL	8750	0001	             1	PC	PC	000030	680937776	58134254	HLI0550	8750	L09	9999	8750	18.09.2024	22.07.2024	0050	56322319	HLI0550	D407069013	0013407069	            0013	16.07.2024	       0
		4051484835		10373356	4537084286	00002	2270830	Cordl. angle grinder AG 5D-22-125 case	8750	0001	             9	PC	PC	000020	680939744	56400006464	HAT0564	8750	L15	9999	8750	18.09.2024	22.07.2024	0010	56301709	HAT0564	D363038001	0013363038	            0001	26.06.2024	-6
		4051473554		10310998	4536929328	00003	2164508	Adhesive capsule HVU2 M16x125	8750	0001	           240	PC	PC	000030	680814136	58111167	HLI0550	8750	L01	9999	8750	26.08.2024	24.06.2024	0010	56284407	HLI0550	D328556001	0013328556	            0001	11.06.2024	       0
		4051473535		10315447	4536933964	00002	2250117	Cordl. dispenser CD 4-22 box	8750	0001	             2	PC	PC	000020	680818637	56400002383	HAT0564	8750	L15	9999	8750	26.08.2024	25.06.2024	0080	56252695	HAT0564	D266300015	0013266300	            0015	09.05.2024	      28
		4051483650		10367403	4537061283	00003	2299887	Diamond wire DS-W 10.5-50m SI SPX-M/H	8750	0001	           100	M	M	000030	680921287	58131508	HLI0550	8750	L12	9999	8750	20.08.2024	17.07.2024	0030	56318482	HLI0550	D398033003	0013398033	            0003	11.07.2024	       0
		4051484776		10369020	4537081699	00002	430811	Firestop joint spray CFS-SP WB red	8750	0001	             5	PC	PC	000020	680937763	58133664	HLI0550	8750	L03	9999	8750	18.09.2024	22.07.2024	0010	56271623	HLI0550	D300858001	0013300858	            0001	28.05.2024	-6
		4051484849		10369021	4537081709	00003	2151628	Hammer drill bit TE-CX 12/27	8750	0001	             5	PC	PC	000030	680937771	58134941	HLI0550	8750	L09	9999	8750	18.09.2024	22.07.2024	0060	56276852	HLI0550	D315835013	0013315835	            0013	03.06.2024	-6
		4051473554		10310998	4536929328	00004	2164560	Adhesive capsule HVU2 M24x210	8750	0001	            10	PC	PC	000040	680814136	58111167	HLI0550	8750	L01	9999	8750	26.08.2024	24.06.2024	0020	56290256	HLI0550	D337865006	0013337865	            0006	14.06.2024	       0
		4051473535		10315447	4536933958	00002	2223874	Anchor rod HAS-U 5.8 M20x240	8750	0001	            10	PC	PC	000020	680818631	56400002383	HAT0564	8750	L01	9999	8750	26.08.2024	25.06.2024	0010	56272003	HAT0564	D301270001	0013301270	            0001	29.05.2024	       0
		4051483650		10367403	4537061283	00004	2299890	Diamond wire DS-W 10.5-50m SI SP-M/H	8750	0001	           100	M	M	000040	680921287	58131508	HLI0550	8750	L12	9999	8750	20.08.2024	17.07.2024	0040	56318482	HLI0550	D398033004	0013398033	            0004	11.07.2024	       0
		4051484776		10369020	4537081699	00003	430811	Firestop joint spray CFS-SP WB red	8750	0001	             2	PC	PC	000030	680937763	58133664	HLI0550	8750	L03	9999	8750	18.09.2024	22.07.2024	0010	56303828	HLI0550	D366701002	0013366701	            0002	28.06.2024	-62
		4051484849		10369021	4537081709	00004	2122302	Hammer drill bit TE-YX 22/52	8750	0001	            15	PC	PC	000040	680937771	58134941	HLI0550	8750	L09	9999	8750	18.09.2024	22.07.2024	0070	56276852	HLI0550	D315835014	0013315835	            0014	03.06.2024	-6
		4051494340		10422345	4537203271	00002	2262139	Recip. saw blade SPX 15 8 (10) metal	8750	0001	            50	PC	PC	000020	681037405	58154757	HLI0550	8750	L09	9999	8750	10.09.2024	14.08.2024	0010	56337691	HLI0550	D436208001	0013436208	            0001	31.07.2024	       0
		4051473554		10310998	4536929328	00005	2164508	Adhesive capsule HVU2 M16x125	8750	0001	           240	PC	PC	000050	680814136	58111167	HLI0550	8750	L01	9999	8750	26.08.2024	24.06.2024	0020	56292283	HLI0550	D344530002	0013344530	            0002	18.06.2024	       0
		4051484776		10369020	4537081699	00004	430811	Firestop joint spray CFS-SP WB red	8750	0001	             7	PC	PC	000040	680937763	58133664	HLI0550	8750	L03	9999	8750	18.09.2024	22.07.2024	0010	56271623	HLI0550	D300858001	0013300858	            0001	28.05.2024	-6
		4051484849		10369021	4537081709	00005	2122300	Hammer drill bit TE-YX 22/32	8750	0001	             2	PC	PC	000050	680937771	58134941	HLI0550	8750	L09	9999	8750	18.09.2024	22.07.2024	0010	56282995	HLI0550	D325773003	0013325773	            0003	07.06.2024	-6
		4051494340		10422345	4537203271	00003	2206617	Hammer drill bit TE-CX 20/32	8750	0001	            42	PC	PC	000030	681037405	58154757	HLI0550	8750	L09	9999	8750	10.09.2024	14.08.2024	0010	56344249	HLI0550	D453419001	0013453419	            0001	07.08.2024	       0
		4051473535		10315447	4536933965	00002	2256703	Cordless rotary hammer TE 2-22 case	8750	0001	             3	PC	PC	000020	680818638	56400002400	HAT0564	8750	L15	9999	8750	26.08.2024	25.06.2024	0010	56255408	HAT0564	D273743001	0013273743	            0001	13.05.2024	       0
		4051484849		10369021	4537081709	00006	409177	Hammer drill bit TE-CX 8/22	8750	0001	             4	PC	PC	000060	680937771	58134941	HLI0550	8750	L09	9999	8750	18.09.2024	22.07.2024	0020	56291746	HLI0550	D342572005	0013342572	            0005	17.06.2024	-6
		4051484849		10369021	4537081716	00002	2261684	Core bit B 77/430 P-U abras	8750	0001	             6	PC	PC	000020	680937778	58134745	HLI0550	8750	L05	9999	8750	18.09.2024	22.07.2024	0010	56322008	HLI0550	D406407001	0013406407	            0001	16.07.2024	       0
		4051494340		10422345	4537203272	00002	2042971	Sheet metal nail X-HSN 24	8750	0001	         1.000	PC	PC	000020	681037406	58154757	HLI0550	8750	L04	9999	8750	10.09.2024	14.08.2024	0010	56346767	HLI0550	D457669001	0013457669	            0001	10.08.2024	       0
		4051473554		10310998	4536929317	00002	2101534	Firestop sealant FS-ONE MAX 10.1OZ CART	8750	0001	            12	PC	PC	000020	680814129	58085870	HLI0550	8750	L03	9999	8750	26.08.2024	24.06.2024	0010	56249898	HLI0550	D260451006	0013260451	            0006	06.05.2024	      28
		4051473554		10310998	4536929330	00002	2164561	Adhesive capsule HVU2 M27x240	8750	0001	            20	PC	PC	000020	680814137	58111713	HLI0550	8750	L01	9999	8750	26.08.2024	24.06.2024	0010	56281618	HLI0550	D324077003	0013324077	            0003	07.06.2024	       0
		4051484849		10369021	4537081709	00007	409175	Hammer drill bit TE-CX 8/12	8750	0001	             1	PC	PC	000070	680937771	58134941	HLI0550	8750	L09	9999	8750	18.09.2024	22.07.2024	0010	56295077	HLI0550	D348779002	0013348779	            0002	20.06.2024	-6
		4051484849		10369021	4537081709	00008	2122292	Hammer drill bit TE-YX 18/52	8750	0001	             1	PC	PC	000080	680937771	58134941	HLI0550	8750	L09	9999	8750	18.09.2024	22.07.2024	0030	56295077	HLI0550	D348779006	0013348779	            0006	20.06.2024	-6
		4051484849		10369021	4537081730	00002	2117978	Cutting disc EQD SPX 400/25 univ	8750	0001	             1	PC	PC	000020	680937792	58134788	HLI0550	8750	L05	9999	8750	18.09.2024	22.07.2024	0080	56312181	HLI0550	D386503018	0013386503	            0018	06.07.2024	-6
		4051484753		10373354	4537081758	00002	2323710	Tool bag S	8750	0001	             1	PC	PC	000020	680937813	42303205	1000415	8750	L09	9999	8750	18.09.2024	22.07.2024	0020	56255407	1000415	D273743010	0013273743	            0010	13.05.2024	      50
		4051473554		10310998	4536929330	00003	2164509	Adhesive capsule HVU2 M20x170	8750	0001	            60	PC	PC	000030	680814137	58111713	HLI0550	8750	L01	9999	8750	26.08.2024	24.06.2024	0010	56292283	HLI0550	D344530001	0013344530	            0001	18.06.2024	       0
		4051473554		10310998	4536929330	00004	2164509	Adhesive capsule HVU2 M20x170	8750	0001	            40	PC	PC	000040	680814137	58111713	HLI0550	8750	L01	9999	8750	26.08.2024	24.06.2024	0010	56292283	HLI0550	D344530001	0013344530	            0001	18.06.2024	       0
		4051473535		10315447	4536933966	00002	2122714	Rotary hammer TE 3-ML 220V case	8750	0001	            12	PC	PC	000020	680818639	56400002394	HAT0564	8750	L08	9999	8750	26.08.2024	25.06.2024	0020	56276856	HAT0564	D315835017	0013315835	            0017	03.06.2024	-95
		4051484849		10369021	4537081709	00009	409176	Hammer drill bit TE-CX 8/17	8750	0001	            30	PC	PC	000090	680937771	58134941	HLI0550	8750	L09	9999	8750	18.09.2024	22.07.2024	0030	56296326	HLI0550	D352702004	0013352702	            0004	20.06.2024	-6
		4051484753		10373354	4537081758	00003	2323710	Tool bag S	8750	0001	             1	PC	PC	000030	680937813	42303205	1000415	8750	L09	9999	8750	18.09.2024	22.07.2024	0020	56264152	1000415	D287445005	0013287445	            0005	21.05.2024	      50
		4051473554		10310998	4536929332	00002	2164560	Adhesive capsule HVU2 M24x210	8750	0001	           200	PC	PC	000020	680814138	58111209	HLI0550	8750	L01	9999	8750	26.08.2024	24.06.2024	0020	56290256	HLI0550	D337865006	0013337865	            0006	14.06.2024	       0
		4051483650		10367403	4537061271	00002	2113974	Stud anchor HST3 M10x70 10/-	8750	0001	           100	PC	PC	000020	680921275	58132216	HLI0550	8750	L02	9999	8750	20.08.2024	17.07.2024	0010	56303649	HLI0550	D363790001	0013363790	            0001	26.06.2024	-42
		4051484849		10369021	4537081709	00010	2122302	Hammer drill bit TE-YX 22/52	8750	0001	            15	PC	PC	000100	680937771	58134941	HLI0550	8750	L09	9999	8750	18.09.2024	22.07.2024	0010	56304904	HLI0550	D368134001	0013368134	            0001	28.06.2024	-34
		4051484849		10369021	4537081709	00011	409176	Hammer drill bit TE-CX 8/17	8750	0001	            10	PC	PC	000110	680937771	58134941	HLI0550	8750	L09	9999	8750	18.09.2024	22.07.2024	0030	56304904	HLI0550	D368134005	0013368134	            0005	28.06.2024	-34
		4051484849		10369021	4537081732	00002	2293567	Screw anchor HUS4-H 12x130 70/50/30	8750	0001	         1.200	PC	PC	000020	680937794	58134737	HLI0550	8750	L02	9999	8750	18.09.2024	22.07.2024	0010	56319285	HLI0550	D399585001	0013399585	            0001	12.07.2024	       0
		4051473389		10315444	4536928733	00002	2254883	Cordl. ham. dr. driver SF 6H-22 case	8750	0001	            23	PC	PC	000020	680813706	42189355	1000415	8750	L15	9999	8750	26.08.2024	24.06.2024	0030	56250492	1000415	D263297011	0013263297	            0011	07.05.2024	       0
		4051473535		10315447	4536933968	00002	2223878	Anchor rod HAS-U 5.8 M20x350	8750	0001	           260	PC	PC	000020	680818641	56400002366	HAT0564	8750	L01	9999	8750	26.08.2024	25.06.2024	0020	56275254	HAT0564	D310733002	0013310733	            0002	03.06.2024	       0
		4051483650		10367403	4537061271	00003	2105888	Stud anchor HST3 M8x75 -/10	8750	0001	           200	PC	PC	000030	680921275	58132216	HLI0550	8750	L02	9999	8750	20.08.2024	17.07.2024	0010	56303823	HLI0550	D366133001	0013366133	            0001	27.06.2024	       0
		4051484849		10369021	4537081709	00012	2151628	Hammer drill bit TE-CX 12/27	8750	0001	             9	PC	PC	000120	680937771	58134941	HLI0550	8750	L09	9999	8750	18.09.2024	22.07.2024	0040	56304904	HLI0550	D368134006	0013368134	            0006	28.06.2024	-34
		4051484849		10369021	4537081709	00013	2122300	Hammer drill bit TE-YX 22/32	8750	0001	             8	PC	PC	000130	680937771	58134941	HLI0550	8750	L09	9999	8750	18.09.2024	22.07.2024	0060	56304904	HLI0550	D368134008	0013368134	            0008	28.06.2024	-34
		4051484753		10373354	4537081760	00002	2314167	Cutting disc 300/25mm SPX metal	8750	0001	             5	PC	PC	000020	680937814	42303205	1000415	8750	L05	9999	8750	18.09.2024	22.07.2024	0020	56291109	1000415	D337865005	0013337865	            0005	14.06.2024	      22
		4051484834		10373355	4537081787	00004	2331072	Beam connector MP-PS IFG 80/160 OC	8750	0001	            28	PC	PC	000040	680937830	42308369	1000415	8750	L06	9999	8750	18.09.2024	22.07.2024	0120	56320959	1000415	D404679013	0013404679	            0013	15.07.2024	       0
		4051483650		10367403	4537061270	00002	409176	Hammer drill bit TE-CX 8/17	8750	0001	            15	PC	PC	000020	680921274	58132216	HLI0550	8750	L09	9999	8750	20.08.2024	17.07.2024	0010	56304895	HLI0550	D367713001	0013367713	            0001	28.06.2024	       0
		4051484849		10369021	4537081709	00014	2122290	Hammer drill bit TE-YX 18/32	8750	0001	            10	PC	PC	000140	680937771	58134941	HLI0550	8750	L09	9999	8750	18.09.2024	22.07.2024	0070	56304904	HLI0550	D368134009	0013368134	            0009	28.06.2024	-34
		4051484849		10369021	4537081709	00015	2151586	Hammer drill bit TE-CX 14/17 MP8	8750	0001	             8	PC	PC	000150	680937771	58134941	HLI0550	8750	L09	9999	8750	18.09.2024	22.07.2024	0010	56315230	HLI0550	D393657003	0013393657	            0003	09.07.2024	-6
		4051484849		10369021	4537081737	00002	2346060	Threaded stud S-BT-MF M10/15 AN 6 HL	8750	0001	         1.800	PC	PC	000020	680937799	58134668	HLI0550	8750	L10	9999	8750	18.09.2024	22.07.2024	0010	56306486	HLI0550	D366551001	0013366551	            0001	27.06.2024	-6
		4051484753		10373354	4537081763	00002	2223851	Anchor rod HAS-U A4 M16x220	8750	0001	            60	PC	PC	000020	680937816	42303205	1000415	8750	L02	9999	8750	18.09.2024	22.07.2024	0010	56322977	1000415	D407318001	0013407318	            0001	16.07.2024	       0
		4051484834		10373355	4537081787	00005	2330993	Pipe shoe MP-PS L2-2 318-328 12" OC	8750	0001	             4	PC	PC	000050	680937830	42308369	1000415	8750	L06	9999	8750	18.09.2024	22.07.2024	0140	56320959	1000415	D404679006	0013404679	            0006	15.07.2024	      56
		4051484834		10373355	4537081787	00006	2330982	Pipe shoe MP-PS L2-2 88-94 3" OC	8750	0001	            14	PC	PC	000060	680937830	42308369	1000415	8750	L06	9999	8750	18.09.2024	22.07.2024	0160	56320959	1000415	D404679008	0013404679	            0008	15.07.2024	      56
		4051473389		10315444	4536928742	00002	2223825	Anchor rod HAS-U 5.8 M12x180	8750	0001	           180	PC	PC	000020	680813713	42190236	1000415	8750	L01	9999	8750	26.08.2024	24.06.2024	0030	56280861	1000415	D322858003	0013322858	            0003	06.06.2024	       0
		4051473389		10315444	4536928748	00002	2223823	Anchor rod HAS-U 5.8 M12x160	8750	0001	         1.280	PC	PC	000020	680813718	42189146	1000415	8750	L01	9999	8750	26.08.2024	24.06.2024	0020	56288088	1000415	D334238002	0013334238	            0002	13.06.2024	       0
		4051473535		10315447	4536933962	00002	2270830	Cordl. angle grinder AG 5D-22-125 case	8750	0001	             9	PC	PC	000020	680818635	56400002381	HAT0564	8750	L15	9999	8750	26.08.2024	25.06.2024	0010	56283266	HAT0564	D326461001	0013326461	            0001	10.06.2024	       0
		4051483650		10367403	4537061270	00003	2151635	Hammer drill bit TE-CX 14/22	8750	0001	             5	PC	PC	000030	680921274	58132216	HLI0550	8750	L09	9999	8750	20.08.2024	17.07.2024	0010	56305115	HLI0550	D368253001	0013368253	            0001	28.06.2024	       0
		4051483650		10367403	4537061270	00004	2151590	Hammer drill bit TE-CX 16/22 MP8	8750	0001	            16	PC	PC	000040	680921274	58132216	HLI0550	8750	L09	9999	8750	20.08.2024	17.07.2024	0020	56305115	HLI0550	D368253002	0013368253	            0002	28.06.2024	       0
		4051483650		10367403	4537061277	00003	2260561	Dia blade 180/22 P univ	8750	0001	             6	PC	PC	000030	680921281	58132216	HLI0550	8750	L05	9999	8750	20.08.2024	17.07.2024	0010	56305475	HLI0550	D367934001	0013367934	            0001	28.06.2024	       0
		4051484849		10369021	4537081709	00016	2022009	Hammer drill bit TE-CX 10/22 MP8	8750	0001	             8	PC	PC	000160	680937771	58134941	HLI0550	8750	L09	9999	8750	18.09.2024	22.07.2024	0010	56318000	HLI0550	D397797001	0013397797	            0001	11.07.2024	-6
		4051484849		10369021	4537081727	00002	2293568	Screw anchor HUS4-H 12x150 90/70/50	8750	0001	           450	PC	PC	000020	680937789	58134668	HLI0550	8750	L02	9999	8750	18.09.2024	22.07.2024	0010	56319618	HLI0550	D400017001	0013400017	            0001	15.07.2024	       0
		4051484753		10373354	4537081762	00003	2149988	Concrete nail X-C 30 B3 MX	8750	0001	         1.000	PC	PC	000030	680937815	42303205	1000415	8750	L04	9999	8750	18.09.2024	22.07.2024	0030	56302482	1000415	D364671019	0013364671	            0019	27.06.2024	-6
		4051484753		10373354	4537081762	00004	2149989	Concrete nail X-C 36 B3 MX	8750	0001	         3.000	PC	PC	000040	680937815	42303205	1000415	8750	L04	9999	8750	18.09.2024	22.07.2024	0010	56318371	1000415	D397334004	0013397334	            0004	12.07.2024	-6
		4051484834		10373355	4537081787	00002	2330984	Pipe shoe MP-PS L2-2 110-118 4" OC	8750	0001	             2	PC	PC	000020	680937830	42308369	1000415	8750	L06	9999	8750	18.09.2024	22.07.2024	0100	56320959	1000415	D404679003	0013404679	            0003	15.07.2024	       0
		4051484834		10373355	4537081787	00003	2331079	Connector pipe shoe MT-FPS-SZ2 OC	8750	0001	            10	PC	PC	000030	680937830	42308369	1000415	8750	L06	9999	8750	18.09.2024	22.07.2024	0110	56320959	1000415	D404679012	0013404679	            0012	15.07.2024	       0
		4051473389		10315444	4536928742	00003	2223822	Anchor rod HAS-U 5.8 M12x120	8750	0001	           420	PC	PC	000030	680813713	42190236	1000415	8750	L01	9999	8750	26.08.2024	24.06.2024	0010	56288088	1000415	D334238001	0013334238	            0001	13.06.2024	       0
		4051473535		10315447	4536933961	00002	2223878	Anchor rod HAS-U 5.8 M20x350	8750	0001	           320	PC	PC	000020	680818634	56400002375	HAT0564	8750	L01	9999	8750	26.08.2024	25.06.2024	0010	56267264	HAT0564	D292613001	0013292613	            0001	24.05.2024	       0
		4051473535		10315447	4536933967	00002	2223878	Anchor rod HAS-U 5.8 M20x350	8750	0001	           320	PC	PC	000020	680818640	56400002361	HAT0564	8750	L01	9999	8750	26.08.2024	25.06.2024	0010	56275254	HAT0564	D310733001	0013310733	            0001	03.06.2024	       0
		4051483650		10367403	4537061277	00002	2076476	Core bit C+ 28/300 SPX-T abras	8750	0001	             2	PC	PC	000020	680921281	58132216	HLI0550	8750	L05	9999	8750	20.08.2024	17.07.2024	0020	56305156	HLI0550	D367239001	0013367239	            0001	28.06.2024	       0
		4051483650		10367403	4537061270	00005	409176	Hammer drill bit TE-CX 8/17	8750	0001	            20	PC	PC	000050	680921274	58132216	HLI0550	8750	L09	9999	8750	20.08.2024	17.07.2024	0010	56306597	HLI0550	D375320001	0013375320	            0001	01.07.2024	       0
		4051484849		10369021	4537081709	00017	2122292	Hammer drill bit TE-YX 18/52	8750	0001	             3	PC	PC	000170	680937771	58134941	HLI0550	8750	L09	9999	8750	18.09.2024	22.07.2024	0020	56318000	HLI0550	D397797002	0013397797	            0002	11.07.2024	-6
		4051484753		10373354	4537081762	00002	2149988	Concrete nail X-C 30 B3 MX	8750	0001	         1.000	PC	PC	000020	680937815	42303205	1000415	8750	L04	9999	8750	18.09.2024	22.07.2024	0020	56295136	1000415	D348764008	0013348764	            0008	20.06.2024	      22
		4051494340		10422345	4537203275	00002	2042971	Sheet metal nail X-HSN 24	8750	0001	         2.000	PC	PC	000020	681037408	58154754	HLI0550	8750	L04	9999	8750	10.09.2024	14.08.2024	0010	56346767	HLI0550	D457669001	0013457669	            0001	10.08.2024	       0
		4051473389		10315444	4536928745	00002	2323711	Tool bag M	8750	0001	             1	PC	PC	000020	680813716	42190236	1000415	8750	L09	9999	8750	26.08.2024	24.06.2024	0010	56278542	1000415	D319290005	0013319290	            0005	04.06.2024	       0
		4051473389		10315444	4536928745	00003	2323711	Tool bag M	8750	0001	             2	PC	PC	000030	680813716	42190236	1000415	8750	L09	9999	8750	26.08.2024	24.06.2024	0010	56284231	1000415	D328228003	0013328228	            0003	10.06.2024	       0
		4051473490		10315445	4536928753	00002	2288462	Battery charger C 8-22 220V box	8750	0001	            96	PC	PC	000020	680813723	42188554	1000415	8750	L15	9999	8750	26.08.2024	24.06.2024	0020	56252694	1000415	D266300007	0013266300	            0007	09.05.2024	      28
		4051483650		10367403	4537061270	00006	2206751	Hammer drill bit TE-CX 20/22	8750	0001	             1	PC	PC	000060	680921274	58132216	HLI0550	8750	L09	9999	8750	20.08.2024	17.07.2024	0010	56310814	HLI0550	D384477001	0013384477	            0001	04.07.2024	       0
		4051483650		10367403	4537061270	00007	409176	Hammer drill bit TE-CX 8/17	8750	0001	            10	PC	PC	000070	680921274	58132216	HLI0550	8750	L09	9999	8750	20.08.2024	17.07.2024	0010	56311778	HLI0550	D385844001	0013385844	            0001	05.07.2024	       0
		4051473389		10315444	4536928736	00002	416746	Screw anchor HUS3-P 6x60/5/25	8750	0001	           200	PC	PC	000020	680813709	42190236	1000415	8750	L02	9999	8750	26.08.2024	24.06.2024	0010	56274136	1000415	D304655006	0013304655	            0006	31.05.2024	       0
		4051483650		10367403	4537061274	00002	2346060	Threaded stud S-BT-MF M10/15 AN 6 HL	8750	0001	           100	PC	PC	000020	680921278	58132216	HLI0550	8750	L10	9999	8750	20.08.2024	17.07.2024	0010	56311925	HLI0550	D384903001	0013384903	            0001	04.07.2024	-21
		4051483650		10367403	4537061270	00008	304938	Twist drill bit HSS 1-10 (19) set	8750	0001	             2	PC	PC	000080	680921274	58132216	HLI0550	8750	L09	9999	8750	20.08.2024	17.07.2024	0010	56318413	HLI0550	D397418004	0013397418	            0004	11.07.2024	       0
		4051484849		10369021	4537081719	00002	2151626	Hammer drill bit TE-CX 12/17	8750	0001	             3	PC	PC	000020	680937781	58134710	HLI0550	8750	L09	9999	8750	18.09.2024	22.07.2024	0010	56247268	HLI0550	D256014001	0013256014	            0001	03.05.2024	      50
		4051484849		10369021	4537081719	00003	2151626	Hammer drill bit TE-CX 12/17	8750	0001	            11	PC	PC	000030	680937781	58134710	HLI0550	8750	L09	9999	8750	18.09.2024	22.07.2024	0100	56248891	HLI0550	D260624014	0013260624	            0014	06.05.2024	      22
		4051484849		10369021	4537081719	00004	2151588	Hammer drill bit TE-CX 14/27 MP8	8750	0001	             8	PC	PC	000040	680937781	58134710	HLI0550	8750	L09	9999	8750	18.09.2024	22.07.2024	0040	56255404	HLI0550	D273743008	0013273743	            0008	13.05.2024	      50
		4051473389		10315444	4536928736	00004	2237412	Anchor HSL4 M12 d18x131 25/-/-	8750	0001	            60	PC	PC	000040	680813709	42190236	1000415	8750	L02	9999	8750	26.08.2024	24.06.2024	0020	56281621	1000415	D324077001	0013324077	            0001	07.06.2024	       0
		4051473389		10315444	4536928736	00007	382941	Flush anchor HKD M16x65	8750	0001	           300	PC	PC	000070	680813709	42190236	1000415	8750	L02	9999	8750	26.08.2024	24.06.2024	0020	56284410	1000415	D328556003	0013328556	            0003	11.06.2024	       0
		4051483650		10367403	4537061270	00009	2389950	Circ. saw blade SCBW FF SPX 165 A	8750	0001	             2	PC	PC	000090	680921274	58132216	HLI0550	8750	L09	9999	8750	20.08.2024	17.07.2024	0020	56318413	HLI0550	D397418002	0013397418	            0002	11.07.2024	       0
		4051483650		10367403	4537061270	00010	2361741	Circ. saw blade SCBW WUR SPX 165 A	8750	0001	             2	PC	PC	000100	680921274	58132216	HLI0550	8750	L09	9999	8750	20.08.2024	17.07.2024	0030	56318413	HLI0550	D397418003	0013397418	            0003	11.07.2024	       0
		4051483650		10367403	4537061270	00011	2341107	Hammer drill bit TE-CX Set (6) M4 GC	8750	0001	             2	PC	PC	000110	680921274	58132216	HLI0550	8750	L09	9999	8750	20.08.2024	17.07.2024	0040	56318413	HLI0550	D397418001	0013397418	            0001	11.07.2024	       0
		4051484849		10369021	4537081719	00005	2206734	Hammer drill bit TE-CX 25/48	8750	0001	             1	PC	PC	000050	680937781	58134710	HLI0550	8750	L09	9999	8750	18.09.2024	22.07.2024	0010	56278540	HLI0550	D319290004	0013319290	            0004	04.06.2024	      22
		4051473389		10315444	4536928736	00005	2237399	Anchor HSL4 M8 d12x97 20/-/-	8750	0001	            80	PC	PC	000050	680813709	42190236	1000415	8750	L02	9999	8750	26.08.2024	24.06.2024	0030	56281621	1000415	D324077005	0013324077	            0005	07.06.2024	       0
		4051473389		10315444	4536928736	00009	2223835	Anchor rod HAS-U 8.8 M16x190	8750	0001	            40	PC	PC	000090	680813709	42190236	1000415	8750	L02	9999	8750	26.08.2024	24.06.2024	0010	56289472	1000415	D335929001	0013335929	            0001	14.06.2024	       0
		4051473389		10315444	4536928734	00002	2314166	Cutting disc 230/22mm SPX metal	8750	0001	             1	PC	PC	000020	680813707	42190236	1000415	8750	L05	9999	8750	26.08.2024	24.06.2024	0010	56291109	1000415	D337865007	0013337865	            0007	14.06.2024	       0
		4051473646		10310999	4536929412	00002	2105892	Stud anchor HST3 M20x200 -/60	8750	0001	           240	PC	PC	000020	680814211	58111307	HLI0550	8750	L02	9999	8750	26.08.2024	24.06.2024	0030	56281618	HLI0550	D324077006	0013324077	            0006	07.06.2024	       0
		4051483650		10367403	4537061270	00012	2151584	Hammer drill bit TE-CX 12/27 MP8	8750	0001	            16	PC	PC	000120	680921274	58132216	HLI0550	8750	L09	9999	8750	20.08.2024	17.07.2024	0010	56319286	HLI0550	D399586001	0013399586	            0001	12.07.2024	       0
		4051484849		10369021	4537081719	00006	2206734	Hammer drill bit TE-CX 25/48	8750	0001	             3	PC	PC	000060	680937781	58134710	HLI0550	8750	L09	9999	8750	18.09.2024	22.07.2024	0040	56280096	HLI0550	D321726004	0013321726	            0004	05.06.2024	      22
		4051484849		10369021	4537081720	00002	373419	Adapter BI/BR/BS	8750	0001	             2	PC	PC	000020	680937782	58134710	HLI0550	8750	L05	9999	8750	18.09.2024	22.07.2024	0100	56295035	HLI0550	D348764005	0013348764	            0005	20.06.2024	-6
		4051484849		10369021	4537081720	00003	2076471	Core bit C+ 20/300 SPX-T abras	8750	0001	             2	PC	PC	000030	680937782	58134710	HLI0550	8750	L05	9999	8750	18.09.2024	22.07.2024	0100	56302458	HLI0550	D364784017	0013364784	            0017	27.06.2024	-6
		4051473389		10315444	4536928736	00003	2223834	Anchor rod HAS-U 8.8 M12x220	8750	0001	            20	PC	PC	000030	680813709	42190236	1000415	8750	L02	9999	8750	26.08.2024	24.06.2024	0010	56281621	1000415	D324077002	0013324077	            0002	07.06.2024	       0
		4051473389		10315444	4536928736	00006	416747	Screw anchor HUS3-P 6x80/25/45	8750	0001	           100	PC	PC	000060	680813709	42190236	1000415	8750	L02	9999	8750	26.08.2024	24.06.2024	0010	56284410	1000415	D328556002	0013328556	            0002	11.06.2024	       0
		4051473389		10315444	4536928736	00008	416747	Screw anchor HUS3-P 6x80/25/45	8750	0001	           400	PC	PC	000080	680813709	42190236	1000415	8750	L02	9999	8750	26.08.2024	24.06.2024	0010	56288698	1000415	D335600001	0013335600	            0001	13.06.2024	       0
		4051473646		10310999	4536929363	00002	2293567	Screw anchor HUS4-H 12x130 70/50/30	8750	0001	            50	PC	PC	000020	680814157	58111304	HLI0550	8750	L02	9999	8750	26.08.2024	24.06.2024	0070	56240885	HLI0550	D241547002	0013241547	            0002	26.04.2024	      28
		4051483650		10367403	4537061281	00002	2076476	Core bit C+ 28/300 SPX-T abras	8750	0001	             4	PC	PC	000020	680921285	58132215	HLI0550	8750	L05	9999	8750	20.08.2024	17.07.2024	0020	56305156	HLI0550	D367239001	0013367239	            0001	28.06.2024	       0
		4051483650		10367403	4537061275	00002	2346060	Threaded stud S-BT-MF M10/15 AN 6 HL	8750	0001	           900	PC	PC	000020	680921279	58132215	HLI0550	8750	L10	9999	8750	20.08.2024	17.07.2024	0010	56311925	HLI0550	D384903001	0013384903	            0001	04.07.2024	-21
		4051484849		10369021	4537081738	00002	2346060	Threaded stud S-BT-MF M10/15 AN 6 HL	8750	0001	           700	PC	PC	000020	680937800	58134710	HLI0550	8750	L10	9999	8750	18.09.2024	22.07.2024	0010	56306486	HLI0550	D366551001	0013366551	            0001	27.06.2024	-6
		4051484849		10369021	4537081721	00002	271982	Threaded stud X-EM8H-15-12FP10	8750	0001	           400	PC	PC	000020	680937783	58134710	HLI0550	8750	L04	9999	8750	18.09.2024	22.07.2024	0020	56306521	HLI0550	D364784003	0013364784	            0003	27.06.2024	-6
		4051484849		10369021	4537081738	00003	2346060	Threaded stud S-BT-MF M10/15 AN 6 HL	8750	0001	           300	PC	PC	000030	680937800	58134710	HLI0550	8750	L10	9999	8750	18.09.2024	22.07.2024	0010	56311926	HLI0550	D384904001	0013384904	            0001	04.07.2024	      22
		4051473646		10310999	4536929376	00002	2179045	Hammer drill bit TE-YX 12/52	8750	0001	             4	PC	PC	000020	680814173	58111304	HLI0550	8750	L09	9999	8750	26.08.2024	24.06.2024	0080	56248891	HLI0550	D260624012	0013260624	            0012	06.05.2024	       0
		4051473646		10310999	4536929376	00003	2151628	Hammer drill bit TE-CX 12/27	8750	0001	             2	PC	PC	000030	680814173	58111304	HLI0550	8750	L09	9999	8750	26.08.2024	24.06.2024	0110	56248891	HLI0550	D260624016	0013260624	            0016	06.05.2024	       0
		4051484849		10369021	4537081721	00003	271981	Threaded stud X-EM8H-15-12P8	8750	0001	         2.200	PC	PC	000030	680937783	58134710	HLI0550	8750	L04	9999	8750	18.09.2024	22.07.2024	0030	56306521	HLI0550	D364784008	0013364784	            0008	27.06.2024	-6
		4051484849		10369021	4537081720	00004	2260559	Dia blade 230/22 P univ	8750	0001	             5	PC	PC	000040	680937782	58134710	HLI0550	8750	L05	9999	8750	18.09.2024	22.07.2024	0050	56312181	HLI0550	D386503015	0013386503	            0015	06.07.2024	-6
		4051484849		10369021	4537081720	00005	2305539	Core bit BT-F 1 3/8"/12" SPX-L	8750	0001	             2	PC	PC	000050	680937782	58134710	HLI0550	8750	L05	9999	8750	18.09.2024	22.07.2024	0130	56312181	HLI0550	D386503007	0013386503	            0007	06.07.2024	-34
		4051484849		10369021	4537081721	00004	271982	Threaded stud X-EM8H-15-12FP10	8750	0001	           400	PC	PC	000040	680937783	58134710	HLI0550	8750	L04	9999	8750	18.09.2024	22.07.2024	0140	56312181	HLI0550	D386503001	0013386503	            0001	06.07.2024	-6
		4051473646		10310999	4536929376	00004	2368509	Blade SMT Saw carbide tipp.	8750	0001	            10	PC	PC	000040	680814173	58111304	HLI0550	8750	L09	9999	8750	26.08.2024	24.06.2024	0160	56261405	HLI0550	D282807007	0013282807	            0007	17.05.2024	      28
		4051473646		10310999	4536929363	00003	2105714	Stud anchor HST3 M10x110 50/30	8750	0001	            40	PC	PC	000030	680814157	58111304	HLI0550	8750	L02	9999	8750	26.08.2024	24.06.2024	0020	56262783	HLI0550	D284766002	0013284766	            0002	21.05.2024	       0
		4051473646		10310999	4536929376	00005	2341092	Hammer drill bit TE-CX 1/2"-6"	8750	0001	            30	PC	PC	000050	680814173	58111304	HLI0550	8750	L09	9999	8750	26.08.2024	24.06.2024	0050	56264151	HLI0550	D287445008	0013287445	            0008	21.05.2024	       0
		4051473646		10310999	4536929376	00006	2267010	Recip. saw blade SP 20 1014 (5) univ	8750	0001	            50	PC	PC	000060	680814173	58111304	HLI0550	8750	L09	9999	8750	26.08.2024	24.06.2024	0010	56268482	HLI0550	D293638001	0013293638	            0001	24.05.2024	       0
		4051484849		10369021	4537081721	00005	2349153	Grating disc X-FCM-F 28/33	8750	0001	           200	PC	PC	000050	680937783	58134710	HLI0550	8750	L04	9999	8750	18.09.2024	22.07.2024	0050	56318108	HLI0550	D398034005	0013398034	            0005	11.07.2024	-6
		4051484849		10369021	4537081720	00006	2261752	Core bit B 47/430 P-U abras	8750	0001	             1	PC	PC	000060	680937782	58134710	HLI0550	8750	L05	9999	8750	18.09.2024	22.07.2024	0020	56318124	HLI0550	D397334005	0013397334	            0005	12.07.2024	-6
		4051484849		10369021	4537081728	00002	2293567	Screw anchor HUS4-H 12x130 70/50/30	8750	0001	           125	PC	PC	000020	680937790	58134710	HLI0550	8750	L02	9999	8750	18.09.2024	22.07.2024	0010	56319285	HLI0550	D399585001	0013399585	            0001	12.07.2024	       0
		4051473646		10310999	4536929376	00007	2179712	Recip. saw blade SP 15 14 (50) metal	8750	0001	            50	PC	PC	000070	680814173	58111304	HLI0550	8750	L09	9999	8750	26.08.2024	24.06.2024	0020	56268482	HLI0550	D293638004	0013293638	            0004	24.05.2024	       0
		4051473646		10310999	4536929376	00008	2206751	Hammer drill bit TE-CX 20/22	8750	0001	            11	PC	PC	000080	680814173	58111304	HLI0550	8750	L09	9999	8750	26.08.2024	24.06.2024	0030	56268482	HLI0550	D293638005	0013293638	            0005	24.05.2024	       0
		4051473646		10310999	4536929376	00009	2122283	Hammer drill bit TE-YX 30/57	8750	0001	             1	PC	PC	000090	680814173	58111304	HLI0550	8750	L09	9999	8750	26.08.2024	24.06.2024	0040	56268482	HLI0550	D293638008	0013293638	            0008	24.05.2024	       0
		4051473646		10310999	4536929376	00010	2312458	Stepped drill bit 4-20 /2	8750	0001	             3	PC	PC	000100	680814173	58111304	HLI0550	8750	L09	9999	8750	26.08.2024	24.06.2024	0050	56269987	HLI0550	D297371003	0013297371	            0003	27.05.2024	       0
		4051484849		10369021	4537081726	00002	2105859	Stud anchor HST3 M16x145 45/25	8750	0001	           216	PC	PC	000020	680937788	58134739	HLI0550	8750	L02	9999	8750	18.09.2024	22.07.2024	0020	56278568	HLI0550	D319585001	0013319585	            0001	04.06.2024	      22
		4051484849		10369021	4537081726	00003	2105894	Stud anchor HST3 M24x200 -/30	8750	0001	            40	PC	PC	000030	680937788	58134739	HLI0550	8750	L02	9999	8750	18.09.2024	22.07.2024	0010	56283479	HLI0550	D325668001	0013325668	            0001	07.06.2024	      22
		4051484849		10369021	4537081726	00004	2105859	Stud anchor HST3 M16x145 45/25	8750	0001	           216	PC	PC	000040	680937788	58134739	HLI0550	8750	L02	9999	8750	18.09.2024	22.07.2024	0030	56284407	HLI0550	D328556006	0013328556	            0006	11.06.2024	      22
		4051484849		10369021	4537081726	00005	2293567	Screw anchor HUS4-H 12x130 70/50/30	8750	0001	           450	PC	PC	000050	680937788	58134739	HLI0550	8750	L02	9999	8750	18.09.2024	22.07.2024	0010	56319285	HLI0550	D399585001	0013399585	            0001	12.07.2024	       0
		4051473646		10310999	4536929414	00002	2039062	Driver bit S-B TX30 25/1" T (10)	8750	0001	            80	PC	PC	000020	680814212	58111304	HLI0550	8750	L10	9999	8750	26.08.2024	24.06.2024	0030	56270147	HLI0550	D298013004	0013298013	            0004	28.05.2024	       0
		4051473646		10310999	4536929419	00002	2261257	Filter VC 20/40/150-X univ	8750	0001	             2	PC	PC	000020	680814214	58111304	HLI0550	8750	L05	9999	8750	26.08.2024	24.06.2024	0050	56270147	HLI0550	D298013006	0013298013	            0006	28.05.2024	       0
		4051473646		10310999	4536929419	00003	2238577	Diamond cup DG-CW 180/7" P (6) univ	8750	0001	             6	PC	PC	000030	680814214	58111304	HLI0550	8750	L05	9999	8750	26.08.2024	24.06.2024	0090	56270147	HLI0550	D298013015	0013298013	            0015	28.05.2024	       0
		4051484849		10369021	4537081733	00002	2293567	Screw anchor HUS4-H 12x130 70/50/30	8750	0001	           450	PC	PC	000020	680937795	58135551	HLI0550	8750	L02	9999	8750	18.09.2024	22.07.2024	0010	56319285	HLI0550	D399585001	0013399585	            0001	12.07.2024	       0
		4051473646		10310999	4536929381	00002	2241984	Pointed chisel TE-YX SM 50	8750	0001	            20	PC	PC	000020	680814178	58111306	HLI0550	8750	L09	9999	8750	26.08.2024	24.06.2024	0070	56248891	HLI0550	D260624011	0013260624	            0011	06.05.2024	       0
		4051473646		10310999	4536929352	00002	2199633	Core bit BI 25/320 SP-L abras	8750	0001	            32	PC	PC	000020	680814150	58111306	HLI0550	8750	L05	9999	8750	26.08.2024	24.06.2024	0080	56250899	HLI0550	D264366006	0013264366	            0006	08.05.2024	      28
		4051473646		10310999	4536929374	00002	2293554	Screw anchor HUS4-H 10x80 25/5/-	8750	0001	         2.000	PC	PC	000020	680814171	58111306	HLI0550	8750	L02	9999	8750	26.08.2024	24.06.2024	0010	56252786	HLI0550	D266593005	0013266593	            0005	10.05.2024	      28
		4051473646		10310999	4536929395	00002	2261684	Core bit B 77/430 P-U abras	8750	0001	             6	PC	PC	000020	680814197	58111303	HLI0550	8750	L05	9999	8750	26.08.2024	24.06.2024	0020	56257872	HLI0550	D276913002	0013276913	            0002	15.05.2024	       0
		4051473646		10310999	4536929395	00003	2261682	Core bit B 62/430 P-U abras	8750	0001	            18	PC	PC	000030	680814197	58111303	HLI0550	8750	L05	9999	8750	26.08.2024	24.06.2024	0030	56257872	HLI0550	D276913003	0013276913	            0003	15.05.2024	       0
		4051473646		10310999	4536929381	00003	2368502	Plunge cut blade SMT BiM metal	8750	0001	            20	PC	PC	000030	680814178	58111306	HLI0550	8750	L09	9999	8750	26.08.2024	24.06.2024	0170	56261405	HLI0550	D282807009	0013282807	            0009	17.05.2024	      28
		4051473646		10310999	4536929403	00002	2368507	Blade SMT BiM Saw	8750	0001	            25	PC	PC	000020	680814205	58111125	HLI0550	8750	L09	9999	8750	26.08.2024	24.06.2024	0180	56261405	HLI0550	D282807013	0013282807	            0013	17.05.2024	      28
		4051473646		10310999	4536929374	00003	2105714	Stud anchor HST3 M10x110 50/30	8750	0001	           960	PC	PC	000030	680814171	58111306	HLI0550	8750	L02	9999	8750	26.08.2024	24.06.2024	0020	56262783	HLI0550	D284766002	0013284766	            0002	21.05.2024	       0
		4051473646		10310999	4536929392	00002	2105714	Stud anchor HST3 M10x110 50/30	8750	0001	           240	PC	PC	000020	680814192	58112064	HLI0550	8750	L02	9999	8750	26.08.2024	24.06.2024	0020	56262783	HLI0550	D284766002	0013284766	            0002	21.05.2024	       0
		4051473646		10310999	4536929395	00004	2261693	Core bit B 132/430 P-U abras	8750	0001	             4	PC	PC	000040	680814197	58111303	HLI0550	8750	L05	9999	8750	26.08.2024	24.06.2024	0010	56263505	HLI0550	D285914001	0013285914	            0001	21.05.2024	       0
		4051473646		10310999	4536929352	00003	2118677	Cutting disc P 350/25 univ	8750	0001	            10	PC	PC	000030	680814150	58111306	HLI0550	8750	L05	9999	8750	26.08.2024	24.06.2024	0010	56265711	HLI0550	D289571002	0013289571	            0002	22.05.2024	       0
		4051473646		10310999	4536929352	00004	2233575	Dia blade 230/22 (6) P univ	8750	0001	            48	PC	PC	000040	680814150	58111306	HLI0550	8750	L05	9999	8750	26.08.2024	24.06.2024	0020	56265711	HLI0550	D289571001	0013289571	            0001	22.05.2024	       0
		4051473646		10310999	4536929403	00003	2150701	Cutting disc AC-D SP 115x1.0	8750	0001	           250	PC	PC	000030	680814205	58111125	HLI0550	8750	L09	9999	8750	26.08.2024	24.06.2024	0020	56269987	HLI0550	D297371002	0013297371	            0002	27.05.2024	       0
		4051473646		10310999	4536929403	00004	2241988	Pointed chisel TE-YX SM 36 (10)	8750	0001	            10	PC	PC	000040	680814205	58111125	HLI0550	8750	L09	9999	8750	26.08.2024	24.06.2024	0030	56269987	HLI0550	D297371004	0013297371	            0004	27.05.2024	       0
		4051473646		10310999	4536929403	00005	2168890	Flat chisel TE-SX FM 36 (4)	8750	0001	             4	PC	PC	000050	680814205	58111125	HLI0550	8750	L09	9999	8750	26.08.2024	24.06.2024	0040	56269987	HLI0550	D297371005	0013297371	            0005	27.05.2024	       0
		4051473646		10310999	4536929352	00005	2145834	Filtration bag DD-WMS 100 MP25 large	8750	0001	            25	PC	PC	000050	680814150	58111306	HLI0550	8750	L05	9999	8750	26.08.2024	24.06.2024	0070	56270147	HLI0550	D298013008	0013298013	            0008	28.05.2024	       0
		4051473646		10310999	4536929414	00003	2039034	Driver bit S-B PH2 25/1" S (250)	8750	0001	         1.250	PC	PC	000030	680814212	58111304	HLI0550	8750	L10	9999	8750	26.08.2024	24.06.2024	0080	56270147	HLI0550	D298013011	0013298013	            0011	28.05.2024	       0
		4051473646		10310999	4536929414	00004	2039081	Driver bit S-B PH2 50/2" S (5)	8750	0001	            20	PC	PC	000040	680814212	58111304	HLI0550	8750	L10	9999	8750	26.08.2024	24.06.2024	0100	56270147	HLI0550	D298013017	0013298013	            0017	28.05.2024	       0
		4051473646		10310999	4536929421	00002	2335639	Guide wheel DSW-W 200 serv. set	8750	0001	             2	PC	PC	000020	680814215	58111304	HLI0550	8750	L12	9999	8750	26.08.2024	24.06.2024	0110	56270147	HLI0550	D298013019	0013298013	            0019	28.05.2024	       0
		4051473646		10310999	4536929421	00003	2337451	Wheel DS-WS 200 rubber	8750	0001	             2	PC	PC	000030	680814215	58111304	HLI0550	8750	L12	9999	8750	26.08.2024	24.06.2024	0120	56270147	HLI0550	D298013020	0013298013	            0020	28.05.2024	       0
		4051473646		10310999	4536929414	00005	2361441	Stud holder S-SH BT M8	8750	0001	            10	PC	PC	000050	680814212	58111304	HLI0550	8750	L10	9999	8750	26.08.2024	24.06.2024	0130	56270147	HLI0550	D298013002	0013298013	            0002	28.05.2024	       0
		4051473646		10310999	4536929419	00004	2260561	Dia blade 180/22 P univ	8750	0001	             3	PC	PC	000040	680814214	58111304	HLI0550	8750	L05	9999	8750	26.08.2024	24.06.2024	0140	56270147	HLI0550	D298013016	0013298013	            0016	28.05.2024	       0
		4051473646		10310999	4536929352	00006	202901	Core bit extension DD-BS-ET 500 A	8750	0001	             2	PC	PC	000060	680814150	58111306	HLI0550	8750	L05	9999	8750	26.08.2024	24.06.2024	0180	56270147	HLI0550	D298013012	0013298013	            0012	28.05.2024	       0
		4051473646		10310999	4536929350	00002	220929	Core bit extension DD-BI-ET300	8750	0001	             2	PC	PC	000020	680814149	58111125	HLI0550	8750	L05	9999	8750	26.08.2024	24.06.2024	0190	56270147	HLI0550	D298013018	0013298013	            0018	28.05.2024	       0
		4051473646		10310999	4536929376	00011	433789	Hammer drill bit TE-CX 6/17	8750	0001	            25	PC	PC	000110	680814173	58111304	HLI0550	8750	L09	9999	8750	26.08.2024	24.06.2024	0010	56271532	HLI0550	D299643001	0013299643	            0001	28.05.2024	       0
		4051473646		10310999	4536929403	00006	2150735	Cutting disc AC-D SP 230x1.8	8750	0001	            25	PC	PC	000060	680814205	58111125	HLI0550	8750	L09	9999	8750	26.08.2024	24.06.2024	0010	56271648	HLI0550	D300651002	0013300651	            0002	28.05.2024	       0
		4051473646		10310999	4536929403	00007	2168890	Flat chisel TE-SX FM 36 (4)	8750	0001	             8	PC	PC	000070	680814205	58111125	HLI0550	8750	L09	9999	8750	26.08.2024	24.06.2024	0020	56271648	HLI0550	D300651005	0013300651	            0005	28.05.2024	       0
		4051473646		10310999	4536929403	00008	2168885	Scaling chisel TE-SX SC 50/8	8750	0001	             5	PC	PC	000080	680814205	58111125	HLI0550	8750	L09	9999	8750	26.08.2024	24.06.2024	0010	56273968	HLI0550	D304630001	0013304630	            0001	30.05.2024	       0
		4051473646		10310999	4536929376	00012	2151594	Hammer drill bit TE-CX 16/27	8750	0001	             1	PC	PC	000120	680814173	58111304	HLI0550	8750	L09	9999	8750	26.08.2024	24.06.2024	0030	56273968	HLI0550	D304630003	0013304630	            0003	30.05.2024	       0
		4051473646		10310999	4536929363	00004	2113979	Stud anchor HST3 M12x95 20/-	8750	0001	           100	PC	PC	000040	680814157	58111304	HLI0550	8750	L02	9999	8750	26.08.2024	24.06.2024	0010	56274025	HLI0550	D304745001	0013304745	            0001	30.05.2024	       0
		4051473646		10310999	4536929374	00004	2113979	Stud anchor HST3 M12x95 20/-	8750	0001	           150	PC	PC	000040	680814171	58111306	HLI0550	8750	L02	9999	8750	26.08.2024	24.06.2024	0010	56274025	HLI0550	D304745001	0013304745	            0001	30.05.2024	       0
		4051473646		10310999	4536929363	00005	2113974	Stud anchor HST3 M10x70 10/-	8750	0001	           150	PC	PC	000050	680814157	58111304	HLI0550	8750	L02	9999	8750	26.08.2024	24.06.2024	0010	56275082	HLI0550	D305847001	0013305847	            0001	31.05.2024	       0
		4051473646		10310999	4536929376	00013	2332313	Jig saw blade SPX 59 (5) stainless steel	8750	0001	            20	PC	PC	000130	680814173	58111304	HLI0550	8750	L09	9999	8750	26.08.2024	24.06.2024	0010	56275861	HLI0550	D304702001	0013304702	            0001	30.05.2024	      28
		4051473646		10310999	4536929363	00006	2105850	Stud anchor HST3 M12x125 50/30	8750	0001	           100	PC	PC	000060	680814157	58111304	HLI0550	8750	L02	9999	8750	26.08.2024	24.06.2024	0010	56278568	HLI0550	D319585002	0013319585	            0002	04.06.2024	       0
		4051473646		10310999	4536929403	00009	2168885	Scaling chisel TE-SX SC 50/8	8750	0001	             5	PC	PC	000090	680814205	58111125	HLI0550	8750	L09	9999	8750	26.08.2024	24.06.2024	0010	56280096	HLI0550	D321726001	0013321726	            0001	05.06.2024	       0
		4051473646		10310999	4536929376	00014	2120421	Hammer drill bit TE-YX 37/57	8750	0001	             2	PC	PC	000140	680814173	58111304	HLI0550	8750	L09	9999	8750	26.08.2024	24.06.2024	0020	56280096	HLI0550	D321726002	0013321726	            0002	05.06.2024	       0
		4051473646		10310999	4536929376	00015	2122283	Hammer drill bit TE-YX 30/57	8750	0001	             3	PC	PC	000150	680814173	58111304	HLI0550	8750	L09	9999	8750	26.08.2024	24.06.2024	0050	56280096	HLI0550	D321726005	0013321726	            0005	05.06.2024	       0
		4051473646		10310999	4536929363	00007	2105892	Stud anchor HST3 M20x200 -/60	8750	0001	            10	PC	PC	000070	680814157	58111304	HLI0550	8750	L02	9999	8750	26.08.2024	24.06.2024	0030	56281618	HLI0550	D324077006	0013324077	            0006	07.06.2024	       0
		4051473646		10310999	4536929374	00005	2105892	Stud anchor HST3 M20x200 -/60	8750	0001	            60	PC	PC	000050	680814171	58111306	HLI0550	8750	L02	9999	8750	26.08.2024	24.06.2024	0030	56281618	HLI0550	D324077006	0013324077	            0006	07.06.2024	       0
		4051473646		10310999	4536929428	00002	74068	Adapter TE-FY-BA-C assy	8750	0001	             1	PC	PC	000020	680814220	58111304	HLI0550	8750	L08	9999	8750	26.08.2024	24.06.2024	0020	56282995	HLI0550	D325773006	0013325773	            0006	07.06.2024	       0
		4051473646		10310999	4536929376	00016	2021999	Hammer drill bit TE-CX 6/22 MP8	8750	0001	             8	PC	PC	000160	680814173	58111304	HLI0550	8750	L09	9999	8750	26.08.2024	24.06.2024	0030	56282995	HLI0550	D325773007	0013325773	            0007	07.06.2024	       0
		4051473646		10310999	4536929419	00005	2076469	Core bit C+ 18/300 SPX-T abras	8750	0001	             3	PC	PC	000050	680814214	58111304	HLI0550	8750	L05	9999	8750	26.08.2024	24.06.2024	0050	56284144	HLI0550	D327858003	0013327858	            0003	10.06.2024	       0
		4051473646		10310999	4536929352	00007	236120	Connection end BI (M41)	8750	0001	            60	PC	PC	000070	680814150	58111306	HLI0550	8750	L05	9999	8750	26.08.2024	24.06.2024	0060	56284144	HLI0550	D327858015	0013327858	            0015	10.06.2024	       0
		4051473646		10310999	4536929416	00002	236120	Connection end BI (M41)	8750	0001	            60	PC	PC	000020	680814213	58112064	HLI0550	8750	L05	9999	8750	26.08.2024	24.06.2024	0060	56284144	HLI0550	D327858015	0013327858	            0015	10.06.2024	       0
		4051473646		10310999	4536929352	00008	2261781	Core bit BI 16/320 SP-L abras	8750	0001	             8	PC	PC	000080	680814150	58111306	HLI0550	8750	L05	9999	8750	26.08.2024	24.06.2024	0070	56284144	HLI0550	D327858006	0013327858	            0006	10.06.2024	       0
		4051473646		10310999	4536929416	00003	2261789	Core bit BI 35/320 SP-L abras	8750	0001	             4	PC	PC	000030	680814213	58112064	HLI0550	8750	L05	9999	8750	26.08.2024	24.06.2024	0080	56284144	HLI0550	D327858008	0013327858	            0008	10.06.2024	       0
		4051473646		10310999	4536929352	00009	2261455	Core bit BI 22/320 SP-L abras	8750	0001	            16	PC	PC	000090	680814150	58111306	HLI0550	8750	L05	9999	8750	26.08.2024	24.06.2024	0090	56284144	HLI0550	D327858009	0013327858	            0009	10.06.2024	       0
		4051473646		10310999	4536929416	00004	2261455	Core bit BI 22/320 SP-L abras	8750	0001	            16	PC	PC	000040	680814213	58112064	HLI0550	8750	L05	9999	8750	26.08.2024	24.06.2024	0090	56284144	HLI0550	D327858009	0013327858	            0009	10.06.2024	       0
		4051473646		10310999	4536929350	00003	251834	Quick-locking nut DD-CN-SML	8750	0001	             2	PC	PC	000030	680814149	58111125	HLI0550	8750	L05	9999	8750	26.08.2024	24.06.2024	0130	56284144	HLI0550	D327858001	0013327858	            0001	10.06.2024	       0
		4051473646		10310999	4536929419	00006	251830	Jack screw DD-CS M12S-SM	8750	0001	             4	PC	PC	000060	680814214	58111304	HLI0550	8750	L05	9999	8750	26.08.2024	24.06.2024	0140	56284144	HLI0550	D327858016	0013327858	            0016	10.06.2024	       0
		4051473646		10310999	4536929363	00008	2105888	Stud anchor HST3 M8x75 -/10	8750	0001	           100	PC	PC	000080	680814157	58111304	HLI0550	8750	L02	9999	8750	26.08.2024	24.06.2024	0010	56284214	HLI0550	D327978001	0013327978	            0001	10.06.2024	       0
		4051473646		10310999	4536929376	00017	2120421	Hammer drill bit TE-YX 37/57	8750	0001	             2	PC	PC	000170	680814173	58111304	HLI0550	8750	L09	9999	8750	26.08.2024	24.06.2024	0010	56284227	HLI0550	D328228002	0013328228	            0002	10.06.2024	       0
		4051473646		10310999	4536929376	00018	2021997	Hammer drill bit TE-CX 6/12 MP8	8750	0001	            48	PC	PC	000180	680814173	58111304	HLI0550	8750	L09	9999	8750	26.08.2024	24.06.2024	0020	56284227	HLI0550	D328228004	0013328228	            0004	10.06.2024	       0
		4051473646		10310999	4536929363	00009	2105888	Stud anchor HST3 M8x75 -/10	8750	0001	           400	PC	PC	000090	680814157	58111304	HLI0550	8750	L02	9999	8750	26.08.2024	24.06.2024	0020	56284407	HLI0550	D328556004	0013328556	            0004	11.06.2024	       0
		4051473646		10310999	4536929363	00010	2105888	Stud anchor HST3 M8x75 -/10	8750	0001	           500	PC	PC	000100	680814157	58111304	HLI0550	8750	L02	9999	8750	26.08.2024	24.06.2024	0010	56285833	HLI0550	D331402001	0013331402	            0001	11.06.2024	       0
		4051473646		10310999	4536929363	00011	2036085	Stud anchor HSA M6x65 20/10/-	8750	0001	           200	PC	PC	000110	680814157	58111304	HLI0550	8750	L02	9999	8750	26.08.2024	24.06.2024	0010	56287347	HLI0550	D333746001	0013333746	            0001	12.06.2024	       0
		4051473646		10310999	4536929376	00019	2151628	Hammer drill bit TE-CX 12/27	8750	0001	             3	PC	PC	000190	680814173	58111304	HLI0550	8750	L09	9999	8750	26.08.2024	24.06.2024	0010	56288533	HLI0550	D335492001	0013335492	            0001	13.06.2024	       0
		4051473646		10310999	4536929376	00020	409189	Hammer drill bit TE-CX 10/22	8750	0001	            15	PC	PC	000200	680814173	58111304	HLI0550	8750	L09	9999	8750	26.08.2024	24.06.2024	0020	56288533	HLI0550	D335492002	0013335492	            0002	13.06.2024	       0
		4051473646		10310999	4536929376	00021	2151586	Hammer drill bit TE-CX 14/17 MP8	8750	0001	             8	PC	PC	000210	680814173	58111304	HLI0550	8750	L09	9999	8750	26.08.2024	24.06.2024	0010	56288769	HLI0550	D335879004	0013335879	            0004	13.06.2024	       0
		4051473646		10310999	4536929419	00007	2261452	Filter VC 20/40/150-X HEPA US	8750	0001	             3	PC	PC	000070	680814214	58111304	HLI0550	8750	L05	9999	8750	26.08.2024	24.06.2024	0010	56288898	HLI0550	D335929003	0013335929	            0003	14.06.2024	       0
		4051473646		10310999	4536929419	00008	2261257	Filter VC 20/40/150-X univ	8750	0001	             3	PC	PC	000080	680814214	58111304	HLI0550	8750	L05	9999	8750	26.08.2024	24.06.2024	0030	56290256	HLI0550	D337865009	0013337865	            0009	14.06.2024	       0
		4051473646		10310999	4536929419	00009	373419	Adapter BI/BR/BS	8750	0001	             3	PC	PC	000090	680814214	58111304	HLI0550	8750	L05	9999	8750	26.08.2024	24.06.2024	0050	56290256	HLI0550	D337865002	0013337865	            0002	14.06.2024	       0
		4051473646		10310999	4536929421	00004	2305995	Connector DS-WCC 9.2-11mm (5) set	8750	0001	             1	PC	PC	000040	680814215	58111304	HLI0550	8750	L12	9999	8750	26.08.2024	24.06.2024	0060	56290256	HLI0550	D337865003	0013337865	            0003	14.06.2024	       0
		4051473646		10310999	4536929419	00010	2203660	Flange DGH 130	8750	0001	            20	PC	PC	000100	680814214	58111304	HLI0550	8750	L05	9999	8750	26.08.2024	24.06.2024	0070	56290256	HLI0550	D337865008	0013337865	            0008	14.06.2024	       0
		4051473646		10310999	4536929363	00012	2105714	Stud anchor HST3 M10x110 50/30	8750	0001	            80	PC	PC	000120	680814157	58111304	HLI0550	8750	L02	9999	8750	26.08.2024	24.06.2024	0020	56290715	HLI0550	D338768002	0013338768	            0002	17.06.2024	       0
		4051473646		10310999	4536929403	00010	2254750	Pointed chisel TE-HX SM 50 (4)	8750	0001	             4	PC	PC	000100	680814205	58111125	HLI0550	8750	L09	9999	8750	26.08.2024	24.06.2024	0010	56291746	HLI0550	D342572004	0013342572	            0004	17.06.2024	       0
		4051473646		10310999	4536929428	00003	273118	Chuck TE 2-M NG/TE 7-C assy	8750	0001	             2	PC	PC	000030	680814220	58111304	HLI0550	8750	L08	9999	8750	26.08.2024	24.06.2024	0030	56291746	HLI0550	D342572006	0013342572	            0006	17.06.2024	       0
		4051472526		10311314	4536908725	00001	2127985	Flush anchor HKV 1/4"x25	8330	0001	        32.000	PC	PC	000010	680797015	4536762661	1051	8300	L02	9999	8330	19.08.2024	19.06.2024	0010	56267289	1051	D289316001	0013289316	            0001	23.05.2024	-227
		4051474510		10320617	4536935700	00001	2272069	Angle connector MT-C-GL A OC adjustable	8330	0001	           560	PC	PC	000010	680819959	4536577855	1027881	8300	L14	9999	8330	26.08.2024	25.06.2024	0020	56231584	1027881	D223013008	0013223013	            0008	18.04.2024	      76
		4051474510		10320617	4536935701	00001	2272068	Angle connector MT-C-GS A OC adjustable	8330	0001	           960	PC	PC	000010	680819960	4536577855	1027881	8300	L14	9999	8330	26.08.2024	25.06.2024	0010	56231584	1027881	D223013007	0013223013	            0007	18.04.2024	      76
		4051474510		10320617	4536935702	00001	2272103	4-hole Baseplate MT-B-GL O4 OC	8330	0001	            34	PC	PC	000010	680819961	4536577855	1027881	8300	L14	9999	8330	26.08.2024	25.06.2024	0030	56231584	1027881	D223013012	0013223013	            0012	18.04.2024	      76
		4051474510		10320617	4536935703	00001	2332786	Connector MT-C-GSP L A OC	8330	0001	           360	PC	PC	000010	680819962	4536577855	1027881	8300	L14	9999	8330	26.08.2024	25.06.2024	0040	56231584	1027881	D223013013	0013223013	            0013	18.04.2024	      76
		4051476024		10328210	4536953145	00001	2134761	Rotating laser PR 30-HVS A12	8330	0001	             4	PC	PC	000010	680833597	4536892226	HCO0200	8300	L07	9999	8330	26.08.2024	27.06.2024	0010	56291600	HCO0200	D337249001	0013337249	            0001	14.06.2024	-34
		4051475888		10327615	4536951825	00001	2216424	Bracket OS A-M-ZB 53x95 M10 SS	8330	0001	            70	PC	PC	000010	680832686	4536623066	5671	8300	L11	9999	8330	26.08.2024	27.06.2024	0010	56240194	5671	D239623001	0013239623	            0001	25.04.2024	-20
		4051475888		10327615	4536951826	00001	2203507	Gusset plate OS S-M GP-CH-125-2T5 SS	8330	0001	            12	PC	PC	000010	680832687	4536628369	5671	8300	L11	9999	8330	26.08.2024	27.06.2024	0030	56240999	5671	D239622003	0013239622	            0003	25.04.2024	-20
		4051475888		10327615	4536951827	00001	2237068	Washer WA-25x1.5-M6 A4	8330	0001	           500	PC	PC	000010	680832688	4536628369	5671	8300	L11	9999	8330	26.08.2024	27.06.2024	0010	56240999	5671	D239622001	0013239622	            0001	25.04.2024	-20
		4051475888		10327615	4536951828	00001	2287444	Light bracket OE-100-AH-2 SS	8330	0001	            50	PC	PC	000010	680832689	4536628369	5671	8300	L11	9999	8330	26.08.2024	27.06.2024	0020	56240999	5671	D239622002	0013239622	            0002	25.04.2024	-34
		4051475888		10327615	4536951829	00001	2203505	Gusset plate OS S-M GP-CH100-2T SS	8330	0001	           192	PC	PC	000010	680832690	4536736212	5671	8300	L11	9999	8330	26.08.2024	27.06.2024	0020	56261669	5671	D282545003	0013282545	            0003	17.05.2024	-41
		4051475888		10327615	4536951831	00001	2205247	L.blt set LB-SET-LN-AV-M6x12 A4	8330	0001	           200	PC	PC	000010	680832691	4536736212	5671	8300	L11	9999	8330	26.08.2024	27.06.2024	0010	56261669	5671	D282545001	0013282545	            0001	17.05.2024	-41
		4051475578		10325798	4537020992	00001	2272100	Baseplate MT-B-GS T OC	8330	0001	           960	PC	PC	000010	680889535	4536571071	1124303	8300	L14	9999	8330	27.08.2024	10.07.2024	0010	56230272	1124303	D223013010	0013223013	            0010	18.04.2024	      77
		4051475578		10325798	4537020994	00001	2272101	4-hole Baseplate MT-B-GS O4U OC	8330	0001	           960	PC	PC	000010	680889536	4536571071	1124303	8300	L14	9999	8330	27.08.2024	10.07.2024	0020	56230272	1124303	D223013011	0013223013	            0011	18.04.2024	      77
		4051487429		10387535	4537110953	00001	2221951	Screw anchor KH-EZ CRC 3/8"x4"	8330	0001	         1.500	PC	PC	000010	680961534	4536861491	HMX3000	8300	L02	9999	8330	21.08.2024	26.07.2024	0010	56285512	HMX3000	D325872001	0013325872	            0001	07.06.2024	      19
		4051491622		10408846	4537163743	00001	2272084	Thread forming bolt MT-TFB OC	8330	0001	        50.000	PC	PC	000010	681004927	4537061191	HCO0200	8300	L14	9999	8330	06.09.2024	06.08.2024	0010	56323485	HCO0200	D407108001	0013407108	            0001	16.07.2024	-2
		4051492442		10413338	4537173620	00001	2272064	Angle connector MT-C-GS OC	8330	0001	         2.520	PC	PC	000010	681012519	4536917727	1027881	8300	L14	9999	8330	09.10.2024	08.08.2024	0010	56296482	1027881	D345873007	0013345873	            0007	18.06.2024	      57
		4051475483		10325306	4536947162	00001	2208773	Starter OS S-M BS-200-CH100-2T HDG	8330	0001	             2	PC	PC	000010	680829318	42211315	5651	8300	L11	9999	8330	17.09.2024	26.06.2024	0060	56206357	5651	D172417006	0013172417	            0006	26.03.2024	      70
		4051475483		10325306	4536947163	00001	2208751	L.blt set LB-SET-LN-AV-M10x25 A4	8330	0001	         9.238	PC	PC	000010	680829319	42211315	5651	8300	L11	9999	8330	17.09.2024	26.06.2024	0070	56220131	5651	D202036007	0013202036	            0007	09.04.2024	      56
		4051475483		10325306	4536947164	00001	2203504	Gusset plate Mekano 50-2T GP-L-2.5 SS	8330	0001	           889	PC	PC	000010	680829320	42211315	5651	8300	L11	9999	8330	17.09.2024	26.06.2024	0050	56230872	5651	D223014005	0013223014	            0005	18.04.2024	      42
		4051475483		10325306	4536947165	00001	2205245	L.nut LN-AV-FL-M12 A4	8330	0001	           124	PC	PC	000010	680829321	42211315	5651	8300	L11	9999	8330	17.09.2024	26.06.2024	0080	56230872	5651	D223014008	0013223014	            0008	18.04.2024	      42
		4051475483		10325306	4536947166	00001	2216389	Cantilever arm OS S-M CA-30-400 SS	8330	0001	            28	PC	PC	000010	680829322	42211315	5651	8300	L11	9999	8330	17.09.2024	26.06.2024	0040	56236101	5651	D225310004	0013225310	            0004	18.04.2024	      42
		4051475483		10325306	4536947167	00001	2276323	Bracket OS BRACKET FOR ETIN EAP SS	8330	0001	            25	PC	PC	000010	680829323	42211315	5651	8300	L11	9999	8330	17.09.2024	26.06.2024	0060	56236101	5651	D225310006	0013225310	            0006	18.04.2024	      42
		4051475483		10325306	4536947168	00001	2338685	Pipe clamp OPS-SD PC-21-040-EPDM SS	8330	0001	           265	PC	PC	000010	680829324	42211315	5651	8300	L11	9999	8330	17.09.2024	26.06.2024	0070	56236101	5651	D225310007	0013225310	            0007	18.04.2024	      21
		4051475483		10325306	4536947169	00001	2344613	Pipe clamp OPS-S PC21-025 SS/EPDM	8330	0001	            14	PC	PC	000010	680829325	42211315	5651	8300	L11	9999	8330	17.09.2024	26.06.2024	0090	56239959	5651	D239140009	0013239140	            0009	25.04.2024	      21
		4051475483		10325306	4536947170	00001	2205245	L.nut LN-AV-FL-M12 A4	8330	0001	           150	PC	PC	000010	680829326	42211315	5651	8300	L11	9999	8330	17.09.2024	26.06.2024	0040	56239979	5651	D239621004	0013239621	            0004	25.04.2024	      35
		4051475483		10325306	4536947171	00001	2216389	Cantilever arm OS S-M CA-30-400 SS	8330	0001	            16	PC	PC	000010	680829327	42211315	5651	8300	L11	9999	8330	17.09.2024	26.06.2024	0090	56239979	5651	D239621009	0013239621	            0009	25.04.2024	      35
		4051475483		10325306	4536947172	00001	2338685	Pipe clamp OPS-SD PC-21-040-EPDM SS	8330	0001	           100	PC	PC	000010	680829328	42211315	5651	8300	L11	9999	8330	17.09.2024	26.06.2024	0110	56239979	5651	D239621011	0013239621	            0011	25.04.2024	      21
		4051475483		10325306	4536947173	00001	2205245	L.nut LN-AV-FL-M12 A4	8330	0001	            35	PC	PC	000010	680829329	42211315	5651	8300	L11	9999	8330	17.09.2024	26.06.2024	0070	56243092	5651	D242324007	0013242324	            0007	29.04.2024	      35
		4051475483		10325306	4536947174	00001	2208751	L.blt set LB-SET-LN-AV-M10x25 A4	8330	0001	        13.387	PC	PC	000010	680829330	42211315	5651	8300	L11	9999	8330	17.09.2024	26.06.2024	0080	56243092	5651	D242324008	0013242324	            0008	29.04.2024	      35
		4051475483		10325306	4536947175	00001	2216389	Cantilever arm OS S-M CA-30-400 SS	8330	0001	             6	PC	PC	000010	680829331	42211315	5651	8300	L11	9999	8330	17.09.2024	26.06.2024	0040	56243271	5651	D245409004	0013245409	            0004	29.04.2024	      35
		4051475483		10325306	4536947176	00001	2216389	Cantilever arm OS S-M CA-30-400 SS	8330	0001	            24	PC	PC	000010	680829332	42211315	5651	8300	L11	9999	8330	17.09.2024	26.06.2024	0120	56248260	5651	D256436012	0013256436	            0012	04.05.2024	      21
		4051475483		10325306	4536947177	00001	2238428	Starter OS S-M BS-130-CH100-2T SS	8330	0001	            65	PC	PC	000010	680829333	42211315	5651	8300	L11	9999	8330	17.09.2024	26.06.2024	0140	56248260	5651	D256436014	0013256436	            0014	04.05.2024	      21
		4051475483		10325306	4536947178	00001	2238428	Starter OS S-M BS-130-CH100-2T SS	8330	0001	            45	PC	PC	000010	680829334	42211315	5651	8300	L11	9999	8330	17.09.2024	26.06.2024	0090	56255052	5651	D267245009	0013267245	            0009	09.05.2024	      21
		4051475483		10325306	4536947179	00001	2238428	Starter OS S-M BS-130-CH100-2T SS	8330	0001	            54	PC	PC	000010	680829335	42211315	5651	8300	L11	9999	8330	17.09.2024	26.06.2024	0100	56255052	5651	D267245010	0013267245	            0010	09.05.2024	      21
		4051475483		10325306	4536947180	00001	2238428	Starter OS S-M BS-130-CH100-2T SS	8330	0001	            54	PC	PC	000010	680829336	42211315	5651	8300	L11	9999	8330	17.09.2024	26.06.2024	0110	56255052	5651	D267245011	0013267245	            0011	09.05.2024	      21
		4051475483		10325306	4536947181	00001	2203501	End cover Mekano 50-2T1.5 EC TPV plastic	8330	0001	         1.900	PC	PC	000010	680829337	42211315	5651	8300	L11	9999	8330	17.09.2024	26.06.2024	0010	56259514	5651	D278880003	0013278880	            0003	16.05.2024	      14
		4051475483		10325306	4536947182	00001	2205245	L.nut LN-AV-FL-M12 A4	8330	0001	           400	PC	PC	000010	680829338	42211315	5651	8300	L11	9999	8330	17.09.2024	26.06.2024	0040	56259514	5651	D278880023	0013278880	            0023	16.05.2024	      14
		4051475483		10325306	4536947183	00001	2227081	Starter OS S-M 300-CH125-2T5 SS	8330	0001	            20	PC	PC	000010	680829339	42211315	5651	8300	L11	9999	8330	17.09.2024	26.06.2024	0030	56259514	5651	D278880022	0013278880	            0022	16.05.2024	      14
		4051475483		10325306	4536947184	00001	2203501	End cover Mekano 50-2T1.5 EC TPV plastic	8330	0001	           950	PC	PC	000010	680829340	42211315	5651	8300	L11	9999	8330	17.09.2024	26.06.2024	0010	56260705	5651	D279881003	0013279881	            0003	16.05.2024	      14
		4051475483		10325306	4536947185	00001	2205245	L.nut LN-AV-FL-M12 A4	8330	0001	           200	PC	PC	000010	680829341	42211315	5651	8300	L11	9999	8330	17.09.2024	26.06.2024	0040	56260705	5651	D279881023	0013279881	            0023	16.05.2024	      14
		4051475483		10325306	4536947186	00001	2227081	Starter OS S-M 300-CH125-2T5 SS	8330	0001	            10	PC	PC	000010	680829342	42211315	5651	8300	L11	9999	8330	17.09.2024	26.06.2024	0030	56260705	5651	D279881022	0013279881	            0022	16.05.2024	      14
		4051475483		10325306	4536947187	00001	2216421	Strap OS OPS-SD PC01-150 SS	8330	0001	             1	PC	PC	000010	680829343	42211315	5651	8300	L11	9999	8330	17.09.2024	26.06.2024	0010	56266516	5651	D283672002	0013283672	            0002	20.05.2024	      14
		4051475483		10325306	4536947188	00001	2216384	Clamp OS OPS-SD PC23-080 SS	8330	0001	             4	PC	PC	000010	680829344	42211315	5651	8300	L11	9999	8330	17.09.2024	26.06.2024	0010	56266541	5651	D283390001	0013283390	            0001	20.05.2024	      14
		4051475483		10325306	4536947189	00001	2216385	Clamp OS OPS-SD PC23-100 SS	8330	0001	             1	PC	PC	000010	680829345	42211315	5651	8300	L11	9999	8330	17.09.2024	26.06.2024	0020	56266541	5651	D283390002	0013283390	            0002	20.05.2024	       0
		4051475483		10325306	4536947190	00001	2216385	Clamp OS OPS-SD PC23-100 SS	8330	0001	             1	PC	PC	000010	680829350	42211315	5651	8300	L11	9999	8330	17.09.2024	26.06.2024	0030	56266541	5651	D283390003	0013283390	            0003	20.05.2024	       7
		4051475483		10325306	4536947191	00001	2216385	Clamp OS OPS-SD PC23-100 SS	8330	0001	             4	PC	PC	000010	680829353	42211315	5651	8300	L11	9999	8330	17.09.2024	26.06.2024	0040	56266541	5651	D283390004	0013283390	            0004	20.05.2024	      14
		4051475483		10325306	4536947192	00001	2216382	Clamp OS OPS-SD PC23-050 SS	8330	0001	             2	PC	PC	000010	680829357	42211315	5651	8300	L11	9999	8330	17.09.2024	26.06.2024	0010	56279590	5651	D319345001	0013319345	            0001	04.06.2024	       0
		4051475483		10325306	4536947193	00001	2216384	Clamp OS OPS-SD PC23-080 SS	8330	0001	             1	PC	PC	000010	680829360	42211315	5651	8300	L11	9999	8330	17.09.2024	26.06.2024	0020	56279590	5651	D319345002	0013319345	            0002	04.06.2024	       0
		4051475483		10325306	4536947194	00001	2216385	Clamp OS OPS-SD PC23-100 SS	8330	0001	            10	PC	PC	000010	680829365	42211315	5651	8300	L11	9999	8330	17.09.2024	26.06.2024	0030	56279590	5651	D319345003	0013319345	            0003	04.06.2024	       0
		4051475483		10325306	4536947195	00001	2216395	Adapter OS A-SPB/ETIN-3000 SS	8330	0001	            63	M	M	000010	680829366	42211315	5651	8300	L11	9999	8330	17.09.2024	26.06.2024	0040	56279590	5651	D319345004	0013319345	            0004	04.06.2024	       0
		4051475483		10325306	4536947196	00001	2203501	End cover Mekano 50-2T1.5 EC TPV plastic	8330	0001	           100	PC	PC	000010	680829367	42211315	5651	8300	L11	9999	8330	17.09.2024	26.06.2024	0010	56299470	5651	D358736004	0013358736	            0004	24.06.2024	-21
		4051475483		10325306	4536947197	00001	2203502	End cover Mekano 100-2T EC TPV	8330	0001	           150	PC	PC	000010	680829368	42211315	5651	8300	L11	9999	8330	17.09.2024	26.06.2024	0020	56299470	5651	D358736005	0013358736	            0005	24.06.2024	-21
		4051475483		10325306	4536947198	00001	2305393	Corrosion protection paste CPP 1 KG	8330	0001	             2	PC	PC	000010	680829369	42211315	5651	8300	L11	9999	8330	17.09.2024	26.06.2024	0030	56299470	5651	D358736016	0013358736	            0016	24.06.2024	-35
		4051475483		10325306	4536947199	00001	2338685	Pipe clamp OPS-SD PC-21-040-EPDM SS	8330	0001	             8	PC	PC	000010	680829370	42211315	5651	8300	L11	9999	8330	17.09.2024	26.06.2024	0040	56299470	5651	D358736017	0013358736	            0017	24.06.2024	-35
		4051482050		10360480	4537037996	00001	2203488	Channel OS S-M CH50-2T2-3000 SS	8330	0001	           426	M	M	000010	680902281	42277735	5661	8300	L11	9999	8330	11.09.2024	12.07.2024	0020	56259520	5661	D278880002	0013278880	            0002	16.05.2024	-27
		4051482050		10360480	4537037997	00001	2203491	Channel Mekano CH100-2T-2-3000 SS	8330	0001	           846	M	M	000010	680902282	42277735	5661	8300	L11	9999	8330	11.09.2024	12.07.2024	0010	56259520	5661	D278880001	0013278880	            0001	16.05.2024	-27
		4051482050		10360480	4537037998	00001	2203492	Channel OS S-M CH100-2T2-5900 SS	8330	0001	       123,900	M	M	000010	680902283	42277735	5661	8300	L11	9999	8330	11.09.2024	12.07.2024	0250	56259520	5661	D278880030	0013278880	            0030	16.05.2024	-27
		4051482050		10360480	4537037999	00001	2203493	Channel OS S-M CH50-2T2.5-3000 SS	8330	0001	            12	M	M	000010	680902284	42277735	5661	8300	L11	9999	8330	11.09.2024	12.07.2024	0170	56259520	5661	D278880019	0013278880	            0019	16.05.2024	-27
		4051482050		10360480	4537038000	00001	2203495	Channel OS S-M CH100-2T3-3000 SS	8330	0001	           192	M	M	000010	680902285	42277735	5661	8300	L11	9999	8330	11.09.2024	12.07.2024	0120	56259520	5661	D278880014	0013278880	            0014	16.05.2024	-27
		4051482050		10360480	4537038001	00001	2203505	Gusset plate OS S-M GP-CH100-2T SS	8330	0001	           852	PC	PC	000010	680902287	42277735	5661	8300	L11	9999	8330	11.09.2024	12.07.2024	0110	56259520	5661	D278880013	0013278880	            0013	16.05.2024	-27
		4051482050		10360480	4537038002	00001	2203507	Gusset plate OS S-M GP-CH-125-2T5 SS	8330	0001	            36	PC	PC	000010	680902288	42277735	5661	8300	L11	9999	8330	11.09.2024	12.07.2024	0200	56259520	5661	D278880024	0013278880	            0024	16.05.2024	-27
		4051482050		10360480	4537038003	00001	2203523	Starter OS S-M BS-200-CH100-2T SS bolted	8330	0001	            28	PC	PC	000010	680902290	42277735	5661	8300	L11	9999	8330	11.09.2024	12.07.2024	0190	56259520	5661	D278880021	0013278880	            0021	16.05.2024	-27
		4051482050		10360480	4537038005	00001	2216389	Cantilever arm OS S-M CA-30-400 SS	8330	0001	            64	PC	PC	000010	680902291	42277735	5661	8300	L11	9999	8330	11.09.2024	12.07.2024	0300	56259520	5661	D278880035	0013278880	            0035	16.05.2024	-27
		4051482050		10360480	4537038006	00001	2216411	Clamp OS OPS-SD AD01-A SS	8330	0001	            80	PC	PC	000010	680902292	42277735	5661	8300	L11	9999	8330	11.09.2024	12.07.2024	0150	56259520	5661	D278880017	0013278880	            0017	16.05.2024	-27
		4051482050		10360480	4537038007	00001	2226734	Angle bracket OS PSU110 SS	8330	0001	            60	PC	PC	000010	680902293	42277735	5661	8300	L11	9999	8330	11.09.2024	12.07.2024	0260	56259520	5661	D278880031	0013278880	            0031	16.05.2024	-27
		4051482050		10360480	4537038008	00001	2226740	Starter OS CH100 2T3 SS	8330	0001	           120	PC	PC	000010	680902294	42277735	5661	8300	L11	9999	8330	11.09.2024	12.07.2024	0080	56259520	5661	D278880010	0013278880	            0010	16.05.2024	-27
		4051482050		10360480	4537038009	00001	2238428	Starter OS S-M BS-130-CH100-2T SS	8330	0001	           492	PC	PC	000010	680902295	42277735	5661	8300	L11	9999	8330	11.09.2024	12.07.2024	0090	56259520	5661	D278880011	0013278880	            0011	16.05.2024	-27
		4051482050		10360480	4537038010	00001	2285163	Starter OS FOS CH100-2T-200 SS	8330	0001	             8	PC	PC	000010	680902296	42277735	5661	8300	L11	9999	8330	11.09.2024	12.07.2024	0340	56259520	5661	D278880040	0013278880	            0040	16.05.2024	-3
		4051482057		10360481	4537038011	00001	2203504	Gusset plate Mekano 50-2T GP-L-2.5 SS	8330	0001	           500	PC	PC	000010	680902297	42277736	5661	8300	L11	9999	8330	18.09.2024	12.07.2024	0030	56259520	5661	D278880004	0013278880	            0004	16.05.2024	-26
		4051482057		10360481	4537038012	00001	2203546	L.nut LN-AV-FL-M10 A4	8330	0001	         6.840	PC	PC	000010	680902298	42277736	5661	8300	L11	9999	8330	18.09.2024	12.07.2024	0050	56259520	5661	D278880007	0013278880	            0007	16.05.2024	-26
		4051482057		10360481	4537038013	00001	2205246	L.blt set LB-SET-LN-AV-M10x20 A4	8330	0001	           760	PC	PC	000010	680902299	42277736	5661	8300	L11	9999	8330	18.09.2024	12.07.2024	0220	56259520	5661	D278880026	0013278880	            0026	16.05.2024	-26
		4051482057		10360481	4537038014	00001	2205247	L.blt set LB-SET-LN-AV-M6x12 A4	8330	0001	         4.400	PC	PC	000010	680902300	42277736	5661	8300	L11	9999	8330	18.09.2024	12.07.2024	0130	56259520	5661	D278880015	0013278880	            0015	16.05.2024	-26
		4051482057		10360481	4537038015	00001	2208750	L.blt set LB-SET-LN-AV-M6x20 A4	8330	0001	         3.200	PC	PC	000010	680902301	42277736	5661	8300	L11	9999	8330	18.09.2024	12.07.2024	0230	56259520	5661	D278880027	0013278880	            0027	16.05.2024	-26
		4051482057		10360481	4537038016	00001	2208751	L.blt set LB-SET-LN-AV-M10x25 A4	8330	0001	        19.600	PC	PC	000010	680902302	42277736	5661	8300	L11	9999	8330	18.09.2024	12.07.2024	0060	56259520	5661	D278880008	0013278880	            0008	16.05.2024	-26
		4051482057		10360481	4537038017	00001	2216386	Starter OS S-M BS-125-CH50-2T-3 SS	8330	0001	           360	PC	PC	000010	680902303	42277736	5661	8300	L11	9999	8330	18.09.2024	12.07.2024	0040	56259520	5661	D278880005	0013278880	            0005	16.05.2024	-26
		4051482057		10360481	4537038018	00001	2216396	L.nut LN-AV-FL-M8  A4	8330	0001	         1.000	PC	PC	000010	680902304	42277736	5661	8300	L11	9999	8330	18.09.2024	12.07.2024	0160	56259520	5661	D278880018	0013278880	            0018	16.05.2024	-26
		4051482057		10360481	4537038019	00001	2216402	Bracket OS OE-SPEA-B SS	8330	0001	            24	PC	PC	000010	680902305	42277736	5661	8300	L11	9999	8330	18.09.2024	12.07.2024	0140	56259520	5661	D278880016	0013278880	            0016	16.05.2024	-26
		4051482057		10360481	4537038020	00001	2216424	Bracket OS A-M-ZB 53x95 M10 SS	8330	0001	           296	PC	PC	000010	680902306	42277736	5661	8300	L11	9999	8330	18.09.2024	12.07.2024	0070	56259520	5661	D278880009	0013278880	            0009	16.05.2024	-26
		4051482057		10360481	4537038022	00001	2237068	Washer WA-25x1.5-M6 A4	8330	0001	         1.800	PC	PC	000010	680902307	42277736	5661	8300	L11	9999	8330	18.09.2024	12.07.2024	0240	56259520	5661	D278880029	0013278880	            0029	16.05.2024	-26
		4051482057		10360481	4537038023	00001	2241678	Washer WA-16x1.6-M8 A4	8330	0001	         3.000	PC	PC	000010	680902308	42277736	5661	8300	L11	9999	8330	18.09.2024	12.07.2024	0100	56259520	5661	D278880012	0013278880	            0012	16.05.2024	-2
		4051482057		10360481	4537038024	00001	2247241	Hexagon bolt OS S-M HE-M8x20 A4	8330	0001	         1.200	PC	PC	000010	680902309	42277736	5661	8300	L11	9999	8330	18.09.2024	12.07.2024	0180	56259520	5661	D278880020	0013278880	            0020	16.05.2024	-26
		4051482057		10360481	4537038025	00001	2256818	Angle bracket OS S-M AB 55x55-10 SS	8330	0001	            20	PC	PC	000010	680902310	42277736	5661	8300	L11	9999	8330	18.09.2024	12.07.2024	0310	56259520	5661	D278880036	0013278880	            0036	16.05.2024	-26
		4051482057		10360481	4537038026	00001	2264520	Pressure plate Mekano PP-BC-85x99-M10 SS	8330	0001	           124	PC	PC	000010	680902311	42277736	5661	8300	L11	9999	8330	18.09.2024	12.07.2024	0290	56259520	5661	D278880034	0013278880	            0034	16.05.2024	-26
		4051482057		10360481	4537038027	00001	2287444	Light bracket OE-100-AH-2 SS	8330	0001	           412	PC	PC	000010	680902312	42277736	5661	8300	L11	9999	8330	18.09.2024	12.07.2024	0210	56259520	5661	D278880025	0013278880	            0025	16.05.2024	-40
		4051482057		10360481	4537038028	00001	2294481	Fixing clamp OE FC-IN-M10/10 PT SS	8330	0001	           480	PC	PC	000010	680902313	42277736	5661	8300	L11	9999	8330	18.09.2024	12.07.2024	0270	56259520	5661	D278880032	0013278880	            0032	16.05.2024	-26
		4051482057		10360481	4537038029	00001	2320901	Cover CO-ET-TP SS	8330	0001	            16	PC	PC	000010	680902314	42277736	5661	8300	L11	9999	8330	18.09.2024	12.07.2024	0320	56259520	5661	D278880037	0013278880	            0037	16.05.2024	-40
		4051482057		10360481	4537038030	00001	2322644	Cover OET-OCT CO-3000 SS	8330	0001	            16	PC	PC	000010	680902315	42277736	5661	8300	L11	9999	8330	18.09.2024	12.07.2024	0330	56259520	5661	D278880038	0013278880	            0038	16.05.2024	-40
		4051482057		10360481	4537038031	00001	2216412	Bracket OS S-M SB-Z 200 M6 + M10 SS	8330	0001	            70	PC	PC	000010	680902316	42277736	5661	8300	L11	9999	8330	18.09.2024	12.07.2024	0010	56285888	5661	D319584002	0013319584	            0002	04.06.2024	-40
		4051482057		10360481	4537038032	00001	2216412	Bracket OS S-M SB-Z 200 M6 + M10 SS	8330	0001	            19	PC	PC	000010	680902317	42277736	5661	8300	L11	9999	8330	18.09.2024	12.07.2024	0020	56285888	5661	D319584004	0013319584	            0004	04.06.2024	-54
		4051487923		10390463	4537118408	00001	2292504	Bracket OS IS 2"100 MM SS	8330	0001	           703	PC	PC	000010	680967800	42339182	5661	8300	L11	9999	8330	02.10.2024	29.07.2024	0280	56259520	5661	D278880033	0013278880	            0033	16.05.2024	-25
		4051490826		10404895	4537153511	00001	2203502	End cover Mekano 100-2T EC TPV	8330	0001	         2.312	PC	PC	000010	680996545	42366664	5651	8300	L11	9999	8330	01.10.2024	05.08.2024	0020	56329702	5651	D419932008	0013419932	            0008	23.07.2024	       0
		4051490826		10404895	4537153512	00001	2203501	End cover Mekano 50-2T1.5 EC TPV plastic	8330	0001	           989	PC	PC	000010	680996546	42366664	5651	8300	L11	9999	8330	01.10.2024	05.08.2024	0010	56329702	5651	D419932007	0013419932	            0007	23.07.2024	       0
		4051490826		10404895	4537153513	00001	2203498	Channel OS S-M CH100-4-5-6000 SS	8330	0001	            48	M	M	000010	680996547	42366664	5651	8300	L11	9999	8330	01.10.2024	05.08.2024	0010	56329769	5651	D409615009	0013409615	            0009	17.07.2024	-18
		4051490826		10404895	4537153514	00001	2208744	Bolt OS LS-M6x40 SS	8330	0001	           100	PC	PC	000010	680996548	42366664	5651	8300	L11	9999	8330	01.10.2024	05.08.2024	0120	56329769	5651	D409615047	0013409615	            0047	17.07.2024	-18
		4051490826		10404895	4537153515	00001	2208752	Plate OS Etin TP SS/PA	8330	0001	           100	PC	PC	000010	680996549	42366664	5651	8300	L11	9999	8330	01.10.2024	05.08.2024	0100	56329769	5651	D409615045	0013409615	            0045	17.07.2024	-18
		4051490826		10404895	4537153516	00001	2208784	Tube clamp OS BU-IN-1/2 SS/PA	8330	0001	           100	PC	PC	000010	680996550	42366664	5651	8300	L11	9999	8330	01.10.2024	05.08.2024	0110	56329769	5651	D409615046	0013409615	            0046	17.07.2024	-18
		4051490826		10404895	4537153517	00001	2230571	Washer WA-24x2.5-M12 A4	8330	0001	           100	PC	PC	000010	680996551	42366664	5651	8300	L11	9999	8330	01.10.2024	05.08.2024	0080	56329769	5651	D409615040	0013409615	            0040	17.07.2024	-18
		4051490826		10404895	4537153519	00001	2268451	U-bolt OS M10 SS	8330	0001	            15	PC	PC	000010	680996552	42366664	5651	8300	L11	9999	8330	01.10.2024	05.08.2024	0060	56329769	5651	D409615036	0013409615	            0036	17.07.2024	      13
		4051490826		10404895	4537153521	00001	2268452	U-bolt OS M10 SS	8330	0001	            30	PC	PC	000010	680996553	42366664	5651	8300	L11	9999	8330	01.10.2024	05.08.2024	0070	56329769	5651	D409615038	0013409615	            0038	17.07.2024	-18
		4051490826		10404895	4537153522	00001	2298003	U-bolt S-M UB- 4" M12 SS	8330	0001	            10	PC	PC	000010	680996554	42366664	5651	8300	L11	9999	8330	01.10.2024	05.08.2024	0040	56329769	5651	D409615032	0013409615	            0032	17.07.2024	-25
		4051490826		10404895	4537153523	00001	2298002	U-bolt S-M UB- 2.1/2" M10 SS	8330	0001	            10	PC	PC	000010	680996555	42366664	5651	8300	L11	9999	8330	01.10.2024	05.08.2024	0130	56329769	5651	D409615	0013409615	            0000	17.07.2024	       0
		4051490826		10404895	4537153524	00001	2203498	Channel OS S-M CH100-4-5-6000 SS	8330	0001	            36	M	M	000010	680996556	42366664	5651	8300	L11	9999	8330	01.10.2024	05.08.2024	0020	56329747	5651	D411885011	0013411885	            0011	18.07.2024	-18
		4051490826		10404895	4537153525	00001	2216416	Strap OS OPS-SD PC02-050 SS	8330	0001	            27	PC	PC	000010	680996557	42366664	5651	8300	L11	9999	8330	01.10.2024	05.08.2024	0060	56329747	5651	D411885023	0013411885	            0023	18.07.2024	-18
		4051490826		10404895	4537153526	00001	2227082	L.bolt OS S-M M12x32 A4	8330	0001	           104	PC	PC	000010	680996558	42366664	5651	8300	L11	9999	8330	01.10.2024	05.08.2024	0110	56329747	5651	D411885032	0013411885	            0032	18.07.2024	-18
		4051490826		10404895	4537153527	00001	2230571	Washer WA-24x2.5-M12 A4	8330	0001	           110	PC	PC	000010	680996559	42366664	5651	8300	L11	9999	8330	01.10.2024	05.08.2024	0030	56329747	5651	D411885012	0013411885	            0012	18.07.2024	-18
		4051490826		10404895	4537153528	00001	2268452	U-bolt OS M10 SS	8330	0001	            31	PC	PC	000010	680996560	42366664	5651	8300	L11	9999	8330	01.10.2024	05.08.2024	0050	56329747	5651	D411885021	0013411885	            0021	18.07.2024	-18
		4051490826		10404895	4537153529	00001	2298003	U-bolt S-M UB- 4" M12 SS	8330	0001	            44	PC	PC	000010	680996561	42366664	5651	8300	L11	9999	8330	01.10.2024	05.08.2024	0120	56329747	5651	D411885034	0013411885	            0034	18.07.2024	-25
		4051490826		10404895	4537153530	00001	2208744	Bolt OS LS-M6x40 SS	8330	0001	            50	PC	PC	000010	680996562	42366664	5651	8300	L11	9999	8330	01.10.2024	05.08.2024	0030	56333444	5651	D412227007	0013412227	            0007	18.07.2024	-18
		4051490826		10404895	4537153531	00001	2208745	Bolt OS LS-M6x65 SS	8330	0001	            50	PC	PC	000010	680996563	42366664	5651	8300	L11	9999	8330	01.10.2024	05.08.2024	0040	56333444	5651	D412227008	0013412227	            0008	18.07.2024	-18
		4051490826		10404895	4537153532	00001	2208752	Plate OS Etin TP SS/PA	8330	0001	            50	PC	PC	000010	680996564	42366664	5651	8300	L11	9999	8330	01.10.2024	05.08.2024	0010	56333444	5651	D412227005	0013412227	            0005	18.07.2024	-18
		4051490826		10404895	4537153533	00001	2208784	Tube clamp OS BU-IN-1/2 SS/PA	8330	0001	           100	PC	PC	000010	680996565	42366664	5651	8300	L11	9999	8330	01.10.2024	05.08.2024	0020	56333444	5651	D412227006	0013412227	            0006	18.07.2024	-18
		4051490826		10404895	4537153534	00001	2216384	Clamp OS OPS-SD PC23-080 SS	8330	0001	             7	PC	PC	000010	680996566	42366664	5651	8300	L11	9999	8330	01.10.2024	05.08.2024	0070	56333444	5651	D412227011	0013412227	            0011	18.07.2024	      14
		4051490826		10404895	4537153535	00001	2230571	Washer WA-24x2.5-M12 A4	8330	0001	           200	PC	PC	000010	680996567	42366664	5651	8300	L11	9999	8330	01.10.2024	05.08.2024	0150	56333444	5651	D412227031	0013412227	            0031	18.07.2024	-18
		4051490826		10404895	4537153536	00001	2208744	Bolt OS LS-M6x40 SS	8330	0001	           100	PC	PC	000010	680996568	42366664	5651	8300	L11	9999	8330	01.10.2024	05.08.2024	0030	56326590	5651	D413585006	0013413585	            0006	20.07.2024	-18
		4051490826		10404895	4537153538	00001	2208745	Bolt OS LS-M6x65 SS	8330	0001	           100	PC	PC	000010	680996569	42366664	5651	8300	L11	9999	8330	01.10.2024	05.08.2024	0040	56326590	5651	D413585007	0013413585	            0007	20.07.2024	-18
		4051490826		10404895	4537153539	00001	2208752	Plate OS Etin TP SS/PA	8330	0001	           100	PC	PC	000010	680996570	42366664	5651	8300	L11	9999	8330	01.10.2024	05.08.2024	0010	56326590	5651	D413585004	0013413585	            0004	20.07.2024	-18
		4051490826		10404895	4537153540	00001	2208784	Tube clamp OS BU-IN-1/2 SS/PA	8330	0001	           200	PC	PC	000010	680996571	42366664	5651	8300	L11	9999	8330	01.10.2024	05.08.2024	0020	56326590	5651	D413585005	0013413585	            0005	20.07.2024	-18
		4051490826		10404895	4537153541	00001	2216384	Clamp OS OPS-SD PC23-080 SS	8330	0001	             2	PC	PC	000010	680996572	42366664	5651	8300	L11	9999	8330	01.10.2024	05.08.2024	0070	56326590	5651	D413585010	0013413585	            0010	20.07.2024	      14
		4051490826		10404895	4537153543	00001	2230571	Washer WA-24x2.5-M12 A4	8330	0001	           400	PC	PC	000010	680996573	42366664	5651	8300	L11	9999	8330	01.10.2024	05.08.2024	0140	56326590	5651	D413585031	0013413585	            0031	20.07.2024	-18
		4051490826		10404895	4537153544	00001	2330423	Pipe clamp PC-21-025-1" SS	8330	0001	            20	PC	PC	000010	680996574	42366664	5651	8300	L11	9999	8330	01.10.2024	05.08.2024	0110	56326590	5651	D413585014	0013413585	            0014	20.07.2024	-25
		4051490826		10404895	4537153545	00001	2238439	Tube clamp INKO-M TC-ME19 PP	8330	0001	           291	PC	PC	000010	680996575	42366664	5651	8300	L11	9999	8330	01.10.2024	05.08.2024	0020	56328180	5651	D418096010	0013418096	            0010	22.07.2024	-18
		4051490826		10404895	4537153547	00001	2264474	Module base OS INKO-M BU 13 PP	8330	0001	            96	PC	PC	000010	680996576	42366664	5651	8300	L11	9999	8330	01.10.2024	05.08.2024	0030	56328180	5651	D418096013	0013418096	            0013	22.07.2024	-18
		4051490826		10404895	4537153548	00001	2208782	L.nut LN-AV-FL-M6 A4	8330	0001	           448	PC	PC	000010	680996577	42366664	5651	8300	L11	9999	8330	01.10.2024	05.08.2024	0220	56326570	5651	D413586059	0013413586	            0059	20.07.2024	-18
		4051490826		10404895	4537153549	00001	2203501	End cover Mekano 50-2T1.5 EC TPV plastic	8330	0001	           275	PC	PC	000010	680996578	42366664	5651	8300	L11	9999	8330	01.10.2024	05.08.2024	0050	56326570	5651	D413586011	0013413586	            0011	20.07.2024	       0
		4051490826		10404895	4537153550	00001	2203498	Channel OS S-M CH100-4-5-6000 SS	8330	0001	             6	M	M	000010	680996579	42366664	5651	8300	L11	9999	8330	01.10.2024	05.08.2024	0020	56326570	5651	D413586003	0013413586	            0003	20.07.2024	-18
		4051490826		10404895	4537153552	00001	2203498	Channel OS S-M CH100-4-5-6000 SS	8330	0001	            84	M	M	000010	680996580	42366664	5651	8300	L11	9999	8330	01.10.2024	05.08.2024	0100	56326570	5651	D413586034	0013413586	            0034	20.07.2024	      21
		4051490826		10404895	4537153553	00001	2208744	Bolt OS LS-M6x40 SS	8330	0001	           200	PC	PC	000010	680996581	42366664	5651	8300	L11	9999	8330	01.10.2024	05.08.2024	0140	56326570	5651	D413586050	0013413586	            0050	20.07.2024	-18
		4051490826		10404895	4537153554	00001	2208752	Plate OS Etin TP SS/PA	8330	0001	           200	PC	PC	000010	680996582	42366664	5651	8300	L11	9999	8330	01.10.2024	05.08.2024	0120	56326570	5651	D413586048	0013413586	            0048	20.07.2024	-18
		4051490826		10404895	4537153555	00001	2208780	Adapter OS AD-3/8 PA 66 PA	8330	0001	           100	PC	PC	000010	680996583	42366664	5651	8300	L11	9999	8330	01.10.2024	05.08.2024	0160	56326570	5651	D413586052	0013413586	            0052	20.07.2024	-18
		4051490826		10404895	4537153556	00001	2208784	Tube clamp OS BU-IN-1/2 SS/PA	8330	0001	           150	PC	PC	000010	680996584	42366664	5651	8300	L11	9999	8330	01.10.2024	05.08.2024	0130	56326570	5651	D413586049	0013413586	            0049	20.07.2024	-18
		4051490826		10404895	4537153557	00001	2216047	Adapter OS AD-1/4 Polyamide	8330	0001	           100	PC	PC	000010	680996585	42366664	5651	8300	L11	9999	8330	01.10.2024	05.08.2024	0150	56326570	5651	D413586051	0013413586	            0051	20.07.2024	-18
		4051490826		10404895	4537153558	00001	2216416	Strap OS OPS-SD PC02-050 SS	8330	0001	            54	PC	PC	000010	680996586	42366664	5651	8300	L11	9999	8330	01.10.2024	05.08.2024	0110	56326570	5651	D413586035	0013413586	            0035	20.07.2024	-18
		4051490826		10404895	4537153559	00001	2227082	L.bolt OS S-M M12x32 A4	8330	0001	           100	PC	PC	000010	680996587	42366664	5651	8300	L11	9999	8330	01.10.2024	05.08.2024	0040	56326570	5651	D413586006	0013413586	            0006	20.07.2024	-18
		4051490826		10404895	4537153560	00001	2230571	Washer WA-24x2.5-M12 A4	8330	0001	           400	PC	PC	000010	680996588	42366664	5651	8300	L11	9999	8330	01.10.2024	05.08.2024	0090	56326570	5651	D413586025	0013413586	            0025	20.07.2024	-18
		4051490826		10404895	4537153561	00001	2268451	U-bolt OS M10 SS	8330	0001	            20	PC	PC	000010	680996589	42366664	5651	8300	L11	9999	8330	01.10.2024	05.08.2024	0180	56326570	5651	D413586054	0013413586	            0054	20.07.2024	       8
		4051490826		10404895	4537153562	00001	2290190	U-bolt UB-1"-M8 PT SS	8330	0001	            20	PC	PC	000010	680996590	42366664	5651	8300	L11	9999	8330	01.10.2024	05.08.2024	0190	56326570	5651	D413586055	0013413586	            0055	20.07.2024	-25
		4051490826		10404895	4537153563	00001	2294441	U-bolt UB-3/4"-M8 PT SS	8330	0001	            20	PC	PC	000010	680996591	42366664	5651	8300	L11	9999	8330	01.10.2024	05.08.2024	0200	56326570	5651	D413586056	0013413586	            0056	20.07.2024	-18
		4051490826		10404895	4537153564	00001	2298003	U-bolt S-M UB- 4" M12 SS	8330	0001	            20	PC	PC	000010	680996592	42366664	5651	8300	L11	9999	8330	01.10.2024	05.08.2024	0170	56326570	5651	D413586053	0013413586	            0053	20.07.2024	-25
		4051490826		10404895	4537153565	00001	2305393	Corrosion protection paste CPP 1 KG	8330	0001	             1	PC	PC	000010	680996593	42366664	5651	8300	L11	9999	8330	01.10.2024	05.08.2024	0010	56326570	5651	D413586001	0013413586	            0001	20.07.2024	       0
		4051490826		10404895	4537153566	00001	2330423	Pipe clamp PC-21-025-1" SS	8330	0001	            20	PC	PC	000010	680996594	42366664	5651	8300	L11	9999	8330	01.10.2024	05.08.2024	0080	56326570	5651	D413586020	0013413586	            0020	20.07.2024	-25
		4051490826		10404895	4537153567	00001	2203501	End cover Mekano 50-2T1.5 EC TPV plastic	8330	0001	           100	PC	PC	000010	680996595	42366664	5651	8300	L11	9999	8330	01.10.2024	05.08.2024	0020	56325397	5651	D411882006	0013411882	            0006	18.07.2024	-18
		4051490826		10404895	4537153569	00001	2208744	Bolt OS LS-M6x40 SS	8330	0001	           100	PC	PC	000010	680996596	42366664	5651	8300	L11	9999	8330	01.10.2024	05.08.2024	0060	56325397	5651	D411882018	0013411882	            0018	18.07.2024	-18
		4051490826		10404895	4537153570	00001	2208745	Bolt OS LS-M6x65 SS	8330	0001	           100	PC	PC	000010	680996597	42366664	5651	8300	L11	9999	8330	01.10.2024	05.08.2024	0070	56325397	5651	D411882019	0013411882	            0019	18.07.2024	-18
		4051490826		10404895	4537153571	00001	2208752	Plate OS Etin TP SS/PA	8330	0001	           100	PC	PC	000010	680996598	42366664	5651	8300	L11	9999	8330	01.10.2024	05.08.2024	0040	56325397	5651	D411882016	0013411882	            0016	18.07.2024	-18
		4051490826		10404895	4537153572	00001	2208780	Adapter OS AD-3/8 PA 66 PA	8330	0001	            50	PC	PC	000010	680996599	42366664	5651	8300	L11	9999	8330	01.10.2024	05.08.2024	0090	56325397	5651	D411882021	0013411882	            0021	18.07.2024	-18
		4051490826		10404895	4537153573	00001	2208784	Tube clamp OS BU-IN-1/2 SS/PA	8330	0001	           100	PC	PC	000010	680996600	42366664	5651	8300	L11	9999	8330	01.10.2024	05.08.2024	0050	56325397	5651	D411882017	0013411882	            0017	18.07.2024	-18
		4051490826		10404895	4537153574	00001	2216047	Adapter OS AD-1/4 Polyamide	8330	0001	            50	PC	PC	000010	680996601	42366664	5651	8300	L11	9999	8330	01.10.2024	05.08.2024	0080	56325397	5651	D411882020	0013411882	            0020	18.07.2024	-18
		4051490826		10404895	4537153575	00001	2230571	Washer WA-24x2.5-M12 A4	8330	0001	           100	PC	PC	000010	680996602	42366664	5651	8300	L11	9999	8330	01.10.2024	05.08.2024	0030	56325397	5651	D411882015	0013411882	            0015	18.07.2024	-18
		4051490826		10404895	4537153576	00001	2305393	Corrosion protection paste CPP 1 KG	8330	0001	             3	PC	PC	000010	680996604	42366664	5651	8300	L11	9999	8330	01.10.2024	05.08.2024	0100	56325397	5651	D411882022	0013411882	            0022	18.07.2024	-25
		4051490826		10404895	4537153577	00001	2203502	End cover Mekano 100-2T EC TPV	8330	0001	           500	PC	PC	000010	680996605	42366664	5651	8300	L11	9999	8330	01.10.2024	05.08.2024	0030	56324181	5651	D409306008	0013409306	            0008	17.07.2024	-4
		4051490826		10404895	4537153579	00001	2227082	L.bolt OS S-M M12x32 A4	8330	0001	           800	PC	PC	000010	680996606	42366664	5651	8300	L11	9999	8330	01.10.2024	05.08.2024	0020	56324181	5651	D409306005	0013409306	            0005	17.07.2024	-4
		4051490826		10404895	4537153580	00001	2203502	End cover Mekano 100-2T EC TPV	8330	0001	           350	PC	PC	000010	680996607	42366664	5651	8300	L11	9999	8330	01.10.2024	05.08.2024	0010	56324183	5651	D409307008	0013409307	            0008	17.07.2024	-4
		4051490826		10404895	4537153581	00001	2203501	End cover Mekano 50-2T1.5 EC TPV plastic	8330	0001	           350	PC	PC	000010	680996608	42366664	5651	8300	L11	9999	8330	01.10.2024	05.08.2024	0020	56324183	5651	D409307009	0013409307	            0009	17.07.2024	-4
		4051490826		10404895	4537153582	00001	2230571	Washer WA-24x2.5-M12 A4	8330	0001	           100	PC	PC	000010	680996609	42366664	5651	8300	L11	9999	8330	01.10.2024	05.08.2024	0030	56324183	5651	D409307018	0013409307	            0018	17.07.2024	-4
		4051490826		10404895	4537153583	00001	2305393	Corrosion protection paste CPP 1 KG	8330	0001	             5	PC	PC	000010	680996610	42366664	5651	8300	L11	9999	8330	01.10.2024	05.08.2024	0040	56324183	5651	D409307019	0013409307	            0019	17.07.2024	-18
		4051490826		10404895	4537153584	00001	2203501	End cover Mekano 50-2T1.5 EC TPV plastic	8330	0001	           500	PC	PC	000010	680996611	42366664	5651	8300	L11	9999	8330	01.10.2024	05.08.2024	0020	56325403	5651	D411883016	0013411883	            0016	18.07.2024	-18
		4051490826		10404895	4537153585	00001	2230571	Washer WA-24x2.5-M12 A4	8330	0001	           100	PC	PC	000010	680996612	42366664	5651	8300	L11	9999	8330	01.10.2024	05.08.2024	0030	56325403	5651	D411883026	0013411883	            0026	18.07.2024	-18
		4051490826		10404895	4537153586	00001	2203501	End cover Mekano 50-2T1.5 EC TPV plastic	8330	0001	           150	PC	PC	000010	680996613	42366664	5651	8300	L11	9999	8330	01.10.2024	05.08.2024	0030	56325418	5651	D411884029	0013411884	            0029	18.07.2024	-18
		4051490826		10404895	4537153587	00001	2223956	Hexagon bolt BO-HX-M12x45 A4	8330	0001	            50	PC	PC	000010	680996614	42366664	5651	8300	L11	9999	8330	01.10.2024	05.08.2024	0090	56325418	5651	D411884048	0013411884	            0048	18.07.2024	-18
		4051490826		10404895	4537153588	00001	2227082	L.bolt OS S-M M12x32 A4	8330	0001	           500	PC	PC	000010	680996615	42366664	5651	8300	L11	9999	8330	01.10.2024	05.08.2024	0100	56325418	5651	D411884049	0013411884	            0049	18.07.2024	-18
		4051490826		10404895	4537153589	00001	2230571	Washer WA-24x2.5-M12 A4	8330	0001	           200	PC	PC	000010	680996616	42366664	5651	8300	L11	9999	8330	01.10.2024	05.08.2024	0080	56325418	5651	D411884043	0013411884	            0043	18.07.2024	-18
		4051490826		10404895	4537153590	00001	2298001	U-bolt S-M UB- 1/2" M8 SS	8330	0001	             5	PC	PC	000010	680996617	42366664	5651	8300	L11	9999	8330	01.10.2024	05.08.2024	0070	56325418	5651	D411884042	0013411884	            0042	18.07.2024	-25
		4051490834		10404900	4537153591	00001	2216389	Cantilever arm OS S-M CA-30-400 SS	8330	0001	             2	PC	PC	000010	680996618	42367059	5651	8300	L11	9999	8330	01.10.2024	05.08.2024	0090	56220131	5651	D202036009	0013202036	            0009	09.04.2024	      94
		4051490834		10404900	4537153592	00001	2216391	Plate OS A-M-PL SS	8330	0001	            40	PC	PC	000010	680996619	42367059	5651	8300	L11	9999	8330	01.10.2024	05.08.2024	0100	56220131	5651	D202036010	0013202036	            0010	09.04.2024	      80
		4051490834		10404900	4537153593	00001	2216384	Clamp OS OPS-SD PC23-080 SS	8330	0001	           380	PC	PC	000010	680996620	42367059	5651	8300	L11	9999	8330	01.10.2024	05.08.2024	0130	56230872	5651	D223014013	0013223014	            0013	18.04.2024	      80
		4051490834		10404900	4537153594	00001	2216385	Clamp OS OPS-SD PC23-100 SS	8330	0001	           500	PC	PC	000010	680996621	42367059	5651	8300	L11	9999	8330	01.10.2024	05.08.2024	0140	56230872	5651	D223014014	0013223014	            0014	18.04.2024	      80
		4051490834		10404900	4537153595	00001	2205245	L.nut LN-AV-FL-M12 A4	8330	0001	           101	PC	PC	000010	680996622	42367059	5651	8300	L11	9999	8330	01.10.2024	05.08.2024	0090	56248260	5651	D256436009	0013256436	            0009	04.05.2024	      59
		4051490834		10404900	4537153596	00001	2216423	Adapter OS OPS-SD AD01-B SS	8330	0001	            56	PC	PC	000010	680996623	42367059	5651	8300	L11	9999	8330	01.10.2024	05.08.2024	0080	56255052	5651	D267245008	0013267245	            0008	09.05.2024	      59
		4051490834		10404900	4537153597	00001	2247240	Hexagon bolt OS S-M HE-M6x20 A4	8330	0001	           400	PC	PC	000010	680996624	42367059	5651	8300	L11	9999	8330	01.10.2024	05.08.2024	0060	56259514	5651	D278880039	0013278880	            0039	16.05.2024	      52
		4051490834		10404900	4537153598	00001	2338685	Pipe clamp OPS-SD PC-21-040-EPDM SS	8330	0001	             7	PC	PC	000010	680996625	42367059	5651	8300	L11	9999	8330	01.10.2024	05.08.2024	0050	56259514	5651	D278880028	0013278880	            0028	16.05.2024	      56
		4051490834		10404900	4537153599	00001	2247240	Hexagon bolt OS S-M HE-M6x20 A4	8330	0001	           200	PC	PC	000010	680996626	42367059	5651	8300	L11	9999	8330	01.10.2024	05.08.2024	0060	56260705	5651	D279881039	0013279881	            0039	16.05.2024	      52
		4051490834		10404900	4537153600	00001	2203501	End cover Mekano 50-2T1.5 EC TPV plastic	8330	0001	           100	PC	PC	000010	680996627	42367059	5651	8300	L11	9999	8330	01.10.2024	05.08.2024	0020	56299517	5651	D358737005	0013358737	            0005	24.06.2024	      17
		4051490834		10404900	4537153601	00001	2203502	End cover Mekano 100-2T EC TPV	8330	0001	           300	PC	PC	000010	680996628	42367059	5651	8300	L11	9999	8330	01.10.2024	05.08.2024	0010	56299517	5651	D358737004	0013358737	            0004	24.06.2024	      17
		4051490834		10404900	4537153602	00001	2205245	L.nut LN-AV-FL-M12 A4	8330	0001	           250	PC	PC	000010	680996629	42367059	5651	8300	L11	9999	8330	01.10.2024	05.08.2024	0100	56299517	5651	D358737025	0013358737	            0025	24.06.2024	      17
		4051490834		10404900	4537153603	00001	2216382	Clamp OS OPS-SD PC23-050 SS	8330	0001	            37	PC	PC	000010	680996630	42367059	5651	8300	L11	9999	8330	01.10.2024	05.08.2024	0050	56299517	5651	D358737016	0013358737	            0016	24.06.2024	      17
		4051490834		10404900	4537153604	00001	2216385	Clamp OS OPS-SD PC23-100 SS	8330	0001	             2	PC	PC	000010	680996631	42367059	5651	8300	L11	9999	8330	01.10.2024	05.08.2024	0060	56299517	5651	D358737018	0013358737	            0018	24.06.2024	      21
		4051490834		10404900	4537153605	00001	2225459	Strap OS OPS-SD PC01-100 SS	8330	0001	             9	PC	PC	000010	680996632	42367059	5651	8300	L11	9999	8330	01.10.2024	05.08.2024	0080	56299517	5651	D358737021	0013358737	            0021	24.06.2024	      17
		4051490834		10404900	4537153606	00001	2227082	L.bolt OS S-M M12x32 A4	8330	0001	           300	PC	PC	000010	680996633	42367059	5651	8300	L11	9999	8330	01.10.2024	05.08.2024	0090	56299517	5651	D358737024	0013358737	            0024	24.06.2024	      17
		4051490834		10404900	4537153607	00001	2230571	Washer WA-24x2.5-M12 A4	8330	0001	           100	PC	PC	000010	680996634	42367059	5651	8300	L11	9999	8330	01.10.2024	05.08.2024	0030	56299517	5651	D358737013	0013358737	            0013	24.06.2024	      17
		4051490844		10404901	4537153608	00001	2247240	Hexagon bolt OS S-M HE-M6x20 A4	8330	0001	           160	PC	PC	000010	680996635	42367062	5651	8300	L11	9999	8330	15.08.2024	05.08.2024	0010	56148438	5651	D060290001	0013060290	            0001	01.02.2024	     163
		4051492087		10411272	4537168468	00001	2227082	L.bolt OS S-M M12x32 A4	8330	0001	         1.661	PC	PC	000010	681008454	42376425	5651	8300	L11	9999	8330	03.10.2024	07.08.2024	0010	56339017	5651	D442373003	0013442373	            0003	01.08.2024	-21
		4051492087		10411272	4537168469	00001	2227082	L.bolt OS S-M M12x32 A4	8330	0001	           300	PC	PC	000010	681008455	42376425	5651	8300	L11	9999	8330	03.10.2024	07.08.2024	0050	56325418	5651	D411884032	0013411884	            0032	18.07.2024	-14
		4051492089		10411513	4537169463	00001	2216421	Strap OS OPS-SD PC01-150 SS	8330	0001	             4	PC	PC	000010	681009454	42376426	5651	8300	L11	9999	8330	03.10.2024	07.08.2024	0070	56299517	5651	D358737019	0013358737	            0019	24.06.2024	      21
		4051492089		10411513	4537169464	00001	2305393	Corrosion protection paste CPP 1 KG	8330	0001	            12	PC	PC	000010	681009455	42376426	5651	8300	L11	9999	8330	03.10.2024	07.08.2024	0040	56299517	5651	D358737014	0013358737	            0014	24.06.2024	       7
		4051492089		10411513	4537169465	00001	2216385	Clamp OS OPS-SD PC23-100 SS	8330	0001	             4	PC	PC	000010	681009456	42376426	5651	8300	L11	9999	8330	03.10.2024	07.08.2024	0060	56299517	5651	D358737018	0013358737	            0018	24.06.2024	      21
		4051492845		10415482	4537179182	00001	2322644	Cover OET-OCT CO-3000 SS	8330	0001	             1	PC	PC	000010	681017131	42387002	5661	8300	L11	9999	8330	19.08.2024	09.08.2024	0010	56338127	5661	D436068001	0013436068	            0001	31.07.2024	-26
		4051492847		10415688	4537179183	00001	2342673	Equipmenttower OET-OCT 3000 PT-A SS	8330	0001	            15	PC	PC	000010	681017132	42387003	5661	8300	L11	9999	8330	28.08.2024	09.08.2024	0010	56311032	5661	D384785001	0013384785	            0001	04.07.2024	       0
		4051494566		10421726	4537204280	00001	2008829	Strut clamp MH-EMTV 1" PG	8330	0001	           200	PC	PC	000010	681038403	1152649071	HUS4701	8300	L06	9999	8330	30.09.2024	14.08.2024	0020	56345598	HUS4701	D455681002	0013455681	            0002	08.08.2024	-14
		4051494566		10421726	4537204281	00001	2204309	Sidelap connector S-SLC 01 M9	8330	0001	         2.000	PC	PC	000010	681038404	1152649070	HUS4701	8300	L10	9999	8330	30.09.2024	14.08.2024	0010	56342424	HUS4701	D418058012	0013418058	            0012	22.07.2024	       0
		4051494566		10421726	4537204282	00001	2204300	Frame screw S-RT5+ M9	8330	0001	         2.000	PC	PC	000010	681038405	1152649070	HUS4701	8300	L10	9999	8330	30.09.2024	14.08.2024	0040	56342424	HUS4701	D418058033	0013418058	            0033	22.07.2024	       0
		4051494566		10421726	4537204283	00001	2062739	Flush anchor HDI-L+ 3/8"	8330	0001	         1.200	PC	PC	000010	681038406	1152649069	HUS4701	8300	L02	9999	8330	30.09.2024	14.08.2024	0030	56342898	HUS4701	D451531004	0013451531	            0004	06.08.2024	-14
		4051494566		10421726	4537204284	00001	418072	Screw anchor KH-EZ 1/2"x3 1/2"	8330	0001	            25	PC	PC	000010	681038407	1152649067	HUS4701	8300	L02	9999	8330	30.09.2024	14.08.2024	0010	56299301	HUS4701	D358786001	0013358786	            0001	24.06.2024	      21
		4051494566		10421726	4537204285	00001	418072	Screw anchor KH-EZ 1/2"x3 1/2"	8330	0001	           350	PC	PC	000010	681038408	1152649067	HUS4701	8300	L02	9999	8330	30.09.2024	14.08.2024	0010	56303727	HUS4701	D366132001	0013366132	            0001	27.06.2024	      49
		4051494566		10421726	4537204286	00001	418073	Screw anchor KH-EZ 1/2"x4"	8330	0001	           500	PC	PC	000010	681038409	1152649066	HUS4701	8300	L02	9999	8330	30.09.2024	14.08.2024	0020	56302227	HUS4701	D363795008	0013363795	            0008	26.06.2024	      21
		4051494566		10421726	4537204287	00001	2204310	Sidelap connector S-SLC 02 M9	8330	0001	         2.000	PC	PC	000010	681038410	1152649064	HUS4701	8300	L10	9999	8330	30.09.2024	14.08.2024	0020	56342424	HUS4701	D418058014	0013418058	            0014	22.07.2024	       0
		4051494566		10421726	4537204288	00001	2204312	Self-drill screw S-MD12-24x7/8" HWH4 M9	8330	0001	         2.000	PC	PC	000010	681038411	1152649064	HUS4701	8300	L10	9999	8330	30.09.2024	14.08.2024	0030	56342424	HUS4701	D418058025	0013418058	            0025	22.07.2024	       0
		4051494566		10421726	4537204291	00001	2204314	Frame screw S-MD12-24x1 5/8"RT5 M9	8330	0001	         2.000	PC	PC	000010	681038412	1152649064	HUS4701	8300	L10	9999	8330	30.09.2024	14.08.2024	0050	56342424	HUS4701	D418058039	0013418058	            0039	22.07.2024	       0
		4051494566		10421726	4537204292	00001	2204311	Self-drill screw S-MD10-16x3/4" HWH3 M9	8330	0001	         2.000	PC	PC	000010	681038413	1152649064	HUS4701	8300	L10	9999	8330	30.09.2024	14.08.2024	0060	56342424	HUS4701	D418058040	0013418058	            0040	22.07.2024	       0
		4051494566		10421726	4537204293	00001	2113269	Impact socket SI-S 3/4" - 1-1/4 L	8330	0001	             1	PC	PC	000010	681038414	1152649065	HUS4701	8300	L09	9999	8330	30.09.2024	14.08.2024	0020	56320713	HUS4701	D403852019	0013403852	            0019	15.07.2024	       7
		4051494566		10421726	4537204294	00001	2291201	Adaptive torque module SI-AT-22 inch	8330	0001	             1	PC	PC	000010	681038415	1152649073	HUS4701	8300	L15	9999	8330	30.09.2024	14.08.2024	0010	56293442	HUS4701	D345937002	0013345937	            0002	18.06.2024	      21
		4051494566		10421726	4537204295	00001	2291201	Adaptive torque module SI-AT-22 inch	8330	0001	             2	PC	PC	000010	681038416	1152649073	HUS4701	8300	L15	9999	8330	30.09.2024	14.08.2024	0020	56293442	HUS4701	D345937006	0013345937	            0006	18.06.2024	      14
		4051494566		10421726	4537204296	00001	2291201	Adaptive torque module SI-AT-22 inch	8330	0001	             8	PC	PC	000010	681038417	1152649073	HUS4701	8300	L15	9999	8330	30.09.2024	14.08.2024	0030	56293442	HUS4701	D345937008	0013345937	            0008	18.06.2024	      28
		4051494567		10421726	4537204298	00001	228341	Ceiling hanger X-EHS W6 MX	8330	0001	         6.400	PC	PC	000010	681038418	1152649063	HUS4701	8300	L04	9999	8330	30.09.2024	14.08.2024	0020	56274050	HUS4701	D304711059	0013304711	            0059	30.05.2024	      35
		4051494516		10423144	4537204523	00001	2199637	Core bit BI 30/320 SP-L abras	8750	0001	             2	PC	PC	000010	681038586	58154790	HLI0550	8750	L05	9999	8750	21.08.2024	14.08.2024	0010	56332506	HLI0550	D425323001	0013425323	            0001	25.07.2024	       2

	*										    14.448,900	M																			  15.464
											    18.496.452	PC
